# SymbolsHelper-Confirmed: 2.2.1 amd64
libQtWebKit.so.4 libqtwebkit4 #MINVER#
* Build-Depends-Package: libqtwebkit-dev
 JSClassCreate@Base 2.1.0~2011week13
 JSClassRelease@Base 2.1.0~2011week13
 JSClassRetain@Base 2.1.0~2011week13
 JSObjectCallAsConstructor@Base 2.1.0~2011week13
 JSObjectCallAsFunction@Base 2.1.0~2011week13
 JSObjectCopyPropertyNames@Base 2.1.0~2011week13
 JSObjectDeletePrivateProperty@Base 2.1.0~2011week13
 JSObjectDeleteProperty@Base 2.1.0~2011week13
 JSObjectGetPrivate@Base 2.1.0~2011week13
 JSObjectGetPrivateProperty@Base 2.1.0~2011week13
 JSObjectGetProperty@Base 2.1.0~2011week13
 JSObjectGetPropertyAtIndex@Base 2.1.0~2011week13
 JSObjectGetPrototype@Base 2.1.0~2011week13
 JSObjectHasProperty@Base 2.1.0~2011week13
 JSObjectIsConstructor@Base 2.1.0~2011week13
 JSObjectIsFunction@Base 2.1.0~2011week13
 JSObjectMake@Base 2.1.0~2011week13
 JSObjectMakeArray@Base 2.1.0~2011week13
 JSObjectMakeConstructor@Base 2.1.0~2011week13
 JSObjectMakeDate@Base 2.1.0~2011week13
 JSObjectMakeError@Base 2.1.0~2011week13
 JSObjectMakeFunction@Base 2.1.0~2011week13
 JSObjectMakeFunctionWithCallback@Base 2.1.0~2011week13
 JSObjectMakeRegExp@Base 2.1.0~2011week13
 JSObjectSetPrivate@Base 2.1.0~2011week13
 JSObjectSetPrivateProperty@Base 2.1.0~2011week13
 JSObjectSetProperty@Base 2.1.0~2011week13
 JSObjectSetPropertyAtIndex@Base 2.1.0~2011week13
 JSObjectSetPrototype@Base 2.1.0~2011week13
 JSPropertyNameAccumulatorAddName@Base 2.1.0~2011week13
 JSPropertyNameArrayGetCount@Base 2.1.0~2011week13
 JSPropertyNameArrayGetNameAtIndex@Base 2.1.0~2011week13
 JSPropertyNameArrayRelease@Base 2.1.0~2011week13
 JSPropertyNameArrayRetain@Base 2.1.0~2011week13
 JSStringCreateWithCharacters@Base 2.1.0~2011week13
 JSStringCreateWithUTF8CString@Base 2.1.0~2011week13
 JSStringGetCharactersPtr@Base 2.1.0~2011week13
 JSStringGetLength@Base 2.1.0~2011week13
 JSStringGetMaximumUTF8CStringSize@Base 2.1.0~2011week13
 JSStringGetUTF8CString@Base 2.1.0~2011week13
 JSStringIsEqual@Base 2.1.0~2011week13
 JSStringIsEqualToUTF8CString@Base 2.1.0~2011week13
 JSStringRelease@Base 2.1.0~2011week13
 JSStringRetain@Base 2.1.0~2011week13
 JSValueCreateJSONString@Base 2.1.0~2011week13
 JSValueGetType@Base 2.1.0~2011week13
 JSValueIsBoolean@Base 2.1.0~2011week13
 JSValueIsEqual@Base 2.1.0~2011week13
 JSValueIsInstanceOfConstructor@Base 2.1.0~2011week13
 JSValueIsNull@Base 2.1.0~2011week13
 JSValueIsNumber@Base 2.1.0~2011week13
 JSValueIsObject@Base 2.1.0~2011week13
 JSValueIsObjectOfClass@Base 2.1.0~2011week13
 JSValueIsStrictEqual@Base 2.1.0~2011week13
 JSValueIsString@Base 2.1.0~2011week13
 JSValueIsUndefined@Base 2.1.0~2011week13
 JSValueMakeBoolean@Base 2.1.0~2011week13
 JSValueMakeFromJSONString@Base 2.1.0~2011week13
 JSValueMakeNull@Base 2.1.0~2011week13
 JSValueMakeNumber@Base 2.1.0~2011week13
 JSValueMakeString@Base 2.1.0~2011week13
 JSValueMakeUndefined@Base 2.1.0~2011week13
 JSValueProtect@Base 2.1.0~2011week13
 JSValueToBoolean@Base 2.1.0~2011week13
 JSValueToNumber@Base 2.1.0~2011week13
 JSValueToObject@Base 2.1.0~2011week13
 JSValueToStringCopy@Base 2.1.0~2011week13
 JSValueUnprotect@Base 2.1.0~2011week13
 _Z10qt_drt_runb@Base 2.1.0~2011week13
 _Z14qWebKitVersionv@Base 2.1.0~2011week13
 _Z19qWebKitMajorVersionv@Base 2.1.0~2011week13
 _Z19qWebKitMinorVersionv@Base 2.1.0~2011week13
 _Z20qt_dump_frame_loaderb@Base 2.1.0~2011week13
 _Z20qt_webpage_groupNameP8QWebPage@Base 2.1.0~2011week13
 _Z21qt_drt_clearFrameNameP9QWebFrame@Base 2.1.0~2011week13
 _Z21qt_drt_pauseAnimationP9QWebFrameRK7QStringdS3_@Base 2.1.0~2011week13
 _Z23qt_networkAccessAllowedb@Base 2.1.0~2011week13
 _Z23qt_webpage_setGroupNameP8QWebPageRK7QString@Base 2.1.0~2011week13
 _Z25qt_dump_editing_callbacksb@Base 2.1.0~2011week13
 _Z25qt_resumeActiveDOMObjectsP9QWebFrame@Base 2.1.0~2011week13
 _Z26qt_suspendActiveDOMObjectsP9QWebFrame@Base 2.1.0~2011week13
 _Z27qt_dump_set_accepts_editingb@Base 2.1.0~2011week13
 _Z29qt_drt_javaScriptObjectsCountv@Base 2.1.0~2011week13
 _Z31qt_drt_garbageCollector_collectv@Base 2.1.0~2011week13
 _Z31qt_drt_numberOfActiveAnimationsP9QWebFrame@Base 2.1.0~2011week13
 _Z31qt_dump_resource_load_callbacksb@Base 2.1.0~2011week13
 _Z32qt_drt_pauseTransitionOfPropertyP9QWebFrameRK7QStringdS3_@Base 2.1.0~2011week13
 _Z32qt_drt_whiteListAccessFromOriginRK7QStringS1_S1_b@Base 2.1.0~2011week13
 _Z32qtwebkit_webframe_scrollOverflowP9QWebFrameiiRK6QPoint@Base 2.1.0~2011week13
 _Z33qt_drt_overwritePluginDirectoriesv@Base 2.1.0~2011week13
 _Z34qt_drt_resetOriginAccessWhiteListsv@Base 2.1.0~2011week13
 _Z35qtwebkit_webframe_scrollRecursivelyP9QWebFrameiiRK6QPoint@Base 2.1.0~2011week13
 _Z36qt_drt_setJavaScriptProfilingEnabledP9QWebFrameb@Base 2.1.0~2011week13
 _Z48qt_drt_garbageCollector_collectOnAlternateThreadb@Base 2.1.0~2011week13
 (arch=armel mips mipsel sh4 sparc sparc64)_Z6qDebugv@Base 2.2.0
 (arch=armel)_Z8qWarningv@Base 2.2.0
 _ZN11QWebElement11encloseWithERK7QString@Base 2.1.0~2011week13
 _ZN11QWebElement11encloseWithERKS_@Base 2.1.0~2011week13
 _ZN11QWebElement11removeClassERK7QString@Base 2.1.0~2011week13
 _ZN11QWebElement11setInnerXmlERK7QString@Base 2.1.0~2011week13
 _ZN11QWebElement11setOuterXmlERK7QString@Base 2.1.0~2011week13
 _ZN11QWebElement11toggleClassERK7QString@Base 2.1.0~2011week13
 _ZN11QWebElement12appendInsideERK7QString@Base 2.1.0~2011week13
 _ZN11QWebElement12appendInsideERKS_@Base 2.1.0~2011week13
 _ZN11QWebElement12setAttributeERK7QStringS2_@Base 2.1.0~2011week13
 _ZN11QWebElement12setPlainTextERK7QString@Base 2.1.0~2011week13
 _ZN11QWebElement13appendOutsideERK7QString@Base 2.1.0~2011week13
 _ZN11QWebElement13appendOutsideERKS_@Base 2.1.0~2011week13
 _ZN11QWebElement13prependInsideERK7QString@Base 2.1.0~2011week13
 _ZN11QWebElement13prependInsideERKS_@Base 2.1.0~2011week13
 _ZN11QWebElement14prependOutsideERK7QString@Base 2.1.0~2011week13
 _ZN11QWebElement14prependOutsideERKS_@Base 2.1.0~2011week13
 _ZN11QWebElement14setAttributeNSERK7QStringS2_S2_@Base 2.1.0~2011week13
 _ZN11QWebElement15removeAttributeERK7QString@Base 2.1.0~2011week13
 _ZN11QWebElement16enclosingElementEPN7WebCore4NodeE@Base 2.1.0~2011week13
 _ZN11QWebElement16setStylePropertyERK7QStringS2_@Base 2.1.0~2011week13
 _ZN11QWebElement16takeFromDocumentEv@Base 2.1.0~2011week13
 _ZN11QWebElement17removeAllChildrenEv@Base 2.1.0~2011week13
 _ZN11QWebElement17removeAttributeNSERK7QStringS2_@Base 2.1.0~2011week13
 _ZN11QWebElement18evaluateJavaScriptERK7QString@Base 2.1.0~2011week13
 _ZN11QWebElement18removeFromDocumentEv@Base 2.1.0~2011week13
 _ZN11QWebElement19encloseContentsWithERK7QString@Base 2.1.0~2011week13
 _ZN11QWebElement19encloseContentsWithERKS_@Base 2.1.0~2011week13
 _ZN11QWebElement6renderEP8QPainter@Base 2.1.0~2011week13
 _ZN11QWebElement6renderEP8QPainterRK5QRect@Base 2.2.0
 _ZN11QWebElement7replaceERK7QString@Base 2.1.0~2011week13
 _ZN11QWebElement7replaceERKS_@Base 2.1.0~2011week13
 _ZN11QWebElement8addClassERK7QString@Base 2.1.0~2011week13
 _ZN11QWebElement8setFocusEv@Base 2.1.0~2011week13
 _ZN11QWebElementC1EPN7WebCore4NodeE@Base 2.1.0~2011week13
 _ZN11QWebElementC1EPN7WebCore7ElementE@Base 2.1.0~2011week13
 _ZN11QWebElementC1ERKS_@Base 2.1.0~2011week13
 _ZN11QWebElementC1Ev@Base 2.1.0~2011week13
 _ZN11QWebElementC2EPN7WebCore4NodeE@Base 2.1.0~2011week13
 _ZN11QWebElementC2EPN7WebCore7ElementE@Base 2.1.0~2011week13
 _ZN11QWebElementC2ERKS_@Base 2.1.0~2011week13
 _ZN11QWebElementC2Ev@Base 2.1.0~2011week13
 _ZN11QWebElementD1Ev@Base 2.1.0~2011week13
 _ZN11QWebElementD2Ev@Base 2.1.0~2011week13
 _ZN11QWebElementaSERKS_@Base 2.1.0~2011week13
 _ZN11QWebHistory19setMaximumItemCountEi@Base 2.1.0~2011week13
 _ZN11QWebHistory4backEv@Base 2.1.0~2011week13
 _ZN11QWebHistory5clearEv@Base 2.1.0~2011week13
 _ZN11QWebHistory7forwardEv@Base 2.1.0~2011week13
 _ZN11QWebHistory8goToItemERK15QWebHistoryItem@Base 2.1.0~2011week13
 _ZN11QWebHistoryC1Ev@Base 2.1.0~2011week13
 _ZN11QWebHistoryC2Ev@Base 2.1.0~2011week13
 _ZN11QWebHistoryD1Ev@Base 2.1.0~2011week13
 _ZN11QWebHistoryD2Ev@Base 2.1.0~2011week13
 (optional=templinst|arch=alpha armel armhf ia64 mips mipsel sh4 sparc sparc64)_ZN12QWeakPointerI15QGraphicsObjectED1Ev@Base 2.2.0
 (optional=templinst|arch=alpha armel armhf ia64 mips mipsel sh4 sparc sparc64)_ZN12QWeakPointerI15QGraphicsObjectED2Ev@Base 2.2.0
 (optional=templinst|arch=!amd64 !hurd-i386 !i386 !kfreebsd-amd64 !kfreebsd-i386 !powerpc !ppc64 !s390 !s390x)_ZN12QWeakPointerI7QWidgetED1Ev@Base 2.2.0
 (optional=templinst|arch=!amd64 !hurd-i386 !i386 !kfreebsd-amd64 !kfreebsd-i386 !powerpc !ppc64 !s390 !s390x)_ZN12QWeakPointerI7QWidgetED2Ev@Base 2.2.0
 _ZN12QWebDatabase14removeDatabaseERKS_@Base 2.1.0~2011week13
 _ZN12QWebDatabase18removeAllDatabasesEv@Base 2.1.0~2011week13
 (optional=private)_ZN12QWebDatabaseC1EP19QWebDatabasePrivate@Base 2.1.0~2011week13
 _ZN12QWebDatabaseC1ERKS_@Base 2.1.0~2011week13
 (optional=private)_ZN12QWebDatabaseC2EP19QWebDatabasePrivate@Base 2.1.0~2011week13
 _ZN12QWebDatabaseC2ERKS_@Base 2.1.0~2011week13
 _ZN12QWebDatabaseD1Ev@Base 2.1.0~2011week13
 _ZN12QWebDatabaseD2Ev@Base 2.1.0~2011week13
 _ZN12QWebDatabaseaSERKS_@Base 2.1.0~2011week13
 _ZN12QWebSettings10iconForUrlERK4QUrl@Base 2.1.0~2011week13
 _ZN12QWebSettings10webGraphicENS_10WebGraphicE@Base 2.1.0~2011week13
 _ZN12QWebSettings11setFontSizeENS_8FontSizeEi@Base 2.1.0~2011week13
 _ZN12QWebSettings12setAttributeENS_12WebAttributeEb@Base 2.1.0~2011week13
 _ZN12QWebSettings13resetFontSizeENS_8FontSizeE@Base 2.1.0~2011week13
 _ZN12QWebSettings13setFontFamilyENS_10FontFamilyERK7QString@Base 2.1.0~2011week13
 _ZN12QWebSettings13setWebGraphicENS_10WebGraphicERK7QPixmap@Base 2.1.0~2011week13
 _ZN12QWebSettings14globalSettingsEv@Base 2.1.0~2011week13
 _ZN12QWebSettings14resetAttributeENS_12WebAttributeE@Base 2.1.0~2011week13
 _ZN12QWebSettings15resetFontFamilyENS_10FontFamilyE@Base 2.1.0~2011week13
 _ZN12QWebSettings16iconDatabasePathEv@Base 2.1.0~2011week13
 _ZN12QWebSettings17clearIconDatabaseEv@Base 2.1.0~2011week13
 _ZN12QWebSettings17clearMemoryCachesEv@Base 2.1.0~2011week13
 _ZN12QWebSettings18offlineStoragePathEv@Base 2.1.0~2011week13
 _ZN12QWebSettings19maximumPagesInCacheEv@Base 2.1.0~2011week13
 _ZN12QWebSettings19setIconDatabasePathERK7QString@Base 2.1.0~2011week13
 _ZN12QWebSettings19setLocalStoragePathERK7QString@Base 2.1.0~2011week13
 _ZN12QWebSettings20setUserStyleSheetUrlERK4QUrl@Base 2.1.0~2011week13
 _ZN12QWebSettings21setOfflineStoragePathERK7QString@Base 2.1.0~2011week13
 _ZN12QWebSettings22setDefaultTextEncodingERK7QString@Base 2.1.0~2011week13
 _ZN12QWebSettings22setMaximumPagesInCacheEi@Base 2.1.0~2011week13
 _ZN12QWebSettings23enablePersistentStorageERK7QString@Base 2.1.0~2011week13
 _ZN12QWebSettings24setObjectCacheCapacitiesEiii@Base 2.1.0~2011week13
 _ZN12QWebSettings26offlineStorageDefaultQuotaEv@Base 2.1.0~2011week13
 _ZN12QWebSettings29setOfflineStorageDefaultQuotaEx@Base 2.1.0~2011week13
 _ZN12QWebSettings30offlineWebApplicationCachePathEv@Base 2.1.0~2011week13
 _ZN12QWebSettings31offlineWebApplicationCacheQuotaEv@Base 2.1.0~2011week13
 _ZN12QWebSettings33setOfflineWebApplicationCachePathERK7QString@Base 2.1.0~2011week13
 _ZN12QWebSettings34setOfflineWebApplicationCacheQuotaEx@Base 2.1.0~2011week13
 _ZN12QWebSettingsC1EPN7WebCore8SettingsE@Base 2.1.0~2011week13
 _ZN12QWebSettingsC1Ev@Base 2.1.0~2011week13
 _ZN12QWebSettingsC2EPN7WebCore8SettingsE@Base 2.1.0~2011week13
 _ZN12QWebSettingsC2Ev@Base 2.1.0~2011week13
 _ZN12QWebSettingsD1Ev@Base 2.1.0~2011week13
 _ZN12QWebSettingsD2Ev@Base 2.1.0~2011week13
 (optional=templinst|arch=armel sh4)_ZN13QListIteratorIP9QWebFrameEC1ERK5QListIS1_E@Base 2.2.0
 (optional=templinst|arch=armel sh4)_ZN13QListIteratorIP9QWebFrameEC2ERK5QListIS1_E@Base 2.2.0
 _ZN13QWebInspector10closeEventEP11QCloseEvent@Base 2.1.0~2011week13
 _ZN13QWebInspector11qt_metacallEN11QMetaObject4CallEiPPv@Base 2.1.0~2011week13
 _ZN13QWebInspector11qt_metacastEPKc@Base 2.1.0~2011week13
 _ZN13QWebInspector11resizeEventEP12QResizeEvent@Base 2.1.0~2011week13
 _ZN13QWebInspector16staticMetaObjectE@Base 2.1.0~2011week13
 _ZN13QWebInspector5eventEP6QEvent@Base 2.1.0~2011week13
 _ZN13QWebInspector7setPageEP8QWebPage@Base 2.1.0~2011week13
 _ZN13QWebInspector9hideEventEP10QHideEvent@Base 2.1.0~2011week13
 _ZN13QWebInspector9showEventEP10QShowEvent@Base 2.1.0~2011week13
 _ZN13QWebInspectorC1EP7QWidget@Base 2.1.0~2011week13
 _ZN13QWebInspectorC2EP7QWidget@Base 2.1.0~2011week13
 _ZN13QWebInspectorD0Ev@Base 2.1.0~2011week13
 _ZN13QWebInspectorD1Ev@Base 2.1.0~2011week13
 _ZN13QWebInspectorD2Ev@Base 2.1.0~2011week13
 _ZN14QWebPluginInfo10setEnabledEb@Base 2.1.0~2011week13
 _ZN14QWebPluginInfoC1EPN7WebCore13PluginPackageE@Base 2.1.0~2011week13
 _ZN14QWebPluginInfoC1ERKS_@Base 2.1.0~2011week13
 _ZN14QWebPluginInfoC1Ev@Base 2.1.0~2011week13
 _ZN14QWebPluginInfoC2EPN7WebCore13PluginPackageE@Base 2.1.0~2011week13
 _ZN14QWebPluginInfoC2ERKS_@Base 2.1.0~2011week13
 _ZN14QWebPluginInfoC2Ev@Base 2.1.0~2011week13
 _ZN14QWebPluginInfoD1Ev@Base 2.1.0~2011week13
 _ZN14QWebPluginInfoD2Ev@Base 2.1.0~2011week13
 _ZN14QWebPluginInfoaSERKS_@Base 2.1.0~2011week13
 (arch=sh4 sparc)_ZN15QBasicAtomicInt3refEv@Base 2.2.0
 (arch=sh4 sparc)_ZN15QBasicAtomicInt5derefEv@Base 2.2.0
 _ZN15QGraphicsObjectD0Ev@Base 2.1.0~2011week13
 _ZN15QGraphicsObjectD1Ev@Base 2.1.0~2011week13
 _ZN15QGraphicsObjectD2Ev@Base 2.1.0~2011week13
 _ZN15QWebHistoryItem11setUserDataERK8QVariant@Base 2.1.0~2011week13
 (optional=private)_ZN15QWebHistoryItemC1EP22QWebHistoryItemPrivate@Base 2.1.0~2011week13
 _ZN15QWebHistoryItemC1ERKS_@Base 2.1.0~2011week13
 (optional=private)_ZN15QWebHistoryItemC2EP22QWebHistoryItemPrivate@Base 2.1.0~2011week13
 _ZN15QWebHistoryItemC2ERKS_@Base 2.1.0~2011week13
 _ZN15QWebHistoryItemD1Ev@Base 2.1.0~2011week13
 _ZN15QWebHistoryItemD2Ev@Base 2.1.0~2011week13
 _ZN15QWebHistoryItemaSERKS_@Base 2.1.0~2011week13
 (optional=templinst|arch=!alpha !amd64 !ia64 !kfreebsd-amd64 !ppc64 !s390x !sh4 !sparc !sparc64)_ZN15QWebPagePrivate21mouseDoubleClickEventI24QGraphicsSceneMouseEventEEvPT_@Base 2.2.0
 _ZN15QWebScriptWorldC1ERKS_@Base 2.2.0
 _ZN15QWebScriptWorldC1Ev@Base 2.2.0
 _ZN15QWebScriptWorldC2ERKS_@Base 2.2.0
 _ZN15QWebScriptWorldC2Ev@Base 2.2.0
 _ZN15QWebScriptWorldD1Ev@Base 2.2.0
 _ZN15QWebScriptWorldD2Ev@Base 2.2.0
 _ZN15QWebScriptWorldaSERKS_@Base 2.2.0
 _ZN16QGraphicsWebView10itemChangeEN13QGraphicsItem18GraphicsItemChangeERK8QVariant@Base 2.1.0~2011week13
 _ZN16QGraphicsWebView10sceneEventEP6QEvent@Base 2.1.0~2011week13
 _ZN16QGraphicsWebView10setContentERK10QByteArrayRK7QStringRK4QUrl@Base 2.1.0~2011week13
 _ZN16QGraphicsWebView10urlChangedERK4QUrl@Base 2.1.0~2011week13
 _ZN16QGraphicsWebView10wheelEventEP24QGraphicsSceneWheelEvent@Base 2.1.0~2011week13
 _ZN16QGraphicsWebView11iconChangedEv@Base 2.1.0~2011week13
 _ZN16QGraphicsWebView11linkClickedERK4QUrl@Base 2.1.0~2011week13
 _ZN16QGraphicsWebView11loadStartedEv@Base 2.1.0~2011week13
 _ZN16QGraphicsWebView11qt_metacallEN11QMetaObject4CallEiPPv@Base 2.1.0~2011week13
 _ZN16QGraphicsWebView11qt_metacastEPKc@Base 2.1.0~2011week13
 _ZN16QGraphicsWebView11setGeometryERK6QRectF@Base 2.1.0~2011week13
 _ZN16QGraphicsWebView12focusInEventEP11QFocusEvent@Base 2.1.0~2011week13
 _ZN16QGraphicsWebView12loadFinishedEb@Base 2.1.0~2011week13
 _ZN16QGraphicsWebView12loadProgressEi@Base 2.1.0~2011week13
 _ZN16QGraphicsWebView12titleChangedERK7QString@Base 2.1.0~2011week13
 _ZN16QGraphicsWebView13dragMoveEventEP27QGraphicsSceneDragDropEvent@Base 2.1.0~2011week13
 _ZN16QGraphicsWebView13focusOutEventEP11QFocusEvent@Base 2.1.0~2011week13
 _ZN16QGraphicsWebView13keyPressEventEP9QKeyEvent@Base 2.1.0~2011week13
 _ZN16QGraphicsWebView13setRenderHintEN8QPainter10RenderHintEb@Base 2.2.0
 (subst)_ZN16QGraphicsWebView13setZoomFactorE{qreal}@Base 2.1.0~2011week13
 _ZN16QGraphicsWebView14dragEnterEventEP27QGraphicsSceneDragDropEvent@Base 2.1.0~2011week13
 _ZN16QGraphicsWebView14dragLeaveEventEP27QGraphicsSceneDragDropEvent@Base 2.1.0~2011week13
 _ZN16QGraphicsWebView14hoverMoveEventEP24QGraphicsSceneHoverEvent@Base 2.1.0~2011week13
 _ZN16QGraphicsWebView14mouseMoveEventEP24QGraphicsSceneMouseEvent@Base 2.1.0~2011week13
 _ZN16QGraphicsWebView14setRenderHintsE6QFlagsIN8QPainter10RenderHintEE@Base 2.2.0
 _ZN16QGraphicsWebView14updateGeometryEv@Base 2.1.0~2011week13
 _ZN16QGraphicsWebView15hoverLeaveEventEP24QGraphicsSceneHoverEvent@Base 2.1.0~2011week13
 _ZN16QGraphicsWebView15keyReleaseEventEP9QKeyEvent@Base 2.1.0~2011week13
 _ZN16QGraphicsWebView15mousePressEventEP24QGraphicsSceneMouseEvent@Base 2.1.0~2011week13
 _ZN16QGraphicsWebView16contextMenuEventEP30QGraphicsSceneContextMenuEvent@Base 2.1.0~2011week13
 _ZN16QGraphicsWebView16inputMethodEventEP17QInputMethodEvent@Base 2.1.0~2011week13
 _ZN16QGraphicsWebView16staticMetaObjectE@Base 2.1.0~2011week13
 _ZN16QGraphicsWebView16statusBarMessageERK7QString@Base 2.1.0~2011week13
 _ZN16QGraphicsWebView17mouseReleaseEventEP24QGraphicsSceneMouseEvent@Base 2.1.0~2011week13
 _ZN16QGraphicsWebView17triggerPageActionEN8QWebPage9WebActionEb@Base 2.1.0~2011week13
 _ZN16QGraphicsWebView18focusNextPrevChildEb@Base 2.1.0~2011week13
 _ZN16QGraphicsWebView20setResizesToContentsEb@Base 2.1.0~2011week13
 _ZN16QGraphicsWebView21mouseDoubleClickEventEP24QGraphicsSceneMouseEvent@Base 2.1.0~2011week13
 _ZN16QGraphicsWebView26setTiledBackingStoreFrozenEb@Base 2.1.0~2011week13
 _ZN16QGraphicsWebView4backEv@Base 2.1.0~2011week13
 _ZN16QGraphicsWebView4loadERK15QNetworkRequestN21QNetworkAccessManager9OperationERK10QByteArray@Base 2.1.0~2011week13
 _ZN16QGraphicsWebView4loadERK4QUrl@Base 2.1.0~2011week13
 _ZN16QGraphicsWebView4stopEv@Base 2.1.0~2011week13
 _ZN16QGraphicsWebView5eventEP6QEvent@Base 2.1.0~2011week13
 _ZN16QGraphicsWebView5paintEP8QPainterPK24QStyleOptionGraphicsItemP7QWidget@Base 2.1.0~2011week13
 _ZN16QGraphicsWebView6reloadEv@Base 2.1.0~2011week13
 _ZN16QGraphicsWebView6setUrlERK4QUrl@Base 2.1.0~2011week13
 _ZN16QGraphicsWebView7forwardEv@Base 2.1.0~2011week13
 _ZN16QGraphicsWebView7setHtmlERK7QStringRK4QUrl@Base 2.1.0~2011week13
 _ZN16QGraphicsWebView7setPageEP8QWebPage@Base 2.1.0~2011week13
 _ZN16QGraphicsWebView8findTextERK7QString6QFlagsIN8QWebPage8FindFlagEE@Base 2.1.0~2011week13
 _ZN16QGraphicsWebView9dropEventEP27QGraphicsSceneDragDropEvent@Base 2.1.0~2011week13
 _ZN16QGraphicsWebViewC1EP13QGraphicsItem@Base 2.1.0~2011week13
 _ZN16QGraphicsWebViewC2EP13QGraphicsItem@Base 2.1.0~2011week13
 _ZN16QGraphicsWebViewD0Ev@Base 2.1.0~2011week13
 _ZN16QGraphicsWebViewD1Ev@Base 2.1.0~2011week13
 _ZN16QGraphicsWebViewD2Ev@Base 2.1.0~2011week13
 (optional=private)_ZN17QWebHitTestResultC1EP24QWebHitTestResultPrivate@Base 2.1.0~2011week13
 _ZN17QWebHitTestResultC1ERKS_@Base 2.1.0~2011week13
 _ZN17QWebHitTestResultC1Ev@Base 2.1.0~2011week13
 (optional=private)_ZN17QWebHitTestResultC2EP24QWebHitTestResultPrivate@Base 2.1.0~2011week13
 _ZN17QWebHitTestResultC2ERKS_@Base 2.1.0~2011week13
 _ZN17QWebHitTestResultC2Ev@Base 2.1.0~2011week13
 _ZN17QWebHitTestResultD1Ev@Base 2.1.0~2011week13
 _ZN17QWebHitTestResultD2Ev@Base 2.1.0~2011week13
 _ZN17QWebHitTestResultaSERKS_@Base 2.1.0~2011week13
 _ZN17QWebPluginFactory11qt_metacallEN11QMetaObject4CallEiPPv@Base 2.1.0~2011week13
 _ZN17QWebPluginFactory11qt_metacastEPKc@Base 2.1.0~2011week13
 _ZN17QWebPluginFactory14refreshPluginsEv@Base 2.1.0~2011week13
 _ZN17QWebPluginFactory16staticMetaObjectE@Base 2.1.0~2011week13
 _ZN17QWebPluginFactory8MimeTypeD1Ev@Base 2.1.0~2011week13
 _ZN17QWebPluginFactory8MimeTypeD2Ev@Base 2.1.0~2011week13
 _ZN17QWebPluginFactory9extensionENS_9ExtensionEPKNS_15ExtensionOptionEPNS_15ExtensionReturnE@Base 2.1.0~2011week13
 _ZN17QWebPluginFactoryC1EP7QObject@Base 2.1.0~2011week13
 _ZN17QWebPluginFactoryC2EP7QObject@Base 2.1.0~2011week13
 _ZN17QWebPluginFactoryD0Ev@Base 2.1.0~2011week13
 _ZN17QWebPluginFactoryD1Ev@Base 2.1.0~2011week13
 _ZN17QWebPluginFactoryD2Ev@Base 2.1.0~2011week13
 _ZN18QStyleOptionButtonD1Ev@Base 2.1.0~2011week13
 _ZN18QStyleOptionButtonD2Ev@Base 2.1.0~2011week13
 _ZN18QStyleOptionSliderD1Ev@Base 2.1.0~2011week13
 _ZN18QStyleOptionSliderD2Ev@Base 2.1.0~2011week13
 _ZN18QWebPluginDatabase11qt_metacallEN11QMetaObject4CallEiPPv@Base 2.1.0~2011week13
 _ZN18QWebPluginDatabase11qt_metacastEPKc@Base 2.1.0~2011week13
 _ZN18QWebPluginDatabase13addSearchPathERK7QString@Base 2.1.0~2011week13
 _ZN18QWebPluginDatabase14setSearchPathsERK11QStringList@Base 2.1.0~2011week13
 _ZN18QWebPluginDatabase16staticMetaObjectE@Base 2.1.0~2011week13
 _ZN18QWebPluginDatabase17pluginForMimeTypeERK7QString@Base 2.1.0~2011week13
 _ZN18QWebPluginDatabase18defaultSearchPathsEv@Base 2.1.0~2011week13
 _ZN18QWebPluginDatabase29setPreferredPluginForMimeTypeERK7QStringRK14QWebPluginInfo@Base 2.1.0~2011week13
 _ZN18QWebPluginDatabase7refreshEv@Base 2.1.0~2011week13
 _ZN18QWebPluginDatabaseC1EP7QObject@Base 2.1.0~2011week13
 _ZN18QWebPluginDatabaseC2EP7QObject@Base 2.1.0~2011week13
 _ZN18QWebPluginDatabaseD0Ev@Base 2.1.0~2011week13
 _ZN18QWebPluginDatabaseD1Ev@Base 2.1.0~2011week13
 _ZN18QWebPluginDatabaseD2Ev@Base 2.1.0~2011week13
 _ZN18QWebSecurityOrigin10allOriginsEv@Base 2.1.0~2011week13
 _ZN18QWebSecurityOrigin12localSchemesEv@Base 2.1.0~2011week13
 _ZN18QWebSecurityOrigin14addLocalSchemeERK7QString@Base 2.1.0~2011week13
 _ZN18QWebSecurityOrigin16setDatabaseQuotaEx@Base 2.1.0~2011week13
 _ZN18QWebSecurityOrigin17removeLocalSchemeERK7QString@Base 2.1.0~2011week13
 _ZN18QWebSecurityOrigin24setApplicationCacheQuotaEx@Base 2.2.0
 (optional=private)_ZN18QWebSecurityOriginC1EP25QWebSecurityOriginPrivate@Base 2.1.0~2011week13
 _ZN18QWebSecurityOriginC1ERKS_@Base 2.1.0~2011week13
 (optional=private)_ZN18QWebSecurityOriginC2EP25QWebSecurityOriginPrivate@Base 2.1.0~2011week13
 _ZN18QWebSecurityOriginC2ERKS_@Base 2.1.0~2011week13
 _ZN18QWebSecurityOriginD1Ev@Base 2.1.0~2011week13
 _ZN18QWebSecurityOriginD2Ev@Base 2.1.0~2011week13
 _ZN18QWebSecurityOriginaSERKS_@Base 2.1.0~2011week13
 (optional=private|arch=armel)_ZN19QWebSettingsPrivateC1EPN7WebCore8SettingsE@Base 2.2.0
 (optional=private|arch=armel)_ZN19QWebSettingsPrivateC2EPN7WebCore8SettingsE@Base 2.2.0
 _ZN20QStyleOptionComboBoxD1Ev@Base 2.1.0~2011week13
 _ZN20QStyleOptionComboBoxD2Ev@Base 2.1.0~2011week13
 _ZN20QWebHistoryInterface11qt_metacallEN11QMetaObject4CallEiPPv@Base 2.1.0~2011week13
 _ZN20QWebHistoryInterface11qt_metacastEPKc@Base 2.1.0~2011week13
 _ZN20QWebHistoryInterface16defaultInterfaceEv@Base 2.1.0~2011week13
 _ZN20QWebHistoryInterface16staticMetaObjectE@Base 2.1.0~2011week13
 _ZN20QWebHistoryInterface19setDefaultInterfaceEPS_@Base 2.1.0~2011week13
 _ZN20QWebHistoryInterfaceC1EP7QObject@Base 2.1.0~2011week13
 _ZN20QWebHistoryInterfaceC2EP7QObject@Base 2.1.0~2011week13
 _ZN20QWebHistoryInterfaceD0Ev@Base 2.1.0~2011week13
 _ZN20QWebHistoryInterfaceD1Ev@Base 2.1.0~2011week13
 _ZN20QWebHistoryInterfaceD2Ev@Base 2.1.0~2011week13
 _ZN21QWebElementCollection6appendERKS_@Base 2.1.0~2011week13
 _ZN21QWebElementCollectionC1ERK11QWebElementRK7QString@Base 2.1.0~2011week13
 _ZN21QWebElementCollectionC1ERKS_@Base 2.1.0~2011week13
 _ZN21QWebElementCollectionC1Ev@Base 2.1.0~2011week13
 _ZN21QWebElementCollectionC2ERK11QWebElementRK7QString@Base 2.1.0~2011week13
 _ZN21QWebElementCollectionC2ERKS_@Base 2.1.0~2011week13
 _ZN21QWebElementCollectionC2Ev@Base 2.1.0~2011week13
 _ZN21QWebElementCollectionD1Ev@Base 2.1.0~2011week13
 _ZN21QWebElementCollectionD2Ev@Base 2.1.0~2011week13
 _ZN21QWebElementCollectionaSERKS_@Base 2.1.0~2011week13
 _ZN23DumpRenderTreeSupportQt10findStringEP8QWebPageRK7QStringRK11QStringList@Base 2.2.0
 _ZN23DumpRenderTreeSupportQt10shadowRootERK11QWebElement@Base 2.2.0
 _ZN23DumpRenderTreeSupportQt11clearOpenerEP9QWebFrame@Base 2.2.0
 _ZN23DumpRenderTreeSupportQt11contextMenuEP8QWebPage@Base 2.2.0
 _ZN23DumpRenderTreeSupportQt11shouldCloseEP9QWebFrame@Base 2.1.0~2011week13
 _ZN23DumpRenderTreeSupportQt12isTargetItemERK15QWebHistoryItem@Base 2.1.0~2011week13
 _ZN23DumpRenderTreeSupportQt12pagePropertyEP9QWebFrameRK7QStringi@Base 2.1.0~2011week13
 _ZN23DumpRenderTreeSupportQt12setMediaTypeEP9QWebFrameRK7QString@Base 2.1.0~2011week13
 _ZN23DumpRenderTreeSupportQt13nodesFromRectERK11QWebElementiijjjjb@Base 2.2.0
 _ZN23DumpRenderTreeSupportQt13numberOfPagesEP9QWebFrameff@Base 2.1.0~2011week13
 _ZN23DumpRenderTreeSupportQt13selectedRangeEP8QWebPage@Base 2.1.0~2011week13
 _ZN23DumpRenderTreeSupportQt13setAutofilledERK11QWebElementb@Base 2.2.0
 _ZN23DumpRenderTreeSupportQt14clearFrameNameEP9QWebFrame@Base 2.1.0~2011week13
 _ZN23DumpRenderTreeSupportQt14pauseAnimationEP9QWebFrameRK7QStringdS4_@Base 2.1.0~2011week13
 _ZN23DumpRenderTreeSupportQt14viewportAsTextEP8QWebPageiRK5QSizeS4_@Base 2.2.0
 _ZN23DumpRenderTreeSupportQt15dumpFrameLoaderEb@Base 2.1.0~2011week13
 _ZN23DumpRenderTreeSupportQt16addURLToRedirectERK7QStringS2_@Base 2.2.0
 _ZN23DumpRenderTreeSupportQt16dumpNotificationEb@Base 2.1.0~2011week13
 _ZN23DumpRenderTreeSupportQt16ensureShadowRootERK11QWebElement@Base 2.2.0
 _ZN23DumpRenderTreeSupportQt16isCommandEnabledEP8QWebPageRK7QString@Base 2.1.0~2011week13
 _ZN23DumpRenderTreeSupportQt16isPageBoxVisibleEP9QWebFramei@Base 2.1.0~2011week13
 _ZN23DumpRenderTreeSupportQt16removeShadowRootERK11QWebElement@Base 2.2.0
 _ZN23DumpRenderTreeSupportQt16responseMimeTypeEP9QWebFrame@Base 2.2.0
 _ZN23DumpRenderTreeSupportQt16resumeAnimationsEP9QWebFrame@Base 2.2.0
 _ZN23DumpRenderTreeSupportQt16setAlternateHtmlEP9QWebFrameRK7QStringRK4QUrlS7_@Base 2.2.0
 _ZN23DumpRenderTreeSupportQt16webInspectorShowEP8QWebPage@Base 2.1.0~2011week13
 _ZN23DumpRenderTreeSupportQt16webPageGroupNameEP8QWebPage@Base 2.1.0~2011week13
 _ZN23DumpRenderTreeSupportQt17addUserStyleSheetEP8QWebPageRK7QString@Base 2.1.0~2011week13
 _ZN23DumpRenderTreeSupportQt17clearScriptWorldsEv@Base 2.2.0
 _ZN23DumpRenderTreeSupportQt17historyItemTargetERK15QWebHistoryItem@Base 2.1.0~2011week13
 _ZN23DumpRenderTreeSupportQt17pauseSVGAnimationEP9QWebFrameRK7QStringdS4_@Base 2.1.0~2011week13
 _ZN23DumpRenderTreeSupportQt17suspendAnimationsEP9QWebFrame@Base 2.2.0
 _ZN23DumpRenderTreeSupportQt17webInspectorCloseEP8QWebPage@Base 2.1.0~2011week13
 _ZN23DumpRenderTreeSupportQt17workerThreadCountEv@Base 2.1.0~2011week13
 _ZN23DumpRenderTreeSupportQt18hasDocumentElementEP9QWebFrame@Base 2.1.0~2011week13
 _ZN23DumpRenderTreeSupportQt18setEditingBehaviorEP8QWebPageRK7QString@Base 2.1.0~2011week13
 _ZN23DumpRenderTreeSupportQt19webPageSetGroupNameEP8QWebPageRK7QString@Base 2.1.0~2011week13
 _ZN23DumpRenderTreeSupportQt20dumpEditingCallbacksEb@Base 2.1.0~2011week13
 _ZN23DumpRenderTreeSupportQt20dumpHistoryCallbacksEb@Base 2.2.0
 _ZN23DumpRenderTreeSupportQt20getChildHistoryItemsERK15QWebHistoryItem@Base 2.1.0~2011week13
 _ZN23DumpRenderTreeSupportQt20resetGeolocationMockEP8QWebPage@Base 2.2.0
 _ZN23DumpRenderTreeSupportQt20resetInternalsObjectEP9QWebFrame@Base 2.2.0
 _ZN23DumpRenderTreeSupportQt21dumpSetAcceptsEditingEb@Base 2.1.0~2011week13
 _ZN23DumpRenderTreeSupportQt21injectInternalsObjectEP9QWebFrame@Base 2.2.0
 _ZN23DumpRenderTreeSupportQt21markerTextForListItemERK11QWebElement@Base 2.1.0~2011week13
 _ZN23DumpRenderTreeSupportQt22javaScriptObjectsCountEv@Base 2.1.0~2011week13
 _ZN23DumpRenderTreeSupportQt22resumeActiveDOMObjectsEP9QWebFrame@Base 2.1.0~2011week13
 _ZN23DumpRenderTreeSupportQt23garbageCollectorCollectEv@Base 2.1.0~2011week13
 _ZN23DumpRenderTreeSupportQt23setCaretBrowsingEnabledEP8QWebPageb@Base 2.1.0~2011week13
 _ZN23DumpRenderTreeSupportQt23setCustomPolicyDelegateEbb@Base 2.1.0~2011week13
 _ZN23DumpRenderTreeSupportQt23setMinimumTimerIntervalEP8QWebPaged@Base 2.2.0
 _ZN23DumpRenderTreeSupportQt23setMockGeolocationErrorEP8QWebPageiRK7QString@Base 2.2.0
 _ZN23DumpRenderTreeSupportQt23suspendActiveDOMObjectsEP9QWebFrame@Base 2.1.0~2011week13
 _ZN23DumpRenderTreeSupportQt24executeCoreCommandByNameEP8QWebPageRK7QStringS4_@Base 2.1.0~2011week13
 _ZN23DumpRenderTreeSupportQt24numberOfActiveAnimationsEP9QWebFrame@Base 2.1.0~2011week13
 _ZN23DumpRenderTreeSupportQt24pageNumberForElementByIdEP9QWebFrameRK7QStringff@Base 2.1.0~2011week13
 _ZN23DumpRenderTreeSupportQt24setMockDeviceOrientationEbdbdbd@Base 2.2.0
 _ZN23DumpRenderTreeSupportQt25clearAllApplicationCachesEv@Base 2.2.0
 _ZN23DumpRenderTreeSupportQt25dumpResourceLoadCallbacksEb@Base 2.1.0~2011week13
 _ZN23DumpRenderTreeSupportQt25dumpVisitedLinksCallbacksEb@Base 2.2.0
 _ZN23DumpRenderTreeSupportQt25pauseTransitionOfPropertyEP9QWebFrameRK7QStringdS4_@Base 2.1.0~2011week13
 _ZN23DumpRenderTreeSupportQt25setFrameFlatteningEnabledEP8QWebPageb@Base 2.1.0~2011week13
 _ZN23DumpRenderTreeSupportQt25webInspectorExecuteScriptEP8QWebPagelRK7QString@Base 2.1.0~2011week13
 _ZN23DumpRenderTreeSupportQt25whiteListAccessFromOriginERK7QStringS2_S2_b@Base 2.1.0~2011week13
 _ZN23DumpRenderTreeSupportQt26counterValueForElementByIdEP9QWebFrameRK7QString@Base 2.1.0~2011week13
 _ZN23DumpRenderTreeSupportQt26firstRectForCharacterRangeEP8QWebPageii@Base 2.1.0~2011week13
 _ZN23DumpRenderTreeSupportQt26mediaContentUrlByElementIdEP9QWebFrameRK7QString@Base 2.2.0
 _ZN23DumpRenderTreeSupportQt26overwritePluginDirectoriesEv@Base 2.1.0~2011week13
 _ZN23DumpRenderTreeSupportQt26pageSizeAndMarginsInPixelsEP9QWebFrameiiiiiii@Base 2.1.0~2011week13
 _ZN23DumpRenderTreeSupportQt26setMockGeolocationPositionEP8QWebPageddd@Base 2.2.0
 _ZN23DumpRenderTreeSupportQt27defaultMinimumTimerIntervalEv@Base 2.2.0
 _ZN23DumpRenderTreeSupportQt27removeMockDeviceOrientationEv@Base 2.2.0
 _ZN23DumpRenderTreeSupportQt27resetOriginAccessWhiteListsEv@Base 2.1.0~2011week13
 _ZN23DumpRenderTreeSupportQt27setSmartInsertDeleteEnabledEP8QWebPageb@Base 2.1.0~2011week13
 _ZN23DumpRenderTreeSupportQt27setTimelineProfilingEnabledEP8QWebPageb@Base 2.1.0~2011week13
 _ZN23DumpRenderTreeSupportQt28dumpProgressFinishedCallbackEb@Base 2.2.0
 _ZN23DumpRenderTreeSupportQt28dumpUserGestureInFrameLoaderEb@Base 2.2.0
 _ZN23DumpRenderTreeSupportQt28setDeferMainResourceDataLoadEb@Base 2.1.0~2011week13
 _ZN23DumpRenderTreeSupportQt28setDumpRenderTreeModeEnabledEb@Base 2.1.0~2011week13
 _ZN23DumpRenderTreeSupportQt28setMockGeolocationPermissionEP8QWebPageb@Base 2.2.0
 _ZN23DumpRenderTreeSupportQt29dumpResourceLoadCallbacksPathERK7QString@Base 2.1.0~2011week13
 _ZN23DumpRenderTreeSupportQt29dumpResourceResponseMIMETypesEb@Base 2.1.0~2011week13
 _ZN23DumpRenderTreeSupportQt29evaluateScriptInIsolatedWorldEP9QWebFrameiRK7QString@Base 2.1.0~2011week13
 _ZN23DumpRenderTreeSupportQt29setJavaScriptProfilingEnabledEP9QWebFrameb@Base 2.1.0~2011week13
 _ZN23DumpRenderTreeSupportQt29setWillSendRequestReturnsNullEb@Base 2.1.0~2011week13
 _ZN23DumpRenderTreeSupportQt30setWillSendRequestClearHeadersERK11QStringList@Base 2.1.0~2011week13
 _ZN23DumpRenderTreeSupportQt31removeWhiteListAccessFromOriginERK7QStringS2_S2_b@Base 2.1.0~2011week13
 _ZN23DumpRenderTreeSupportQt32simulateDesktopNotificationClickERK7QString@Base 2.1.0~2011week13
 _ZN23DumpRenderTreeSupportQt33activeMockDeviceOrientationClientEb@Base 2.2.0
 _ZN23DumpRenderTreeSupportQt33computedStyleIncludingVisitedInfoERK11QWebElement@Base 2.1.0~2011week13
 _ZN23DumpRenderTreeSupportQt34setSelectTrailingWhitespaceEnabledEP8QWebPageb@Base 2.1.0~2011week13
 _ZN23DumpRenderTreeSupportQt39elementDoesAutoCompleteForElementWithIdEP9QWebFrameRK7QString@Base 2.1.0~2011week13
 _ZN23DumpRenderTreeSupportQt39setWillSendRequestReturnsNullOnRedirectEb@Base 2.1.0~2011week13
 _ZN23DumpRenderTreeSupportQt40garbageCollectorCollectOnAlternateThreadEb@Base 2.1.0~2011week13
 _ZN23DumpRenderTreeSupportQt40setDomainRelaxationForbiddenForURLSchemeEbRK7QString@Base 2.1.0~2011week13
 _ZN23DumpRenderTreeSupportQt44numberOfPendingGeolocationPermissionRequestsEP8QWebPage@Base 2.2.0
 _ZN23DumpRenderTreeSupportQt9plainTextERK8QVariant@Base 2.2.0
 _ZN23DumpRenderTreeSupportQtC1Ev@Base 2.1.0~2011week13
 _ZN23DumpRenderTreeSupportQtC2Ev@Base 2.1.0~2011week13
 _ZN23DumpRenderTreeSupportQtD1Ev@Base 2.1.0~2011week13
 _ZN23DumpRenderTreeSupportQtD2Ev@Base 2.1.0~2011week13
 _ZN23QStyleOptionProgressBarD1Ev@Base 2.2.1
 _ZN23QStyleOptionProgressBarD2Ev@Base 2.2.1
 (optional=private|arch=alpha armel armhf mips mipsel)_ZN24QWebHitTestResultPrivateC1Ev@Base 2.2.0
 (optional=private|arch=alpha armel armhf mips mipsel)_ZN24QWebHitTestResultPrivateC2Ev@Base 2.2.0
 (optional=templinst|arch=alpha armel armhf mips mipsel powerpc ppc64 s390 s390x)_ZN28QExplicitlySharedDataPointerI28QWebElementCollectionPrivateE13detach_helperEv@Base 2.2.0
 (optional=templinst|arch=armel armhf)_ZN3JSC18getStaticValueSlotIN7WebCore6JSNodeENS1_12JSDOMWrapperEEEbPNS_9ExecStateEPKNS_9HashTableEPT_RKNS_10IdentifierERNS_12PropertySlotE@Base 2.2.0
 (optional=templinst|arch=armel armhf)_ZN3JSC21getStaticFunctionSlotINS_8JSObjectEEEbPNS_9ExecStateEPKNS_9HashTableEPS1_RKNS_10IdentifierERNS_12PropertySlotE@Base 2.2.0
 (optional=templinst|arch=armel armhf)_ZN3JSC24getStaticValueDescriptorIN7WebCore6JSNodeENS1_12JSDOMWrapperEEEbPNS_9ExecStateEPKNS_9HashTableEPT_RKNS_10IdentifierERNS_18PropertyDescriptorE@Base 2.2.0
 (optional=templinst|arch=sh4)_ZN3JSC24getStaticValueDescriptorIN7WebCore9JSElementENS1_6JSNodeEEEbPNS_9ExecStateEPKNS_9HashTableEPT_RKNS_10IdentifierERNS_18PropertyDescriptorE@Base 2.2.0
 (arch=armel armhf hurd-i386 i386 kfreebsd-i386 mips mipsel powerpc s390)_ZN3JSC8JSObject9putDirectERNS_12JSGlobalDataERKNS_10IdentifierENS_7JSValueEj@Base 2.2.0
 (arch=sh4 sparc)_ZN3JSC9ExecState8argumentEi@Base 2.2.0
 (optional=templinst|arch=armel armhf hurd-i386 i386 kfreebsd-i386 mips mipsel powerpc s390 sh4 sparc)_ZN3WTF12StringHasher11computeHashItEEjPKT_j@Base 2.2.0
 (optional=templinst|arch=armel armhf hurd-i386 i386 kfreebsd-i386 powerpc s390)_ZN3WTF14derefIfNotNullIN7WebCore11TextMetricsEEEvPT_@Base 2.2.0
 (optional=templinst|arch=armel armhf hurd-i386 i386 kfreebsd-i386 mips mipsel powerpc s390 sh4 sparc)_ZN3WTF14derefIfNotNullIN7WebCore16SVGPathSegArcAbsEEEvPT_@Base 2.2.0
 (optional=templinst|arch=armel armhf hurd-i386 i386 kfreebsd-i386 mips mipsel powerpc s390 sh4 sparc)_ZN3WTF14derefIfNotNullIN7WebCore16SVGPathSegArcRelEEEvPT_@Base 2.2.0
 (optional=templinst|arch=armel armhf hurd-i386 i386 kfreebsd-i386 mips mipsel powerpc s390 sh4 sparc)_ZN3WTF14derefIfNotNullIN7WebCore19SVGPathSegClosePathEEEvPT_@Base 2.2.0
 (optional=templinst|arch=armel armhf hurd-i386 i386 kfreebsd-i386 mips mipsel powerpc s390 sh4 sparc)_ZN3WTF14derefIfNotNullIN7WebCore19SVGPathSegLinetoAbsEEEvPT_@Base 2.2.0
 (optional=templinst|arch=alpha armel armhf hurd-i386 i386 kfreebsd-i386 mips mipsel powerpc ppc64 s390 s390x sh4 sparc)_ZN3WTF14derefIfNotNullIN7WebCore19SVGPathSegLinetoRelEEEvPT_@Base 2.2.0
 (optional=templinst|arch=armel armhf hurd-i386 i386 kfreebsd-i386 mips mipsel powerpc s390 sh4 sparc)_ZN3WTF14derefIfNotNullIN7WebCore19SVGPathSegMovetoAbsEEEvPT_@Base 2.2.0
 (optional=templinst|arch=!alpha !amd64 !kfreebsd-amd64 !ppc64 !s390x !sparc64)_ZN3WTF14derefIfNotNullIN7WebCore22CanvasRenderingContextEEEvPT_@Base 2.2.0
 (optional=templinst|arch=ppc64 sparc64)_ZN3WTF14derefIfNotNullIN7WebCore22QtPluginGraphicsWidgetEEEvPT_@Base 2.2.0
 (optional=templinst|arch=armel armhf hurd-i386 i386 kfreebsd-i386 mips mipsel powerpc s390 sh4 sparc)_ZN3WTF14derefIfNotNullIN7WebCore25SVGPathSegCurvetoCubicAbsEEEvPT_@Base 2.2.0
 (optional=templinst|arch=armel armhf hurd-i386 i386 kfreebsd-i386 mips mipsel powerpc s390 sh4 sparc)_ZN3WTF14derefIfNotNullIN7WebCore25SVGPathSegCurvetoCubicRelEEEvPT_@Base 2.2.0
 (optional=templinst|arch=armel armhf hurd-i386 i386 kfreebsd-i386 mips mipsel powerpc s390 sh4 sparc sparc64)_ZN3WTF14derefIfNotNullIN7WebCore27SVGPathSegLinetoVerticalAbsEEEvPT_@Base 2.2.0
 (optional=templinst|arch=armel armhf hurd-i386 i386 kfreebsd-i386 mips mipsel powerpc s390 sh4 sparc)_ZN3WTF14derefIfNotNullIN7WebCore27SVGPathSegLinetoVerticalRelEEEvPT_@Base 2.2.0
 (optional=templinst|arch=armel armhf hurd-i386 i386 kfreebsd-i386 mips mipsel powerpc s390 sh4 sparc)_ZN3WTF14derefIfNotNullIN7WebCore29SVGPathSegCurvetoQuadraticAbsEEEvPT_@Base 2.2.0
 (optional=templinst|arch=armel armhf hurd-i386 i386 kfreebsd-i386 mips mipsel powerpc s390 sh4 sparc)_ZN3WTF14derefIfNotNullIN7WebCore29SVGPathSegCurvetoQuadraticRelEEEvPT_@Base 2.2.0
 (optional=templinst|arch=armel armhf hurd-i386 i386 kfreebsd-i386 mips mipsel powerpc s390 sh4 sparc)_ZN3WTF14derefIfNotNullIN7WebCore29SVGPathSegLinetoHorizontalAbsEEEvPT_@Base 2.2.0
 (optional=templinst|arch=armel armhf hurd-i386 i386 ia64 kfreebsd-i386 mips mipsel powerpc s390 sh4 sparc)_ZN3WTF14derefIfNotNullIN7WebCore29SVGPathSegLinetoHorizontalRelEEEvPT_@Base 2.2.0
 (optional=templinst|arch=armel armhf hurd-i386 i386 kfreebsd-i386 mips mipsel powerpc s390 sh4 sparc)_ZN3WTF14derefIfNotNullIN7WebCore31SVGPathSegCurvetoCubicSmoothAbsEEEvPT_@Base 2.2.0
 (optional=templinst|arch=armel armhf hurd-i386 i386 kfreebsd-i386 mips mipsel powerpc s390 sh4 sparc)_ZN3WTF14derefIfNotNullIN7WebCore31SVGPathSegCurvetoCubicSmoothRelEEEvPT_@Base 2.2.0
 (optional=templinst|arch=armel armhf hurd-i386 i386 kfreebsd-i386 mips mipsel powerpc s390 sh4 sparc)_ZN3WTF14derefIfNotNullIN7WebCore35SVGPathSegCurvetoQuadraticSmoothAbsEEEvPT_@Base 2.2.0
 (optional=templinst|arch=armel armhf hurd-i386 i386 kfreebsd-i386 mips mipsel powerpc s390 sh4 sparc)_ZN3WTF14derefIfNotNullIN7WebCore35SVGPathSegCurvetoQuadraticSmoothRelEEEvPT_@Base 2.2.0
 (optional=templinst|arch=armel armhf|subst)_ZN3WTF6VectorIN7WebCore13MimeClassInfoEL{size_t}0EEC1ERKS3_@Base 2.2.0
 (optional=templinst|arch=armel armhf|subst)_ZN3WTF6VectorIN7WebCore13MimeClassInfoEL{size_t}0EEC2ERKS3_@Base 2.2.0
 (optional=templinst|subst|arch=!amd64 !armel !hurd-i386 !i386 !ia64 !kfreebsd-amd64 !kfreebsd-i386 !mips !mipsel !ppc64 !s390 !s390x !sparc64)_ZN3WTF6VectorINS_6OwnPtrIN7WebCore13MediaQueryExpEEEL{size_t}0EE14expandCapacityE{size_t}@Base 2.2.0
 (optional=templinst|arch=armel armhf)_ZN3WTF6VectorIPN7WebCore5XPath9PredicateELj0EED1Ev@Base 2.2.0
 (optional=templinst|arch=armel armhf)_ZN3WTF6VectorIPN7WebCore5XPath9PredicateELj0EED2Ev@Base 2.2.0
 (optional=templinst|arch=ia64)_ZN3WTF9HashTableINS_6StringESt4pairIS1_MN7WebCore26InspectorBackendDispatcherEFvlPNS3_15InspectorObjectEEENS_18PairFirstExtractorIS9_EENS_10StringHashENS_14PairHashTraitsINS_10HashTraitsIS1_EENSE_IS8_EEEESF_E3addIS1_S8_NS_17HashMapTranslatorIS9_SH_SC_EEEES2_INS_17HashTableIteratorIS1_S9_SB_SC_SH_SF_EEbERKT_RKT0_@Base 2.2.0
 (optional=templinst|arch=ia64 sparc sparc64)_ZN3WTF9HashTableIPKN3JSC9ClassInfoESt4pairIS4_NS1_12WriteBarrierINS1_8JSObjectEEEENS_18PairFirstExtractorIS9_EENS_7PtrHashIS4_EENS_14PairHashTraitsINS_10HashTraitsIS4_EENSF_IS8_EEEESG_E3addIS4_S8_NS_17HashMapTranslatorIS9_SI_SD_EEEES5_INS_17HashTableIteratorIS4_S9_SB_SD_SI_SG_EEbERKT_RKT0_@Base 2.2.0
 (optional=templinst|arch=armel armhf hurd-i386 i386 kfreebsd-i386 mips mipsel powerpc s390 sh4 sparc)_ZN3WTF9HashTableIPKN3JSC9ClassInfoESt4pairIS4_NS1_12WriteBarrierINS1_8JSObjectEEEENS_18PairFirstExtractorIS9_EENS_7PtrHashIS4_EENS_14PairHashTraitsINS_10HashTraitsIS4_EENSF_IS8_EEEESG_E6lookupIS4_NS_22IdentityHashTranslatorIS4_S9_SD_EEEEPS9_RKT_@Base 2.2.0
 (arch=!alpha !amd64 !ia64 !kfreebsd-amd64 !ppc64 !s390x !sparc64)_ZN3WTF9HashTableIPNS_16AtomicStringImplESt4pairIS2_PFPN7WebCore12JSDOMWrapperEPN3JSC9ExecStateEPNS4_17JSDOMGlobalObjectENS_10PassRefPtrINS4_10SVGElementEEEEENS_18PairFirstExtractorISH_EENS_7PtrHashIS2_EENS_14PairHashTraitsINS_10HashTraitsIS2_EENSN_ISG_EEEESO_E6lookupIS2_NS_22IdentityHashTranslatorIS2_SH_SL_EEEEPSH_RKT_@Base 2.2.0
 (arch=!alpha !amd64 !ia64 !kfreebsd-amd64 !ppc64 !s390x !sparc64)_ZN3WTF9HashTableIPNS_16AtomicStringImplESt4pairIS2_PFPN7WebCore12JSDOMWrapperEPN3JSC9ExecStateEPNS4_17JSDOMGlobalObjectENS_10PassRefPtrINS4_11HTMLElementEEEEENS_18PairFirstExtractorISH_EENS_7PtrHashIS2_EENS_14PairHashTraitsINS_10HashTraitsIS2_EENSN_ISG_EEEESO_E6lookupIS2_NS_22IdentityHashTranslatorIS2_SH_SL_EEEEPSH_RKT_@Base 2.2.0
 (optional=templinst|arch=alpha armel armhf)_ZN3WTF9HashTableIPvSt4pairIS1_N3JSC4WeakIN7WebCore12JSDOMWrapperEEEENS_18PairFirstExtractorIS8_EENS_7PtrHashIS1_EENS_14PairHashTraitsINS_10HashTraitsIS1_EENSE_IS7_EEEESF_E3addIS1_S7_NS_17HashMapTranslatorIS8_SH_SC_EEEES2_INS_17HashTableIteratorIS1_S8_SA_SC_SH_SF_EEbERKT_RKT0_@Base 2.2.0
 (optional=templinst|arch=!alpha !amd64 !armel !armhf !ia64 !kfreebsd-amd64 !mips !mipsel !ppc64 !s390x !sh4 !sparc !sparc64)_ZN3WTF9HashTableIiSt4pairIiPKcENS_18PairFirstExtractorIS4_EENS_7IntHashIjEENS_14PairHashTraitsINS_10HashTraitsIiEENSA_IS3_EEEESB_E4findIiNS_22IdentityHashTranslatorIiS4_S8_EEEENS_17HashTableIteratorIiS4_S6_S8_SD_SB_EERKT_@Base 2.2.0
 (optional=templinst|arch=armel mips mipsel sh4 sparc)_ZN4QMapI7QStringS0_EC1ERKS1_@Base 2.2.0
 (optional=templinst|arch=armel mips mipsel sh4 sparc)_ZN4QMapI7QStringS0_EC2ERKS1_@Base 2.2.0
 (optional=templinst|arch=armel sh4 sparc sparc64)_ZN4QMapIm7QStringE11node_createEP8QMapDataPPNS2_4NodeERKmRKS0_@Base 2.2.0
 (optional=templinst|arch=!amd64 !hurd-i386 !i386 !ia64 !kfreebsd-amd64 !kfreebsd-i386 !ppc64)_ZN5QHashIibE6insertERKiRKb@Base 2.2.0
 (optional=templinst|arch=sh4)_ZN5QListI7QStringE9node_copyEPNS1_4NodeES3_S3_@Base 2.2.0
 (optional=templinst|arch=armel armhf)_ZN5QListIN17QWebPluginFactory6PluginEE4freeEPN9QListData4DataE@Base 2.2.0
 (optional=templinst|arch=alpha armel armhf mips mipsel s390 s390x sh4 sparc sparc64)_ZN5QListIN7WebCore15ContextMenuItemEE9node_copyEPNS2_4NodeES4_S4_@Base 2.2.0
 (optional=templinst|arch=alpha armel armhf mips mipsel s390 s390x)_ZN5QListIP19QWebSettingsPrivateE13detach_helperEi@Base 2.2.0
 (optional=templinst|arch=alpha armel armhf mips mipsel rmel s390 s390x)_ZN5QListIP9QWebFrameE13detach_helperEi@Base 2.2.0
 (arch=alpha armel mips mipsel powerpc ppc64 s390 s390x sh4 sparc sparc64)_ZN6QDebuglsEPKc@Base 2.2.0
 (arch=sparc sparc64)_ZN7QStringC1Ev@Base 2.2.0
 (arch=sparc sparc64)_ZN7QStringC2Ev@Base 2.2.0
 (arch=alpha powerpc ppc64 s390 s390x sparc sparc64)_ZN7QStringpLE5QChar@Base 2.2.0
 (optional=private|arch=armel armhf)_ZN7WebCore10JSDocument18getOwnPropertySlotEPN3JSC9ExecStateERKNS1_10IdentifierERNS1_12PropertySlotE@Base 2.2.0
 (optional=private|arch=armel armhf)_ZN7WebCore10JSDocument24getOwnPropertyDescriptorEPN3JSC9ExecStateERKNS1_10IdentifierERNS1_18PropertyDescriptorE@Base 2.2.0
 (optional=private|arch=armel armhf)_ZN7WebCore10JSDocumentD0Ev@Base 2.2.0
 (optional=private|arch=armel armhf)_ZN7WebCore10JSDocumentD1Ev@Base 2.2.0
 (optional=private|arch=armel armhf)_ZN7WebCore10JSDocumentD2Ev@Base 2.2.0
 (optional=private|arch=s390x)_ZN7WebCore12JSStyleMedia15createStructureERN3JSC12JSGlobalDataENS1_7JSValueE@Base 2.2.0
 (optional=private|arch=s390x)_ZN7WebCore12JSTimeRanges15createStructureERN3JSC12JSGlobalDataENS1_7JSValueE@Base 2.2.0
 (optional=private|arch=s390x)_ZN7WebCore12JSTreeWalker15createStructureERN3JSC12JSGlobalDataENS1_7JSValueE@Base 2.2.0
 (optional=private|arch=s390x)_ZN7WebCore12Notification10setOnclickEN3WTF10PassRefPtrINS_13EventListenerEEE@Base 2.2.0
 (optional=private|arch=s390x)_ZN7WebCore12Notification10setOncloseEN3WTF10PassRefPtrINS_13EventListenerEEE@Base 2.2.0
 (optional=private|arch=s390x)_ZN7WebCore12Notification10setOnerrorEN3WTF10PassRefPtrINS_13EventListenerEEE@Base 2.2.0
 (optional=private|arch=s390x)_ZN7WebCore12Notification12setOndisplayEN3WTF10PassRefPtrINS_13EventListenerEEE@Base 2.2.0
 (optional=private|arch=s390x)_ZN7WebCore12Notification12setReplaceIdERKN3WTF6StringE@Base 2.2.0
 (optional=private|arch=s390x)_ZN7WebCore12Notification15detachPresenterEv@Base 2.2.0
 (optional=private|arch=s390x)_ZN7WebCore12Notification15releaseIconDataEv@Base 2.2.0
 (optional=private|arch=s390x)_ZN7WebCore12Notification3urlEv@Base 2.2.0
 (optional=private|arch=s390x)_ZN7WebCore12Notification6isHTMLEv@Base 2.2.0
 (optional=private|arch=s390x)_ZN7WebCore12Notification6setDirERKN3WTF6StringE@Base 2.2.0
 (optional=private|arch=s390x)_ZN7WebCore12Notification7onclickEv@Base 2.2.0
 (optional=private|arch=s390x)_ZN7WebCore12Notification7oncloseEv@Base 2.2.0
 (optional=private|arch=s390x)_ZN7WebCore12Notification7onerrorEv@Base 2.2.0
 (optional=private|arch=s390x)_ZN7WebCore12Notification8contentsEv@Base 2.2.0
 (optional=private|arch=s390x)_ZN7WebCore12Notification8iconDataEv@Base 2.2.0
 (optional=private|arch=s390x)_ZN7WebCore12Notification9ondisplayEv@Base 2.2.0
 (optional=private|arch=armel armhf)_ZN7WebCore12SQLResultSetD1Ev@Base 2.2.0
 (optional=private|arch=armel armhf)_ZN7WebCore12SQLResultSetD2Ev@Base 2.2.0
 (optional=private|arch=s390x)_ZN7WebCore12SVGTransform9svgMatrixEv@Base 2.2.0
 (optional=private|arch=s390x)_ZN7WebCore12SVGUnitTypesD1Ev@Base 2.2.0
 (optional=private|arch=s390x)_ZN7WebCore12SVGUnitTypesD2Ev@Base 2.2.0
 (optional=templinst|arch=mips mipsel s390x sh4 sparc)_ZN7WebCore12cacheWrapperIN3JSC11ProfileNodeEEEvPNS_15DOMWrapperWorldEPT_PNS_12JSDOMWrapperE@Base 2.2.0
 (optional=templinst|arch=mips mipsel s390x sh4 sparc)_ZN7WebCore12cacheWrapperINS_10ClientRectEEEvPNS_15DOMWrapperWorldEPT_PNS_12JSDOMWrapperE@Base 2.2.0
 (optional=templinst|arch=alpha armel armhf mips mipsel s390x sh4 sparc)_ZN7WebCore12cacheWrapperINS_10FileReaderEEEvPNS_15DOMWrapperWorldEPT_PNS_12JSDOMWrapperE@Base 2.2.0
 (optional=templinst|arch=mips mipsel s390x sh4 sparc)_ZN7WebCore12cacheWrapperINS_10MediaErrorEEEvPNS_15DOMWrapperWorldEPT_PNS_12JSDOMWrapperE@Base 2.2.0
 (optional=templinst|arch=mips mipsel s390x sh4 sparc)_ZN7WebCore12cacheWrapperINS_10MemoryInfoEEEvPNS_15DOMWrapperWorldEPT_PNS_12JSDOMWrapperE@Base 2.2.0
 (optional=templinst|arch=mips mipsel s390x sh4 sparc)_ZN7WebCore12cacheWrapperINS_10NodeFilterEEEvPNS_15DOMWrapperWorldEPT_PNS_12JSDOMWrapperE@Base 2.2.0
 (optional=templinst|arch=s390x)_ZN7WebCore12cacheWrapperINS_10SVGElementEEEvPNS_15DOMWrapperWorldEPT_PNS_12JSDOMWrapperE@Base 2.2.0
 (optional=templinst|arch=alpha armel armhf mips mipsel s390x sh4 sparc)_ZN7WebCore12cacheWrapperINS_10StyleMediaEEEvPNS_15DOMWrapperWorldEPT_PNS_12JSDOMWrapperE@Base 2.2.0
 (optional=templinst|arch=mips mipsel s390x sh4 sparc)_ZN7WebCore12cacheWrapperINS_10TimeRangesEEEvPNS_15DOMWrapperWorldEPT_PNS_12JSDOMWrapperE@Base 2.2.0
 (optional=templinst|arch=mips mipsel s390x sh4 sparc)_ZN7WebCore12cacheWrapperINS_10TreeWalkerEEEvPNS_15DOMWrapperWorldEPT_PNS_12JSDOMWrapperE@Base 2.2.0
 (optional=templinst|arch=alpha armel armhf mips mipsel s390x sh4 sparc)_ZN7WebCore12cacheWrapperINS_11ArrayBufferEEEvPNS_15DOMWrapperWorldEPT_PNS_12JSDOMWrapperE@Base 2.2.0
 (optional=templinst|arch=alpha armel armhf mips mipsel s390x sh4 sparc)_ZN7WebCore12cacheWrapperINS_11CSSRuleListEEEvPNS_15DOMWrapperWorldEPT_PNS_12JSDOMWrapperE@Base 2.2.0
 (optional=templinst|arch=mips mipsel s390x sh4 sparc)_ZN7WebCore12cacheWrapperINS_11CoordinatesEEEvPNS_15DOMWrapperWorldEPT_PNS_12JSDOMWrapperE@Base 2.2.0
 (optional=templinst|arch=mips mipsel s390x sh4 sparc)_ZN7WebCore12cacheWrapperINS_11DOMFormDataEEEvPNS_15DOMWrapperWorldEPT_PNS_12JSDOMWrapperE@Base 2.2.0
 (optional=templinst|arch=mips mipsel s390x sh4 sparc)_ZN7WebCore12cacheWrapperINS_11DOMMimeTypeEEEvPNS_15DOMWrapperWorldEPT_PNS_12JSDOMWrapperE@Base 2.2.0
 (optional=templinst|arch=alpha armel armhf mips mipsel s390x sh4 sparc)_ZN7WebCore12cacheWrapperINS_11EventSourceEEEvPNS_15DOMWrapperWorldEPT_PNS_12JSDOMWrapperE@Base 2.2.0
 (optional=templinst|arch=s390x)_ZN7WebCore12cacheWrapperINS_11HTMLElementEEEvPNS_15DOMWrapperWorldEPT_PNS_12JSDOMWrapperE@Base 2.2.0
 (optional=templinst|arch=alpha armel armhf mips mipsel s390x sh4 sparc)_ZN7WebCore12cacheWrapperINS_11MessagePortEEEvPNS_15DOMWrapperWorldEPT_PNS_12JSDOMWrapperE@Base 2.2.0
 (optional=templinst|arch=s390x)_ZN7WebCore12cacheWrapperINS_11SVGAElementEEEvPNS_15DOMWrapperWorldEPT_PNS_12JSDOMWrapperE@Base 2.2.0
 (optional=templinst|arch=s390x)_ZN7WebCore12cacheWrapperINS_11SVGGElementEEEvPNS_15DOMWrapperWorldEPT_PNS_12JSDOMWrapperE@Base 2.2.0
 (optional=templinst|arch=mips mipsel s390x sh4 sparc)_ZN7WebCore12cacheWrapperINS_11TextMetricsEEEvPNS_15DOMWrapperWorldEPT_PNS_12JSDOMWrapperE@Base 2.2.0
 (optional=templinst|arch=mips mipsel s390x sh4 sparc)_ZN7WebCore12cacheWrapperINS_11WebKitPointEEEvPNS_15DOMWrapperWorldEPT_PNS_12JSDOMWrapperE@Base 2.2.0
 (optional=templinst|arch=mips mipsel s390x sh4 sparc)_ZN7WebCore12cacheWrapperINS_11XPathResultEEEvPNS_15DOMWrapperWorldEPT_PNS_12JSDOMWrapperE@Base 2.2.0
 (optional=templinst|arch=alpha armel armhf mips mipsel s390x sh4 sparc)_ZN7WebCore12cacheWrapperINS_12DOMSelectionEEEvPNS_15DOMWrapperWorldEPT_PNS_12JSDOMWrapperE@Base 2.2.0
 (optional=templinst|arch=s390x)_ZN7WebCore12cacheWrapperINS_12DOMStringMapEEEvPNS_15DOMWrapperWorldEPT_PNS_12JSDOMWrapperE@Base 2.2.0
 (optional=templinst|arch=s390x)_ZN7WebCore12cacheWrapperINS_12DOMTokenListEEEvPNS_15DOMWrapperWorldEPT_PNS_12JSDOMWrapperE@Base 2.2.0
 (optional=templinst|arch=mips mipsel s390x sh4 sparc)_ZN7WebCore12cacheWrapperINS_12DatabaseSyncEEEvPNS_15DOMWrapperWorldEPT_PNS_12JSDOMWrapperE@Base 2.2.0
 (optional=templinst|arch=alpha armel armhf mips mipsel s390x sh4 sparc)_ZN7WebCore12cacheWrapperINS_12NamedNodeMapEEEvPNS_15DOMWrapperWorldEPT_PNS_12JSDOMWrapperE@Base 2.2.0
 (optional=templinst|arch=mips mipsel s390x sh4 sparc)_ZN7WebCore12cacheWrapperINS_12NodeIteratorEEEvPNS_15DOMWrapperWorldEPT_PNS_12JSDOMWrapperE@Base 2.2.0
 (optional=templinst|arch=alpha armel armhf mips mipsel s390x sh4 sparc)_ZN7WebCore12cacheWrapperINS_12NotificationEEEvPNS_15DOMWrapperWorldEPT_PNS_12JSDOMWrapperE@Base 2.2.0
 (optional=templinst|arch=mips mipsel s390x sh4 sparc)_ZN7WebCore12cacheWrapperINS_12SQLExceptionEEEvPNS_15DOMWrapperWorldEPT_PNS_12JSDOMWrapperE@Base 2.2.0
 (optional=templinst|arch=mips mipsel s390x sh4 sparc)_ZN7WebCore12cacheWrapperINS_12SQLResultSetEEEvPNS_15DOMWrapperWorldEPT_PNS_12JSDOMWrapperE@Base 2.2.0
 (optional=templinst|arch=mips mipsel s390x sh4 sparc)_ZN7WebCore12cacheWrapperINS_12SVGExceptionEEEvPNS_15DOMWrapperWorldEPT_PNS_12JSDOMWrapperE@Base 2.2.0
 (optional=templinst|arch=mips mipsel s390x sh4 sparc)_ZN7WebCore12cacheWrapperINS_12SVGUnitTypesEEEvPNS_15DOMWrapperWorldEPT_PNS_12JSDOMWrapperE@Base 2.2.0
 (optional=templinst|arch=alpha armel armhf mips mipsel s390x sh4 sparc)_ZN7WebCore12cacheWrapperINS_12SharedWorkerEEEvPNS_15DOMWrapperWorldEPT_PNS_12JSDOMWrapperE@Base 2.2.0
 (optional=templinst|arch=mips mipsel s390x sh4 sparc)_ZN7WebCore12cacheWrapperINS_12VoidCallbackEEEvPNS_15DOMWrapperWorldEPT_PNS_12JSDOMWrapperE@Base 2.2.0
 (optional=templinst|arch=mips mipsel s390x sh4 sparc)_ZN7WebCore12cacheWrapperINS_13CanvasPatternEEEvPNS_15DOMWrapperWorldEPT_PNS_12JSDOMWrapperE@Base 2.2.0
 (optional=templinst|arch=mips mipsel s390x sh4 sparc)_ZN7WebCore12cacheWrapperINS_13DOMStringListEEEvPNS_15DOMWrapperWorldEPT_PNS_12JSDOMWrapperE@Base 2.2.0
 (optional=templinst|arch=mips mipsel s390x sh4 sparc)_ZN7WebCore12cacheWrapperINS_13FileExceptionEEEvPNS_15DOMWrapperWorldEPT_PNS_12JSDOMWrapperE@Base 2.2.0
 (optional=templinst|arch=s390x)_ZN7WebCore12cacheWrapperINS_13HTMLBRElementEEEvPNS_15DOMWrapperWorldEPT_PNS_12JSDOMWrapperE@Base 2.2.0
 (optional=templinst|arch=s390x)_ZN7WebCore12cacheWrapperINS_13HTMLHRElementEEEvPNS_15DOMWrapperWorldEPT_PNS_12JSDOMWrapperE@Base 2.2.0
 (optional=templinst|arch=s390x)_ZN7WebCore12cacheWrapperINS_13HTMLLIElementEEEvPNS_15DOMWrapperWorldEPT_PNS_12JSDOMWrapperE@Base 2.2.0
 (optional=templinst|arch=s390x)_ZN7WebCore12cacheWrapperINS_13SVGSVGElementEEEvPNS_15DOMWrapperWorldEPT_PNS_12JSDOMWrapperE@Base 2.2.0
 (optional=templinst|arch=s390x)_ZN7WebCore12cacheWrapperINS_13SVGSetElementEEEvPNS_15DOMWrapperWorldEPT_PNS_12JSDOMWrapperE@Base 2.2.0
 (optional=templinst|arch=s390x)_ZN7WebCore12cacheWrapperINS_13SVGUseElementEEEvPNS_15DOMWrapperWorldEPT_PNS_12JSDOMWrapperE@Base 2.2.0
 (optional=templinst|arch=mips mipsel s390x sh4 sparc)_ZN7WebCore12cacheWrapperINS_13ScriptProfileEEEvPNS_15DOMWrapperWorldEPT_PNS_12JSDOMWrapperE@Base 2.2.0
 (optional=templinst|arch=s390x)_ZN7WebCore12cacheWrapperINS_13ValidityStateEEEvPNS_15DOMWrapperWorldEPT_PNS_12JSDOMWrapperE@Base 2.2.0
 (optional=templinst|arch=mips mipsel s390x sh4 sparc)_ZN7WebCore12cacheWrapperINS_13XMLSerializerEEEvPNS_15DOMWrapperWorldEPT_PNS_12JSDOMWrapperE@Base 2.2.0
 (optional=templinst|arch=mips mipsel s390x sh4 sparc)_ZN7WebCore12cacheWrapperINS_14CanvasGradientEEEvPNS_15DOMWrapperWorldEPT_PNS_12JSDOMWrapperE@Base 2.2.0
 (optional=templinst|arch=mips mipsel s390x sh4 sparc)_ZN7WebCore12cacheWrapperINS_14ClientRectListEEEvPNS_15DOMWrapperWorldEPT_PNS_12JSDOMWrapperE@Base 2.2.0
 (optional=templinst|arch=alpha armel armhf mips mipsel s390x sh4 sparc)_ZN7WebCore12cacheWrapperINS_14DOMPluginArrayEEEvPNS_15DOMWrapperWorldEPT_PNS_12JSDOMWrapperE@Base 2.2.0
 (optional=templinst|arch=mips mipsel s390x sh4 sparc)_ZN7WebCore12cacheWrapperINS_14EventExceptionEEEvPNS_15DOMWrapperWorldEPT_PNS_12JSDOMWrapperE@Base 2.2.0
 (optional=templinst|arch=mips mipsel s390x sh4 sparc)_ZN7WebCore12cacheWrapperINS_14FileReaderSyncEEEvPNS_15DOMWrapperWorldEPT_PNS_12JSDOMWrapperE@Base 2.2.0
 (optional=templinst|arch=s390x)_ZN7WebCore12cacheWrapperINS_14HTMLDivElementEEEvPNS_15DOMWrapperWorldEPT_PNS_12JSDOMWrapperE@Base 2.2.0
 (optional=templinst|arch=s390x)_ZN7WebCore12cacheWrapperINS_14HTMLMapElementEEEvPNS_15DOMWrapperWorldEPT_PNS_12JSDOMWrapperE@Base 2.2.0
 (optional=templinst|arch=s390x)_ZN7WebCore12cacheWrapperINS_14HTMLModElementEEEvPNS_15DOMWrapperWorldEPT_PNS_12JSDOMWrapperE@Base 2.2.0
 (optional=templinst|arch=s390x)_ZN7WebCore12cacheWrapperINS_14HTMLPreElementEEEvPNS_15DOMWrapperWorldEPT_PNS_12JSDOMWrapperE@Base 2.2.0
 (optional=templinst|arch=mips mipsel s390x sh4 sparc)_ZN7WebCore12cacheWrapperINS_14MediaQueryListEEEvPNS_15DOMWrapperWorldEPT_PNS_12JSDOMWrapperE@Base 2.2.0
 (optional=templinst|arch=mips mipsel s390x sh4 sparc)_ZN7WebCore12cacheWrapperINS_14MessageChannelEEEvPNS_15DOMWrapperWorldEPT_PNS_12JSDOMWrapperE@Base 2.2.0
 (optional=templinst|arch=mips mipsel s390x sh4 sparc)_ZN7WebCore12cacheWrapperINS_14RangeExceptionEEEvPNS_15DOMWrapperWorldEPT_PNS_12JSDOMWrapperE@Base 2.2.0
 (optional=templinst|arch=mips mipsel s390x sh4 sparc)_ZN7WebCore12cacheWrapperINS_14SQLTransactionEEEvPNS_15DOMWrapperWorldEPT_PNS_12JSDOMWrapperE@Base 2.2.0
 (optional=templinst|arch=s390x)_ZN7WebCore12cacheWrapperINS_14SVGDefsElementEEEvPNS_15DOMWrapperWorldEPT_PNS_12JSDOMWrapperE@Base 2.2.0
 (optional=templinst|arch=s390x)_ZN7WebCore12cacheWrapperINS_14SVGDescElementEEEvPNS_15DOMWrapperWorldEPT_PNS_12JSDOMWrapperE@Base 2.2.0
 (optional=templinst|arch=s390x)_ZN7WebCore12cacheWrapperINS_14SVGFontElementEEEvPNS_15DOMWrapperWorldEPT_PNS_12JSDOMWrapperE@Base 2.2.0
 (optional=templinst|arch=s390x)_ZN7WebCore12cacheWrapperINS_14SVGLineElementEEEvPNS_15DOMWrapperWorldEPT_PNS_12JSDOMWrapperE@Base 2.2.0
 (optional=templinst|arch=s390x)_ZN7WebCore12cacheWrapperINS_14SVGMaskElementEEEvPNS_15DOMWrapperWorldEPT_PNS_12JSDOMWrapperE@Base 2.2.0
 (optional=templinst|arch=s390x)_ZN7WebCore12cacheWrapperINS_14SVGPathElementEEEvPNS_15DOMWrapperWorldEPT_PNS_12JSDOMWrapperE@Base 2.2.0
 (optional=templinst|arch=s390x)_ZN7WebCore12cacheWrapperINS_14SVGRectElementEEEvPNS_15DOMWrapperWorldEPT_PNS_12JSDOMWrapperE@Base 2.2.0
 (optional=templinst|arch=s390x)_ZN7WebCore12cacheWrapperINS_14SVGStopElementEEEvPNS_15DOMWrapperWorldEPT_PNS_12JSDOMWrapperE@Base 2.2.0
 (optional=templinst|arch=s390x)_ZN7WebCore12cacheWrapperINS_14SVGTRefElementEEEvPNS_15DOMWrapperWorldEPT_PNS_12JSDOMWrapperE@Base 2.2.0
 (optional=templinst|arch=s390x)_ZN7WebCore12cacheWrapperINS_14SVGTextElementEEEvPNS_15DOMWrapperWorldEPT_PNS_12JSDOMWrapperE@Base 2.2.0
 (optional=templinst|arch=s390x)_ZN7WebCore12cacheWrapperINS_14SVGViewElementEEEvPNS_15DOMWrapperWorldEPT_PNS_12JSDOMWrapperE@Base 2.2.0
 (optional=templinst|arch=alpha armel armhf mips mipsel s390x sh4 sparc)_ZN7WebCore12cacheWrapperINS_14StyleSheetListEEEvPNS_15DOMWrapperWorldEPT_PNS_12JSDOMWrapperE@Base 2.2.0
 (optional=templinst|arch=alpha armel armhf mips mipsel s390x sh4 sparc)_ZN7WebCore12cacheWrapperINS_14WorkerLocationEEEvPNS_15DOMWrapperWorldEPT_PNS_12JSDOMWrapperE@Base 2.2.0
 (optional=templinst|arch=alpha armel armhf hurd-i386 i386 kfreebsd-i386 mips mipsel powerpc s390 sh4 sparc)_ZN7WebCore12cacheWrapperINS_14XMLHttpRequestEEEvPNS_15DOMWrapperWorldEPT_PNS_12JSDOMWrapperE@Base 2.2.0
 (optional=templinst|arch=mips mipsel s390x sh4 sparc)_ZN7WebCore12cacheWrapperINS_14XPathEvaluatorEEEvPNS_15DOMWrapperWorldEPT_PNS_12JSDOMWrapperE@Base 2.2.0
 (optional=templinst|arch=mips mipsel s390x sh4 sparc)_ZN7WebCore12cacheWrapperINS_14XPathExceptionEEEvPNS_15DOMWrapperWorldEPT_PNS_12JSDOMWrapperE@Base 2.2.0
 (optional=templinst|arch=s390x)_ZN7WebCore12cacheWrapperINS_15HTMLAreaElementEEEvPNS_15DOMWrapperWorldEPT_PNS_12JSDOMWrapperE@Base 2.2.0
 (optional=templinst|arch=s390x)_ZN7WebCore12cacheWrapperINS_15HTMLBaseElementEEEvPNS_15DOMWrapperWorldEPT_PNS_12JSDOMWrapperE@Base 2.2.0
 (optional=templinst|arch=s390x)_ZN7WebCore12cacheWrapperINS_15HTMLBodyElementEEEvPNS_15DOMWrapperWorldEPT_PNS_12JSDOMWrapperE@Base 2.2.0
 (optional=templinst|arch=s390x)_ZN7WebCore12cacheWrapperINS_15HTMLFontElementEEEvPNS_15DOMWrapperWorldEPT_PNS_12JSDOMWrapperE@Base 2.2.0
 (optional=templinst|arch=s390x)_ZN7WebCore12cacheWrapperINS_15HTMLFormElementEEEvPNS_15DOMWrapperWorldEPT_PNS_12JSDOMWrapperE@Base 2.2.0
 (optional=templinst|arch=s390x)_ZN7WebCore12cacheWrapperINS_15HTMLHeadElementEEEvPNS_15DOMWrapperWorldEPT_PNS_12JSDOMWrapperE@Base 2.2.0
 (optional=templinst|arch=s390x)_ZN7WebCore12cacheWrapperINS_15HTMLHtmlElementEEEvPNS_15DOMWrapperWorldEPT_PNS_12JSDOMWrapperE@Base 2.2.0
 (optional=templinst|arch=s390x)_ZN7WebCore12cacheWrapperINS_15HTMLLinkElementEEEvPNS_15DOMWrapperWorldEPT_PNS_12JSDOMWrapperE@Base 2.2.0
 (optional=templinst|arch=s390x)_ZN7WebCore12cacheWrapperINS_15HTMLMenuElementEEEvPNS_15DOMWrapperWorldEPT_PNS_12JSDOMWrapperE@Base 2.2.0
 (optional=templinst|arch=s390x)_ZN7WebCore12cacheWrapperINS_15HTMLMetaElementEEEvPNS_15DOMWrapperWorldEPT_PNS_12JSDOMWrapperE@Base 2.2.0
 (optional=templinst|arch=s390x)_ZN7WebCore12cacheWrapperINS_15SVGGlyphElementEEEvPNS_15DOMWrapperWorldEPT_PNS_12JSDOMWrapperE@Base 2.2.0
 (optional=templinst|arch=s390x)_ZN7WebCore12cacheWrapperINS_15SVGImageElementEEEvPNS_15DOMWrapperWorldEPT_PNS_12JSDOMWrapperE@Base 2.2.0
 (optional=templinst|arch=s390x)_ZN7WebCore12cacheWrapperINS_15SVGStyleElementEEEvPNS_15DOMWrapperWorldEPT_PNS_12JSDOMWrapperE@Base 2.2.0
 (optional=templinst|arch=s390x)_ZN7WebCore12cacheWrapperINS_15SVGTSpanElementEEEvPNS_15DOMWrapperWorldEPT_PNS_12JSDOMWrapperE@Base 2.2.0
 (optional=templinst|arch=s390x)_ZN7WebCore12cacheWrapperINS_15SVGTitleElementEEEvPNS_15DOMWrapperWorldEPT_PNS_12JSDOMWrapperE@Base 2.2.0
 (optional=templinst|arch=s390x)_ZN7WebCore12cacheWrapperINS_15SVGVKernElementEEEvPNS_15DOMWrapperWorldEPT_PNS_12JSDOMWrapperE@Base 2.2.0
 (optional=templinst|arch=mips mipsel s390x sh4 sparc)_ZN7WebCore12cacheWrapperINS_15WebKitAnimationEEEvPNS_15DOMWrapperWorldEPT_PNS_12JSDOMWrapperE@Base 2.2.0
 (optional=templinst|arch=mips mipsel sh4 sparc)_ZN7WebCore12cacheWrapperINS_15WebKitCSSMatrixEEEvPNS_15DOMWrapperWorldEPT_PNS_12JSDOMWrapperE@Base 2.2.0
 (optional=templinst|arch=alpha armel armhf mips mipsel s390x sh4 sparc)_ZN7WebCore12cacheWrapperINS_15WorkerNavigatorEEEvPNS_15DOMWrapperWorldEPT_PNS_12JSDOMWrapperE@Base 2.2.0
 (optional=templinst|arch=mips mipsel s390x sh4 sparc)_ZN7WebCore12cacheWrapperINS_15XPathExpressionEEEvPNS_15DOMWrapperWorldEPT_PNS_12JSDOMWrapperE@Base 2.2.0
 (optional=templinst|arch=mips mipsel s390x sh4 sparc)_ZN7WebCore12cacheWrapperINS_15XPathNSResolverEEEvPNS_15DOMWrapperWorldEPT_PNS_12JSDOMWrapperE@Base 2.2.0
 (optional=templinst|arch=mips mipsel s390x sh4 sparc)_ZN7WebCore12cacheWrapperINS_16DOMCoreExceptionEEEvPNS_15DOMWrapperWorldEPT_PNS_12JSDOMWrapperE@Base 2.2.0
 (optional=templinst|arch=alpha armel armhf mips mipsel s390x sh4 sparc)_ZN7WebCore12cacheWrapperINS_16DOMMimeTypeArrayEEEvPNS_15DOMWrapperWorldEPT_PNS_12JSDOMWrapperE@Base 2.2.0
 (optional=templinst|arch=s390x)_ZN7WebCore12cacheWrapperINS_16HTMLAudioElementEEEvPNS_15DOMWrapperWorldEPT_PNS_12JSDOMWrapperE@Base 2.2.0
 (optional=templinst|arch=s390x)_ZN7WebCore12cacheWrapperINS_16HTMLDListElementEEEvPNS_15DOMWrapperWorldEPT_PNS_12JSDOMWrapperE@Base 2.2.0
 (optional=templinst|arch=s390x)_ZN7WebCore12cacheWrapperINS_16HTMLEmbedElementEEEvPNS_15DOMWrapperWorldEPT_PNS_12JSDOMWrapperE@Base 2.2.0
 (optional=templinst|arch=s390x)_ZN7WebCore12cacheWrapperINS_16HTMLFrameElementEEEvPNS_15DOMWrapperWorldEPT_PNS_12JSDOMWrapperE@Base 2.2.0
 (optional=templinst|arch=s390x)_ZN7WebCore12cacheWrapperINS_16HTMLImageElementEEEvPNS_15DOMWrapperWorldEPT_PNS_12JSDOMWrapperE@Base 2.2.0
 (optional=templinst|arch=s390x)_ZN7WebCore12cacheWrapperINS_16HTMLInputElementEEEvPNS_15DOMWrapperWorldEPT_PNS_12JSDOMWrapperE@Base 2.2.0
 (optional=templinst|arch=s390x)_ZN7WebCore12cacheWrapperINS_16HTMLLabelElementEEEvPNS_15DOMWrapperWorldEPT_PNS_12JSDOMWrapperE@Base 2.2.0
 (optional=templinst|arch=s390x)_ZN7WebCore12cacheWrapperINS_16HTMLMeterElementEEEvPNS_15DOMWrapperWorldEPT_PNS_12JSDOMWrapperE@Base 2.2.0
 (optional=templinst|arch=s390x)_ZN7WebCore12cacheWrapperINS_16HTMLOListElementEEEvPNS_15DOMWrapperWorldEPT_PNS_12JSDOMWrapperE@Base 2.2.0
 (optional=templinst|arch=s390x)_ZN7WebCore12cacheWrapperINS_16HTMLParamElementEEEvPNS_15DOMWrapperWorldEPT_PNS_12JSDOMWrapperE@Base 2.2.0
 (optional=templinst|arch=s390x)_ZN7WebCore12cacheWrapperINS_16HTMLQuoteElementEEEvPNS_15DOMWrapperWorldEPT_PNS_12JSDOMWrapperE@Base 2.2.0
 (optional=templinst|arch=s390x)_ZN7WebCore12cacheWrapperINS_16HTMLStyleElementEEEvPNS_15DOMWrapperWorldEPT_PNS_12JSDOMWrapperE@Base 2.2.0
 (optional=templinst|arch=s390x)_ZN7WebCore12cacheWrapperINS_16HTMLTableElementEEEvPNS_15DOMWrapperWorldEPT_PNS_12JSDOMWrapperE@Base 2.2.0
 (optional=templinst|arch=s390x)_ZN7WebCore12cacheWrapperINS_16HTMLTitleElementEEEvPNS_15DOMWrapperWorldEPT_PNS_12JSDOMWrapperE@Base 2.2.0
 (optional=templinst|arch=s390x)_ZN7WebCore12cacheWrapperINS_16HTMLUListElementEEEvPNS_15DOMWrapperWorldEPT_PNS_12JSDOMWrapperE@Base 2.2.0
 (optional=templinst|arch=s390x)_ZN7WebCore12cacheWrapperINS_16HTMLVideoElementEEEvPNS_15DOMWrapperWorldEPT_PNS_12JSDOMWrapperE@Base 2.2.0
 (optional=templinst|arch=s390x)_ZN7WebCore12cacheWrapperINS_16SVGCircleElementEEEvPNS_15DOMWrapperWorldEPT_PNS_12JSDOMWrapperE@Base 2.2.0
 (optional=templinst|arch=s390x)_ZN7WebCore12cacheWrapperINS_16SVGCursorElementEEEvPNS_15DOMWrapperWorldEPT_PNS_12JSDOMWrapperE@Base 2.2.0
 (optional=templinst|arch=s390x)_ZN7WebCore12cacheWrapperINS_16SVGFETileElementEEEvPNS_15DOMWrapperWorldEPT_PNS_12JSDOMWrapperE@Base 2.2.0
 (optional=templinst|arch=s390x)_ZN7WebCore12cacheWrapperINS_16SVGFilterElementEEEvPNS_15DOMWrapperWorldEPT_PNS_12JSDOMWrapperE@Base 2.2.0
 (optional=templinst|arch=s390x)_ZN7WebCore12cacheWrapperINS_16SVGMarkerElementEEEvPNS_15DOMWrapperWorldEPT_PNS_12JSDOMWrapperE@Base 2.2.0
 (optional=templinst|arch=s390x)_ZN7WebCore12cacheWrapperINS_16SVGScriptElementEEEvPNS_15DOMWrapperWorldEPT_PNS_12JSDOMWrapperE@Base 2.2.0
 (optional=templinst|arch=s390x)_ZN7WebCore12cacheWrapperINS_16SVGSwitchElementEEEvPNS_15DOMWrapperWorldEPT_PNS_12JSDOMWrapperE@Base 2.2.0
 (optional=templinst|arch=s390x)_ZN7WebCore12cacheWrapperINS_16SVGSymbolElementEEEvPNS_15DOMWrapperWorldEPT_PNS_12JSDOMWrapperE@Base 2.2.0
 (optional=templinst|arch=alpha armel armhf mips mipsel s390x sh4 sparc)_ZN7WebCore12cacheWrapperINS_17DOMImplementationEEEvPNS_15DOMWrapperWorldEPT_PNS_12JSDOMWrapperE@Base 2.2.0
 (optional=templinst|arch=mips mipsel sh4 sparc)_ZN7WebCore12cacheWrapperINS_17HTMLAllCollectionEEEvPNS_15DOMWrapperWorldEPT_PNS_12JSDOMWrapperE@Base 2.2.0
 (optional=templinst|arch=s390x)_ZN7WebCore12cacheWrapperINS_17HTMLAnchorElementEEEvPNS_15DOMWrapperWorldEPT_PNS_12JSDOMWrapperE@Base 2.2.0
 (optional=templinst|arch=s390x)_ZN7WebCore12cacheWrapperINS_17HTMLAppletElementEEEvPNS_15DOMWrapperWorldEPT_PNS_12JSDOMWrapperE@Base 2.2.0
 (optional=templinst|arch=s390x)_ZN7WebCore12cacheWrapperINS_17HTMLButtonElementEEEvPNS_15DOMWrapperWorldEPT_PNS_12JSDOMWrapperE@Base 2.2.0
 (optional=templinst|arch=s390x)_ZN7WebCore12cacheWrapperINS_17HTMLCanvasElementEEEvPNS_15DOMWrapperWorldEPT_PNS_12JSDOMWrapperE@Base 2.2.0
 (optional=templinst|arch=s390x)_ZN7WebCore12cacheWrapperINS_17HTMLIFrameElementEEEvPNS_15DOMWrapperWorldEPT_PNS_12JSDOMWrapperE@Base 2.2.0
 (optional=templinst|arch=s390x)_ZN7WebCore12cacheWrapperINS_17HTMLKeygenElementEEEvPNS_15DOMWrapperWorldEPT_PNS_12JSDOMWrapperE@Base 2.2.0
 (optional=templinst|arch=s390x)_ZN7WebCore12cacheWrapperINS_17HTMLLegendElementEEEvPNS_15DOMWrapperWorldEPT_PNS_12JSDOMWrapperE@Base 2.2.0
 (optional=templinst|arch=s390x)_ZN7WebCore12cacheWrapperINS_17HTMLObjectElementEEEvPNS_15DOMWrapperWorldEPT_PNS_12JSDOMWrapperE@Base 2.2.0
 (optional=templinst|arch=s390x)_ZN7WebCore12cacheWrapperINS_17HTMLOptionElementEEEvPNS_15DOMWrapperWorldEPT_PNS_12JSDOMWrapperE@Base 2.2.0
 (optional=templinst|arch=s390x)_ZN7WebCore12cacheWrapperINS_17HTMLOutputElementEEEvPNS_15DOMWrapperWorldEPT_PNS_12JSDOMWrapperE@Base 2.2.0
 (optional=templinst|arch=s390x)_ZN7WebCore12cacheWrapperINS_17HTMLScriptElementEEEvPNS_15DOMWrapperWorldEPT_PNS_12JSDOMWrapperE@Base 2.2.0
 (optional=templinst|arch=s390x)_ZN7WebCore12cacheWrapperINS_17HTMLSelectElementEEEvPNS_15DOMWrapperWorldEPT_PNS_12JSDOMWrapperE@Base 2.2.0
 (optional=templinst|arch=s390x)_ZN7WebCore12cacheWrapperINS_17HTMLSourceElementEEEvPNS_15DOMWrapperWorldEPT_PNS_12JSDOMWrapperE@Base 2.2.0
 (optional=templinst|arch=s390x)_ZN7WebCore12cacheWrapperINS_17SVGAnimateElementEEEvPNS_15DOMWrapperWorldEPT_PNS_12JSDOMWrapperE@Base 2.2.0
 (optional=templinst|arch=s390x)_ZN7WebCore12cacheWrapperINS_17SVGEllipseElementEEEvPNS_15DOMWrapperWorldEPT_PNS_12JSDOMWrapperE@Base 2.2.0
 (optional=templinst|arch=s390x)_ZN7WebCore12cacheWrapperINS_17SVGFEBlendElementEEEvPNS_15DOMWrapperWorldEPT_PNS_12JSDOMWrapperE@Base 2.2.0
 (optional=templinst|arch=s390x)_ZN7WebCore12cacheWrapperINS_17SVGFEFloodElementEEEvPNS_15DOMWrapperWorldEPT_PNS_12JSDOMWrapperE@Base 2.2.0
 (optional=templinst|arch=s390x)_ZN7WebCore12cacheWrapperINS_17SVGFEFuncAElementEEEvPNS_15DOMWrapperWorldEPT_PNS_12JSDOMWrapperE@Base 2.2.0
 (optional=templinst|arch=s390x)_ZN7WebCore12cacheWrapperINS_17SVGFEFuncBElementEEEvPNS_15DOMWrapperWorldEPT_PNS_12JSDOMWrapperE@Base 2.2.0
 (optional=templinst|arch=s390x)_ZN7WebCore12cacheWrapperINS_17SVGFEFuncGElementEEEvPNS_15DOMWrapperWorldEPT_PNS_12JSDOMWrapperE@Base 2.2.0
 (optional=templinst|arch=s390x)_ZN7WebCore12cacheWrapperINS_17SVGFEFuncRElementEEEvPNS_15DOMWrapperWorldEPT_PNS_12JSDOMWrapperE@Base 2.2.0
 (optional=templinst|arch=s390x)_ZN7WebCore12cacheWrapperINS_17SVGFEImageElementEEEvPNS_15DOMWrapperWorldEPT_PNS_12JSDOMWrapperE@Base 2.2.0
 (optional=templinst|arch=s390x)_ZN7WebCore12cacheWrapperINS_17SVGFEMergeElementEEEvPNS_15DOMWrapperWorldEPT_PNS_12JSDOMWrapperE@Base 2.2.0
 (optional=templinst|arch=s390x)_ZN7WebCore12cacheWrapperINS_17SVGPatternElementEEEvPNS_15DOMWrapperWorldEPT_PNS_12JSDOMWrapperE@Base 2.2.0
 (optional=templinst|arch=s390x)_ZN7WebCore12cacheWrapperINS_17SVGPolygonElementEEEvPNS_15DOMWrapperWorldEPT_PNS_12JSDOMWrapperE@Base 2.2.0
 (optional=templinst|arch=mips mipsel s390x sh4 sparc)_ZN7WebCore12cacheWrapperINS_17WebKitBlobBuilderEEEvPNS_15DOMWrapperWorldEPT_PNS_12JSDOMWrapperE@Base 2.2.0
 (optional=templinst|arch=s390x)_ZN7WebCore12cacheWrapperINS_18HTMLDetailsElementEEEvPNS_15DOMWrapperWorldEPT_PNS_12JSDOMWrapperE@Base 2.2.0
 (optional=templinst|arch=s390x)_ZN7WebCore12cacheWrapperINS_18HTMLHeadingElementEEEvPNS_15DOMWrapperWorldEPT_PNS_12JSDOMWrapperE@Base 2.2.0
 (optional=templinst|arch=s390x)_ZN7WebCore12cacheWrapperINS_18HTMLIsIndexElementEEEvPNS_15DOMWrapperWorldEPT_PNS_12JSDOMWrapperE@Base 2.2.0
 (optional=templinst|arch=s390x)_ZN7WebCore12cacheWrapperINS_18HTMLMarqueeElementEEEvPNS_15DOMWrapperWorldEPT_PNS_12JSDOMWrapperE@Base 2.2.0
 (optional=templinst|arch=mips mipsel s390x sh4 sparc)_ZN7WebCore12cacheWrapperINS_18InjectedScriptHostEEEvPNS_15DOMWrapperWorldEPT_PNS_12JSDOMWrapperE@Base 2.2.0
 (optional=templinst|arch=alpha armel armhf mips mipsel s390x sh4 sparc)_ZN7WebCore12cacheWrapperINS_18NotificationCenterEEEvPNS_15DOMWrapperWorldEPT_PNS_12JSDOMWrapperE@Base 2.2.0
 (optional=templinst|arch=mips mipsel s390x sh4 sparc)_ZN7WebCore12cacheWrapperINS_18SQLTransactionSyncEEEvPNS_15DOMWrapperWorldEPT_PNS_12JSDOMWrapperE@Base 2.2.0
 (optional=templinst|arch=s390x)_ZN7WebCore12cacheWrapperINS_18SVGAltGlyphElementEEEvPNS_15DOMWrapperWorldEPT_PNS_12JSDOMWrapperE@Base 2.2.0
 (optional=templinst|arch=s390x)_ZN7WebCore12cacheWrapperINS_18SVGClipPathElementEEEvPNS_15DOMWrapperWorldEPT_PNS_12JSDOMWrapperE@Base 2.2.0
 (optional=templinst|arch=s390x)_ZN7WebCore12cacheWrapperINS_18SVGFEOffsetElementEEEvPNS_15DOMWrapperWorldEPT_PNS_12JSDOMWrapperE@Base 2.2.0
 (optional=templinst|arch=s390x)_ZN7WebCore12cacheWrapperINS_18SVGFontFaceElementEEEvPNS_15DOMWrapperWorldEPT_PNS_12JSDOMWrapperE@Base 2.2.0
 (optional=templinst|arch=s390x)_ZN7WebCore12cacheWrapperINS_18SVGMetadataElementEEEvPNS_15DOMWrapperWorldEPT_PNS_12JSDOMWrapperE@Base 2.2.0
 (optional=templinst|arch=s390x)_ZN7WebCore12cacheWrapperINS_18SVGPolylineElementEEEvPNS_15DOMWrapperWorldEPT_PNS_12JSDOMWrapperE@Base 2.2.0
 (optional=templinst|arch=mips mipsel s390x sh4 sparc)_ZN7WebCore12cacheWrapperINS_18SVGPropertyTearOffINS_10FloatPointEEEEEvPNS_15DOMWrapperWorldEPT_PNS_12JSDOMWrapperE@Base 2.2.0
 (optional=templinst|arch=mips mipsel s390x sh4 sparc)_ZN7WebCore12cacheWrapperINS_18SVGPropertyTearOffINS_12SVGTransformEEEEEvPNS_15DOMWrapperWorldEPT_PNS_12JSDOMWrapperE@Base 2.2.0
 (optional=templinst|arch=mips mipsel s390x sh4 sparc)_ZN7WebCore12cacheWrapperINS_18SVGPropertyTearOffINS_22SVGPreserveAspectRatioEEEEEvPNS_15DOMWrapperWorldEPT_PNS_12JSDOMWrapperE@Base 2.2.0
 (optional=templinst|arch=mips mipsel s390x sh4 sparc)_ZN7WebCore12cacheWrapperINS_18SVGPropertyTearOffINS_8SVGAngleEEEEEvPNS_15DOMWrapperWorldEPT_PNS_12JSDOMWrapperE@Base 2.2.0
 (optional=templinst|arch=mips mipsel s390x sh4 sparc)_ZN7WebCore12cacheWrapperINS_18SVGPropertyTearOffINS_9FloatRectEEEEEvPNS_15DOMWrapperWorldEPT_PNS_12JSDOMWrapperE@Base 2.2.0
 (optional=templinst|arch=mips mipsel s390x sh4 sparc)_ZN7WebCore12cacheWrapperINS_18SVGPropertyTearOffINS_9SVGLengthEEEEEvPNS_15DOMWrapperWorldEPT_PNS_12JSDOMWrapperE@Base 2.2.0
 (optional=templinst|arch=mips mipsel s390x sh4 sparc)_ZN7WebCore12cacheWrapperINS_18SVGPropertyTearOffINS_9SVGMatrixEEEEEvPNS_15DOMWrapperWorldEPT_PNS_12JSDOMWrapperE@Base 2.2.0
 (optional=templinst|arch=mips mipsel s390x sh4 sparc)_ZN7WebCore12cacheWrapperINS_18SVGPropertyTearOffIfEEEEvPNS_15DOMWrapperWorldEPT_PNS_12JSDOMWrapperE@Base 2.2.0
 (optional=templinst|arch=mips mipsel s390x sh4 sparc)_ZN7WebCore12cacheWrapperINS_18SVGRenderingIntentEEEvPNS_15DOMWrapperWorldEPT_PNS_12JSDOMWrapperE@Base 2.2.0
 (optional=templinst|arch=s390x)_ZN7WebCore12cacheWrapperINS_18SVGTextPathElementEEEvPNS_15DOMWrapperWorldEPT_PNS_12JSDOMWrapperE@Base 2.2.0
 (optional=templinst|arch=alpha armel armhf mips mipsel s390x sh4 sparc)_ZN7WebCore12cacheWrapperINS_19CSSStyleDeclarationEEEvPNS_15DOMWrapperWorldEPT_PNS_12JSDOMWrapperE@Base 2.2.0
 (optional=templinst|arch=alpha armel armhf mips mipsel s390x sh4 sparc)_ZN7WebCore12cacheWrapperINS_19DOMApplicationCacheEEEvPNS_15DOMWrapperWorldEPT_PNS_12JSDOMWrapperE@Base 2.2.0
 (optional=templinst|arch=s390x)_ZN7WebCore12cacheWrapperINS_19HTMLBaseFontElementEEEvPNS_15DOMWrapperWorldEPT_PNS_12JSDOMWrapperE@Base 2.2.0
 (optional=templinst|arch=s390x)_ZN7WebCore12cacheWrapperINS_19HTMLDataListElementEEEvPNS_15DOMWrapperWorldEPT_PNS_12JSDOMWrapperE@Base 2.2.0
 (optional=templinst|arch=s390x)_ZN7WebCore12cacheWrapperINS_19HTMLFieldSetElementEEEvPNS_15DOMWrapperWorldEPT_PNS_12JSDOMWrapperE@Base 2.2.0
 (optional=templinst|arch=s390x)_ZN7WebCore12cacheWrapperINS_19HTMLFrameSetElementEEEvPNS_15DOMWrapperWorldEPT_PNS_12JSDOMWrapperE@Base 2.2.0
 (optional=templinst|arch=s390x)_ZN7WebCore12cacheWrapperINS_19HTMLOptGroupElementEEEvPNS_15DOMWrapperWorldEPT_PNS_12JSDOMWrapperE@Base 2.2.0
 (optional=templinst|arch=s390x)_ZN7WebCore12cacheWrapperINS_19HTMLProgressElementEEEvPNS_15DOMWrapperWorldEPT_PNS_12JSDOMWrapperE@Base 2.2.0
 (optional=templinst|arch=s390x)_ZN7WebCore12cacheWrapperINS_19HTMLTableColElementEEEvPNS_15DOMWrapperWorldEPT_PNS_12JSDOMWrapperE@Base 2.2.0
 (optional=templinst|arch=s390x)_ZN7WebCore12cacheWrapperINS_19HTMLTableRowElementEEEvPNS_15DOMWrapperWorldEPT_PNS_12JSDOMWrapperE@Base 2.2.0
 (optional=templinst|arch=s390x)_ZN7WebCore12cacheWrapperINS_19HTMLTextAreaElementEEEvPNS_15DOMWrapperWorldEPT_PNS_12JSDOMWrapperE@Base 2.2.0
 (optional=templinst|arch=mips mipsel s390x sh4 sparc)_ZN7WebCore12cacheWrapperINS_19JavaScriptCallFrameEEEvPNS_15DOMWrapperWorldEPT_PNS_12JSDOMWrapperE@Base 2.2.0
 (optional=templinst|arch=mips mipsel s390x sh4 sparc)_ZN7WebCore12cacheWrapperINS_19SQLResultSetRowListEEEvPNS_15DOMWrapperWorldEPT_PNS_12JSDOMWrapperE@Base 2.2.0
 (optional=templinst|arch=mips mipsel s390x sh4 sparc)_ZN7WebCore12cacheWrapperINS_19WebKitAnimationListEEEvPNS_15DOMWrapperWorldEPT_PNS_12JSDOMWrapperE@Base 2.2.0
 (optional=templinst|arch=s390x)_ZN7WebCore12cacheWrapperINS_20DOMSettableTokenListEEEvPNS_15DOMWrapperWorldEPT_PNS_12JSDOMWrapperE@Base 2.2.0
 (optional=templinst|arch=s390x)_ZN7WebCore12cacheWrapperINS_20HTMLDirectoryElementEEEvPNS_15DOMWrapperWorldEPT_PNS_12JSDOMWrapperE@Base 2.2.0
 (optional=templinst|arch=s390x)_ZN7WebCore12cacheWrapperINS_20HTMLParagraphElementEEEvPNS_15DOMWrapperWorldEPT_PNS_12JSDOMWrapperE@Base 2.2.0
 (optional=templinst|arch=s390x)_ZN7WebCore12cacheWrapperINS_20HTMLTableCellElementEEEvPNS_15DOMWrapperWorldEPT_PNS_12JSDOMWrapperE@Base 2.2.0
 (optional=templinst|arch=alpha armel armhf mips mipsel s390x sh4 sparc)_ZN7WebCore12cacheWrapperINS_20XMLHttpRequestUploadEEEvPNS_15DOMWrapperWorldEPT_PNS_12JSDOMWrapperE@Base 2.2.0
 (optional=templinst|arch=s390x)_ZN7WebCore12cacheWrapperINS_21HTMLBlockquoteElementEEEvPNS_15DOMWrapperWorldEPT_PNS_12JSDOMWrapperE@Base 2.2.0
 (optional=templinst|arch=mips mipsel s390x sh4 sparc)_ZN7WebCore12cacheWrapperINS_21InspectorFrontendHostEEEvPNS_15DOMWrapperWorldEPT_PNS_12JSDOMWrapperE@Base 2.2.0
 (optional=templinst|arch=s390x)_ZN7WebCore12cacheWrapperINS_21SVGFECompositeElementEEEvPNS_15DOMWrapperWorldEPT_PNS_12JSDOMWrapperE@Base 2.2.0
 (optional=templinst|arch=s390x)_ZN7WebCore12cacheWrapperINS_21SVGFEMergeNodeElementEEEvPNS_15DOMWrapperWorldEPT_PNS_12JSDOMWrapperE@Base 2.2.0
 (optional=templinst|arch=s390x)_ZN7WebCore12cacheWrapperINS_21SVGFESpotLightElementEEEvPNS_15DOMWrapperWorldEPT_PNS_12JSDOMWrapperE@Base 2.2.0
 (optional=templinst|arch=s390x)_ZN7WebCore12cacheWrapperINS_21SVGFontFaceSrcElementEEEvPNS_15DOMWrapperWorldEPT_PNS_12JSDOMWrapperE@Base 2.2.0
 (optional=templinst|arch=s390x)_ZN7WebCore12cacheWrapperINS_21SVGFontFaceUriElementEEEvPNS_15DOMWrapperWorldEPT_PNS_12JSDOMWrapperE@Base 2.2.0
 (optional=templinst|arch=s390x)_ZN7WebCore12cacheWrapperINS_22SVGAnimateColorElementEEEvPNS_15DOMWrapperWorldEPT_PNS_12JSDOMWrapperE@Base 2.2.0
 (optional=templinst|arch=mips mipsel s390x sh4 sparc)_ZN7WebCore12cacheWrapperINS_22SVGElementInstanceListEEEvPNS_15DOMWrapperWorldEPT_PNS_12JSDOMWrapperE@Base 2.2.0
 (optional=templinst|arch=s390x)_ZN7WebCore12cacheWrapperINS_22SVGFEDropShadowElementEEEvPNS_15DOMWrapperWorldEPT_PNS_12JSDOMWrapperE@Base 2.2.0
 (optional=templinst|arch=s390x)_ZN7WebCore12cacheWrapperINS_22SVGFEMorphologyElementEEEvPNS_15DOMWrapperWorldEPT_PNS_12JSDOMWrapperE@Base 2.2.0
 (optional=templinst|arch=s390x)_ZN7WebCore12cacheWrapperINS_22SVGFEPointLightElementEEEvPNS_15DOMWrapperWorldEPT_PNS_12JSDOMWrapperE@Base 2.2.0
 (optional=templinst|arch=s390x)_ZN7WebCore12cacheWrapperINS_22SVGFETurbulenceElementEEEvPNS_15DOMWrapperWorldEPT_PNS_12JSDOMWrapperE@Base 2.2.0
 (optional=templinst|arch=s390x)_ZN7WebCore12cacheWrapperINS_22SVGFontFaceNameElementEEEvPNS_15DOMWrapperWorldEPT_PNS_12JSDOMWrapperE@Base 2.2.0
 (optional=templinst|arch=mips mipsel s390x sh4 sparc)_ZN7WebCore12cacheWrapperINS_22SVGListPropertyTearOffINS_12SVGPointListEEEEEvPNS_15DOMWrapperWorldEPT_PNS_12JSDOMWrapperE@Base 2.2.0
 (optional=templinst|arch=mips mipsel s390x sh4 sparc)_ZN7WebCore12cacheWrapperINS_22SVGListPropertyTearOffINS_13SVGLengthListEEEEEvPNS_15DOMWrapperWorldEPT_PNS_12JSDOMWrapperE@Base 2.2.0
 (optional=templinst|arch=mips mipsel s390x sh4 sparc)_ZN7WebCore12cacheWrapperINS_22SVGListPropertyTearOffINS_13SVGNumberListEEEEEvPNS_15DOMWrapperWorldEPT_PNS_12JSDOMWrapperE@Base 2.2.0
 (optional=templinst|arch=s390x)_ZN7WebCore12cacheWrapperINS_22SVGMissingGlyphElementEEEvPNS_15DOMWrapperWorldEPT_PNS_12JSDOMWrapperE@Base 2.2.0
 (optional=templinst|arch=s390x)_ZN7WebCore12cacheWrapperINS_23HTMLTableCaptionElementEEEvPNS_15DOMWrapperWorldEPT_PNS_12JSDOMWrapperE@Base 2.2.0
 (optional=templinst|arch=s390x)_ZN7WebCore12cacheWrapperINS_23HTMLTableSectionElementEEEvPNS_15DOMWrapperWorldEPT_PNS_12JSDOMWrapperE@Base 2.2.0
 (optional=templinst|arch=s390x)_ZN7WebCore12cacheWrapperINS_23SVGFEColorMatrixElementEEEvPNS_15DOMWrapperWorldEPT_PNS_12JSDOMWrapperE@Base 2.2.0
 (optional=templinst|arch=s390x)_ZN7WebCore12cacheWrapperINS_23SVGForeignObjectElementEEEvPNS_15DOMWrapperWorldEPT_PNS_12JSDOMWrapperE@Base 2.2.0
 (optional=templinst|arch=mips mipsel s390x sh4 sparc)_ZN7WebCore12cacheWrapperINS_23XMLHttpRequestExceptionEEEvPNS_15DOMWrapperWorldEPT_PNS_12JSDOMWrapperE@Base 2.2.0
 (optional=templinst|arch=s390x)_ZN7WebCore12cacheWrapperINS_24SVGFEDistantLightElementEEEvPNS_15DOMWrapperWorldEPT_PNS_12JSDOMWrapperE@Base 2.2.0
 (optional=templinst|arch=s390x)_ZN7WebCore12cacheWrapperINS_24SVGFEGaussianBlurElementEEEvPNS_15DOMWrapperWorldEPT_PNS_12JSDOMWrapperE@Base 2.2.0
 (optional=templinst|arch=s390x)_ZN7WebCore12cacheWrapperINS_24SVGFontFaceFormatElementEEEvPNS_15DOMWrapperWorldEPT_PNS_12JSDOMWrapperE@Base 2.2.0
 (optional=templinst|arch=s390x)_ZN7WebCore12cacheWrapperINS_24SVGLinearGradientElementEEEvPNS_15DOMWrapperWorldEPT_PNS_12JSDOMWrapperE@Base 2.2.0
 (optional=templinst|arch=s390x)_ZN7WebCore12cacheWrapperINS_24SVGRadialGradientElementEEEvPNS_15DOMWrapperWorldEPT_PNS_12JSDOMWrapperE@Base 2.2.0
 (optional=templinst|arch=s390x)_ZN7WebCore12cacheWrapperINS_26SVGAnimateTransformElementEEEvPNS_15DOMWrapperWorldEPT_PNS_12JSDOMWrapperE@Base 2.2.0
 (optional=templinst|arch=mips mipsel s390x sh4 sparc)_ZN7WebCore12cacheWrapperINS_26SVGAnimatedPropertyTearOffINS_22SVGPreserveAspectRatioEEEEEvPNS_15DOMWrapperWorldEPT_PNS_12JSDOMWrapperE@Base 2.2.0
 (optional=templinst|arch=mips mipsel s390x sh4 sparc)_ZN7WebCore12cacheWrapperINS_26SVGAnimatedPropertyTearOffINS_8SVGAngleEEEEEvPNS_15DOMWrapperWorldEPT_PNS_12JSDOMWrapperE@Base 2.2.0
 (optional=templinst|arch=mips mipsel s390x sh4 sparc)_ZN7WebCore12cacheWrapperINS_26SVGAnimatedPropertyTearOffINS_9FloatRectEEEEEvPNS_15DOMWrapperWorldEPT_PNS_12JSDOMWrapperE@Base 2.2.0
 (optional=templinst|arch=mips mipsel s390x sh4 sparc)_ZN7WebCore12cacheWrapperINS_26SVGAnimatedPropertyTearOffINS_9SVGLengthEEEEEvPNS_15DOMWrapperWorldEPT_PNS_12JSDOMWrapperE@Base 2.2.0
 (optional=templinst|arch=s390x)_ZN7WebCore12cacheWrapperINS_26SVGFEConvolveMatrixElementEEEvPNS_15DOMWrapperWorldEPT_PNS_12JSDOMWrapperE@Base 2.2.0
 (optional=templinst|arch=s390x)_ZN7WebCore12cacheWrapperINS_27SVGFEDiffuseLightingElementEEEvPNS_15DOMWrapperWorldEPT_PNS_12JSDOMWrapperE@Base 2.2.0
 (optional=templinst|arch=s390x)_ZN7WebCore12cacheWrapperINS_27SVGFEDisplacementMapElementEEEvPNS_15DOMWrapperWorldEPT_PNS_12JSDOMWrapperE@Base 2.2.0
 (optional=templinst|arch=s390x)_ZN7WebCore12cacheWrapperINS_28SVGFESpecularLightingElementEEEvPNS_15DOMWrapperWorldEPT_PNS_12JSDOMWrapperE@Base 2.2.0
 (optional=templinst|arch=mips mipsel s390x sh4 sparc)_ZN7WebCore12cacheWrapperINS_28SVGStaticListPropertyTearOffINS_13SVGStringListEEEEEvPNS_15DOMWrapperWorldEPT_PNS_12JSDOMWrapperE@Base 2.2.0
 (optional=templinst|arch=s390x)_ZN7WebCore12cacheWrapperINS_29SVGFEComponentTransferElementEEEvPNS_15DOMWrapperWorldEPT_PNS_12JSDOMWrapperE@Base 2.2.0
 (optional=templinst|arch=mips mipsel s390x sh4 sparc)_ZN7WebCore12cacheWrapperINS_29SVGPathSegListPropertyTearOffEEEvPNS_15DOMWrapperWorldEPT_PNS_12JSDOMWrapperE@Base 2.2.0
 (optional=templinst|arch=mips mipsel s390x sh4 sparc)_ZN7WebCore12cacheWrapperINS_30SVGAnimatedListPropertyTearOffINS_13SVGLengthListEEEEEvPNS_15DOMWrapperWorldEPT_PNS_12JSDOMWrapperE@Base 2.2.0
 (optional=templinst|arch=mips mipsel s390x sh4 sparc)_ZN7WebCore12cacheWrapperINS_30SVGAnimatedListPropertyTearOffINS_13SVGNumberListEEEEEvPNS_15DOMWrapperWorldEPT_PNS_12JSDOMWrapperE@Base 2.2.0
 (optional=templinst|arch=mips mipsel s390x sh4 sparc)_ZN7WebCore12cacheWrapperINS_31SVGTransformListPropertyTearOffEEEvPNS_15DOMWrapperWorldEPT_PNS_12JSDOMWrapperE@Base 2.2.0
 (optional=templinst|arch=mips mipsel s390x sh4 sparc)_ZN7WebCore12cacheWrapperINS_32SVGAnimatedStaticPropertyTearOffIN3WTF6StringEEEEEvPNS_15DOMWrapperWorldEPT_PNS_12JSDOMWrapperE@Base 2.2.0
 (optional=templinst|arch=mips mipsel s390x sh4 sparc)_ZN7WebCore12cacheWrapperINS_32SVGAnimatedStaticPropertyTearOffIbEEEEvPNS_15DOMWrapperWorldEPT_PNS_12JSDOMWrapperE@Base 2.2.0
 (optional=templinst|arch=mips mipsel s390x sh4 sparc)_ZN7WebCore12cacheWrapperINS_32SVGAnimatedStaticPropertyTearOffIfEEEEvPNS_15DOMWrapperWorldEPT_PNS_12JSDOMWrapperE@Base 2.2.0
 (optional=templinst|arch=mips mipsel s390x sh4 sparc)_ZN7WebCore12cacheWrapperINS_32SVGAnimatedStaticPropertyTearOffIiEEEEvPNS_15DOMWrapperWorldEPT_PNS_12JSDOMWrapperE@Base 2.2.0
 (optional=templinst|arch=mips mipsel s390x sh4 sparc)_ZN7WebCore12cacheWrapperINS_32SVGAnimatedStaticPropertyTearOffIlEEEEvPNS_15DOMWrapperWorldEPT_PNS_12JSDOMWrapperE@Base 2.2.0
 (optional=templinst|arch=mips mipsel s390x sh4 sparc)_ZN7WebCore12cacheWrapperINS_39SVGAnimatedTransformListPropertyTearOffEEEvPNS_15DOMWrapperWorldEPT_PNS_12JSDOMWrapperE@Base 2.2.0
 (optional=templinst|arch=alpha armel armhf mips mipsel s390x sh4 sparc)_ZN7WebCore12cacheWrapperINS_4BlobEEEvPNS_15DOMWrapperWorldEPT_PNS_12JSDOMWrapperE@Base 2.2.0
 (optional=templinst|arch=mips mipsel s390x sh4 sparc)_ZN7WebCore12cacheWrapperINS_4FileEEEvPNS_15DOMWrapperWorldEPT_PNS_12JSDOMWrapperE@Base 2.2.0
 (optional=templinst|arch=mips mipsel s390x sh4 sparc)_ZN7WebCore12cacheWrapperINS_4RectEEEvPNS_15DOMWrapperWorldEPT_PNS_12JSDOMWrapperE@Base 2.2.0
 (optional=templinst|arch=mips mipsel s390x sh4 sparc)_ZN7WebCore12cacheWrapperINS_5RangeEEEvPNS_15DOMWrapperWorldEPT_PNS_12JSDOMWrapperE@Base 2.2.0
 (optional=templinst|arch=mips mipsel sh4 sparc)_ZN7WebCore12cacheWrapperINS_5TouchEEEvPNS_15DOMWrapperWorldEPT_PNS_12JSDOMWrapperE@Base 2.2.0
 (optional=templinst|arch=mips mipsel s390x sh4 sparc)_ZN7WebCore12cacheWrapperINS_6CryptoEEEvPNS_15DOMWrapperWorldEPT_PNS_12JSDOMWrapperE@Base 2.2.0
 (optional=templinst|arch=mips mipsel s390x sh4 sparc)_ZN7WebCore12cacheWrapperINS_6DOMURLEEEvPNS_15DOMWrapperWorldEPT_PNS_12JSDOMWrapperE@Base 2.2.0
 (optional=templinst|arch=alpha armel armhf mips mipsel s390x sh4 sparc)_ZN7WebCore12cacheWrapperINS_6ScreenEEEvPNS_15DOMWrapperWorldEPT_PNS_12JSDOMWrapperE@Base 2.2.0
 (optional=templinst|arch=alpha armel armhf mips mipsel s390x sh4 sparc)_ZN7WebCore12cacheWrapperINS_6WorkerEEEvPNS_15DOMWrapperWorldEPT_PNS_12JSDOMWrapperE@Base 2.2.0
 (optional=templinst|arch=alpha armel armhf mips mipsel s390x sh4 sparc)_ZN7WebCore12cacheWrapperINS_7BarInfoEEEvPNS_15DOMWrapperWorldEPT_PNS_12JSDOMWrapperE@Base 2.2.0
 (optional=templinst|arch=alpha armel armhf mips mipsel s390x sh4 sparc)_ZN7WebCore12cacheWrapperINS_7ConsoleEEEvPNS_15DOMWrapperWorldEPT_PNS_12JSDOMWrapperE@Base 2.2.0
 (optional=templinst|arch=mips mipsel s390x sh4 sparc)_ZN7WebCore12cacheWrapperINS_7CounterEEEvPNS_15DOMWrapperWorldEPT_PNS_12JSDOMWrapperE@Base 2.2.0
 (optional=templinst|arch=alpha armel armhf mips mipsel s390x sh4 sparc)_ZN7WebCore12cacheWrapperINS_7StorageEEEvPNS_15DOMWrapperWorldEPT_PNS_12JSDOMWrapperE@Base 2.2.0
 (optional=templinst|arch=mips mipsel s390x sh4 sparc)_ZN7WebCore12cacheWrapperINS_8DatabaseEEEvPNS_15DOMWrapperWorldEPT_PNS_12JSDOMWrapperE@Base 2.2.0
 (optional=templinst|arch=mips mipsel s390x sh4 sparc)_ZN7WebCore12cacheWrapperINS_8FileListEEEvPNS_15DOMWrapperWorldEPT_PNS_12JSDOMWrapperE@Base 2.2.0
 (optional=templinst|arch=alpha armel armhf mips mipsel s390x sh4 sparc)_ZN7WebCore12cacheWrapperINS_8NodeListEEEvPNS_15DOMWrapperWorldEPT_PNS_12JSDOMWrapperE@Base 2.2.0
 (optional=templinst|arch=mips mipsel s390x sh4 sparc)_ZN7WebCore12cacheWrapperINS_8RGBColorEEEvPNS_15DOMWrapperWorldEPT_PNS_12JSDOMWrapperE@Base 2.2.0
 (optional=templinst|arch=mips mipsel s390x sh4 sparc)_ZN7WebCore12cacheWrapperINS_8SQLErrorEEEvPNS_15DOMWrapperWorldEPT_PNS_12JSDOMWrapperE@Base 2.2.0
 (optional=templinst|arch=mips mipsel s390x sh4 sparc)_ZN7WebCore12cacheWrapperINS_9ClipboardEEEvPNS_15DOMWrapperWorldEPT_PNS_12JSDOMWrapperE@Base 2.2.0
 (optional=templinst|arch=mips mipsel s390x sh4 sparc)_ZN7WebCore12cacheWrapperINS_9DOMParserEEEvPNS_15DOMWrapperWorldEPT_PNS_12JSDOMWrapperE@Base 2.2.0
 (optional=templinst|arch=mips mipsel s390x sh4 sparc)_ZN7WebCore12cacheWrapperINS_9DOMPluginEEEvPNS_15DOMWrapperWorldEPT_PNS_12JSDOMWrapperE@Base 2.2.0
 (optional=templinst|arch=mips mipsel s390x sh4 sparc)_ZN7WebCore12cacheWrapperINS_9FileErrorEEEvPNS_15DOMWrapperWorldEPT_PNS_12JSDOMWrapperE@Base 2.2.0
 (optional=templinst|arch=mips mipsel s390x sh4 sparc)_ZN7WebCore12cacheWrapperINS_9InternalsEEEvPNS_15DOMWrapperWorldEPT_PNS_12JSDOMWrapperE@Base 2.2.0
 (optional=templinst|arch=alpha armel armhf mips mipsel s390x sh4 sparc)_ZN7WebCore12cacheWrapperINS_9MediaListEEEvPNS_15DOMWrapperWorldEPT_PNS_12JSDOMWrapperE@Base 2.2.0
 (optional=templinst|arch=alpha armel armhf mips mipsel s390x sh4 sparc)_ZN7WebCore12cacheWrapperINS_9NavigatorEEEvPNS_15DOMWrapperWorldEPT_PNS_12JSDOMWrapperE@Base 2.2.0
 (optional=templinst|arch=mips mipsel s390x sh4 sparc)_ZN7WebCore12cacheWrapperINS_9TouchListEEEvPNS_15DOMWrapperWorldEPT_PNS_12JSDOMWrapperE@Base 2.2.0
 (optional=templinst|arch=alpha armel armhf mips mipsel sh4 sparc)_ZN7WebCore12cacheWrapperINS_9WebSocketEEEvPNS_15DOMWrapperWorldEPT_PNS_12JSDOMWrapperE@Base 2.2.0
 (optional=private|arch=s390x)_ZN7WebCore12wrapperOwnerEPNS_15DOMWrapperWorldEPNS_10FileReaderE@Base 2.2.0
 (optional=private|arch=s390x)_ZN7WebCore12wrapperOwnerEPNS_15DOMWrapperWorldEPNS_10StyleMediaE@Base 2.2.0
 (optional=private|arch=s390x)_ZN7WebCore12wrapperOwnerEPNS_15DOMWrapperWorldEPNS_11ArrayBufferE@Base 2.2.0
 (optional=private|arch=s390x)_ZN7WebCore12wrapperOwnerEPNS_15DOMWrapperWorldEPNS_11CSSRuleListE@Base 2.2.0
 (optional=private|arch=s390x)_ZN7WebCore12wrapperOwnerEPNS_15DOMWrapperWorldEPNS_11EventSourceE@Base 2.2.0
 (optional=private|arch=s390x)_ZN7WebCore12wrapperOwnerEPNS_15DOMWrapperWorldEPNS_11MessagePortE@Base 2.2.0
 (optional=private|arch=s390x)_ZN7WebCore12wrapperOwnerEPNS_15DOMWrapperWorldEPNS_12DOMSelectionE@Base 2.2.0
 (optional=private|arch=s390x)_ZN7WebCore12wrapperOwnerEPNS_15DOMWrapperWorldEPNS_12DOMStringMapE@Base 2.2.0
 (optional=private|arch=s390x)_ZN7WebCore12wrapperOwnerEPNS_15DOMWrapperWorldEPNS_12DOMTokenListE@Base 2.2.0
 (optional=private|arch=s390x)_ZN7WebCore12wrapperOwnerEPNS_15DOMWrapperWorldEPNS_12NamedNodeMapE@Base 2.2.0
 (optional=private|arch=s390x)_ZN7WebCore12wrapperOwnerEPNS_15DOMWrapperWorldEPNS_12NotificationE@Base 2.2.0
 (optional=private|arch=s390x)_ZN7WebCore12wrapperOwnerEPNS_15DOMWrapperWorldEPNS_12SharedWorkerE@Base 2.2.0
 (optional=private|arch=s390x)_ZN7WebCore12wrapperOwnerEPNS_15DOMWrapperWorldEPNS_14DOMPluginArrayE@Base 2.2.0
 (optional=private|arch=s390x)_ZN7WebCore12wrapperOwnerEPNS_15DOMWrapperWorldEPNS_14StyleSheetListE@Base 2.2.0
 (optional=private|arch=s390x)_ZN7WebCore12wrapperOwnerEPNS_15DOMWrapperWorldEPNS_14WorkerLocationE@Base 2.2.0
 (optional=private|arch=s390x)_ZN7WebCore12wrapperOwnerEPNS_15DOMWrapperWorldEPNS_15WorkerNavigatorE@Base 2.2.0
 (optional=private|arch=s390x)_ZN7WebCore12wrapperOwnerEPNS_15DOMWrapperWorldEPNS_16DOMMimeTypeArrayE@Base 2.2.0
 (optional=private|arch=s390x)_ZN7WebCore12wrapperOwnerEPNS_15DOMWrapperWorldEPNS_17DOMImplementationE@Base 2.2.0
 (optional=private|arch=s390x)_ZN7WebCore12wrapperOwnerEPNS_15DOMWrapperWorldEPNS_18NotificationCenterE@Base 2.2.0
 (optional=private|arch=s390x)_ZN7WebCore12wrapperOwnerEPNS_15DOMWrapperWorldEPNS_19CSSStyleDeclarationE@Base 2.2.0
 (optional=private|arch=s390x)_ZN7WebCore12wrapperOwnerEPNS_15DOMWrapperWorldEPNS_19DOMApplicationCacheE@Base 2.2.0
 (optional=private|arch=s390x)_ZN7WebCore12wrapperOwnerEPNS_15DOMWrapperWorldEPNS_20XMLHttpRequestUploadE@Base 2.2.0
 (optional=private|arch=s390x)_ZN7WebCore12wrapperOwnerEPNS_15DOMWrapperWorldEPNS_4BlobE@Base 2.2.0
 (optional=private|arch=s390x)_ZN7WebCore12wrapperOwnerEPNS_15DOMWrapperWorldEPNS_6ScreenE@Base 2.2.0
 (optional=private|arch=s390x)_ZN7WebCore12wrapperOwnerEPNS_15DOMWrapperWorldEPNS_6WorkerE@Base 2.2.0
 (optional=private|arch=s390x)_ZN7WebCore12wrapperOwnerEPNS_15DOMWrapperWorldEPNS_7BarInfoE@Base 2.2.0
 (optional=private|arch=s390x)_ZN7WebCore12wrapperOwnerEPNS_15DOMWrapperWorldEPNS_7ConsoleE@Base 2.2.0
 (optional=private|arch=s390x)_ZN7WebCore12wrapperOwnerEPNS_15DOMWrapperWorldEPNS_7StorageE@Base 2.2.0
 (optional=private|arch=s390x)_ZN7WebCore12wrapperOwnerEPNS_15DOMWrapperWorldEPNS_8NodeListE@Base 2.2.0
 (optional=private|arch=s390x)_ZN7WebCore12wrapperOwnerEPNS_15DOMWrapperWorldEPNS_9MediaListE@Base 2.2.0
 (optional=private|arch=s390x)_ZN7WebCore12wrapperOwnerEPNS_15DOMWrapperWorldEPNS_9NavigatorE@Base 2.2.0
 (optional=private|arch=s390x)_ZN7WebCore13CSSStyleSheet10removeRuleEjRi@Base 2.2.0
 (optional=private|arch=s390x)_ZN7WebCore13CSSStyleSheet5rulesEv@Base 2.2.0
 (optional=private|arch=s390x)_ZN7WebCore13ColorDataHash23colordata_hash_functionEPKcj@Base 2.2.0
 (optional=private|arch=s390x)_ZN7WebCore13DOMStringListD1Ev@Base 2.2.0
 (optional=private|arch=s390x)_ZN7WebCore13DOMStringListD2Ev@Base 2.2.0
 (optional=private|arch=s390x)_ZN7WebCore13JSArrayBuffer15createStructureERN3JSC12JSGlobalDataENS1_7JSValueE@Base 2.2.0
 (optional=private|arch=s390x)_ZN7WebCore13JSCSSRuleList15createStructureERN3JSC12JSGlobalDataENS1_7JSValueE@Base 2.2.0
 (optional=private|arch=s390x)_ZN7WebCore13JSCoordinates15createStructureERN3JSC12JSGlobalDataENS1_7JSValueE@Base 2.2.0
 (optional=private|arch=s390x)_ZN7WebCore13JSDOMFormData15createStructureERN3JSC12JSGlobalDataENS1_7JSValueE@Base 2.2.0
 (optional=private|arch=s390x)_ZN7WebCore13JSDOMMimeType15createStructureERN3JSC12JSGlobalDataENS1_7JSValueE@Base 2.2.0
 (optional=private|arch=s390x)_ZN7WebCore13JSEventSource15createStructureERN3JSC12JSGlobalDataENS1_7JSValueE@Base 2.2.0
 (optional=private|arch=s390x)_ZN7WebCore13JSHTMLElement15createStructureERN3JSC12JSGlobalDataENS1_7JSValueE@Base 2.2.0
 (optional=private|arch=s390x)_ZN7WebCore13JSMessagePort15createStructureERN3JSC12JSGlobalDataENS1_7JSValueE@Base 2.2.0
 (optional=private|arch=s390x)_ZN7WebCore13JSSVGAElement15createStructureERN3JSC12JSGlobalDataENS1_7JSValueE@Base 2.2.0
 (optional=private|arch=s390x)_ZN7WebCore13JSSVGGElement15createStructureERN3JSC12JSGlobalDataENS1_7JSValueE@Base 2.2.0
 (optional=private|arch=s390x)_ZN7WebCore13JSScreenOwnerC1Ev@Base 2.2.0
 (optional=private|arch=s390x)_ZN7WebCore13JSScreenOwnerC2Ev@Base 2.2.0
 (optional=private|arch=s390x)_ZN7WebCore13JSTextMetrics15createStructureERN3JSC12JSGlobalDataENS1_7JSValueE@Base 2.2.0
 (optional=private|arch=s390x)_ZN7WebCore13JSWebKitPoint15createStructureERN3JSC12JSGlobalDataENS1_7JSValueE@Base 2.2.0
 (optional=private|arch=s390x)_ZN7WebCore13JSWorkerOwnerC1Ev@Base 2.2.0
 (optional=private|arch=s390x)_ZN7WebCore13JSWorkerOwnerC2Ev@Base 2.2.0
 (optional=private|arch=s390x)_ZN7WebCore13JSXPathResult15createStructureERN3JSC12JSGlobalDataENS1_7JSValueE@Base 2.2.0
 (optional=private|arch=s390x)_ZN7WebCore13MimeClassInfoC1Ev@Base 2.2.0
 (optional=private|arch=s390x)_ZN7WebCore13MimeClassInfoC2Ev@Base 2.2.0
 (optional=private|arch=s390x)_ZN7WebCore13SVGPathSegArc12setSweepFlagEb@Base 2.2.0
 (optional=private|arch=s390x)_ZN7WebCore13SVGPathSegArc15setLargeArcFlagEb@Base 2.2.0
 (optional=private|arch=s390x)_ZN7WebCore13SVGPathSegArc4setXEf@Base 2.2.0
 (optional=private|arch=s390x)_ZN7WebCore13SVGPathSegArc4setYEf@Base 2.2.0
 (optional=private|arch=s390x)_ZN7WebCore13SVGPathSegArc5setR1Ef@Base 2.2.0
 (optional=private|arch=s390x)_ZN7WebCore13SVGPathSegArc5setR2Ef@Base 2.2.0
 (optional=private|arch=s390x)_ZN7WebCore13SVGPathSegArc8setAngleEf@Base 2.2.0
 (optional=private|arch=s390x)_ZN7WebCore13ValidityState3refEv@Base 2.2.0
 (optional=private|arch=s390x)_ZN7WebCore13ValidityState5derefEv@Base 2.2.0
 (optional=private|arch=s390x)_ZN7WebCore13WorkerContext10setOnerrorEN3WTF10PassRefPtrINS_13EventListenerEEE@Base 2.2.0
 (optional=private|arch=s390x)_ZN7WebCore13WorkerContext4selfEv@Base 2.2.0
 (optional=private|arch=s390x)_ZN7WebCore13WorkerContext7onerrorEv@Base 2.2.0
 (optional=private|arch=s390x)_ZN7WebCore13XMLSerializer6createEv@Base 2.2.0
 (optional=private|arch=s390x)_ZN7WebCore13XMLSerializerC1Ev@Base 2.2.0
 (optional=private|arch=s390x)_ZN7WebCore13XMLSerializerC2Ev@Base 2.2.0
 (optional=private|arch=s390x)_ZN7WebCore13XMLSerializerD1Ev@Base 2.2.0
 (optional=private|arch=s390x)_ZN7WebCore13XMLSerializerD2Ev@Base 2.2.0
 (optional=templinst|arch=s390x)_ZN7WebCore13createWrapperINS_10JSDatabaseENS_8DatabaseEEEPNS_12JSDOMWrapperEPN3JSC9ExecStateEPNS_17JSDOMGlobalObjectEPT0_@Base 2.2.0
 (optional=templinst|arch=s390x)_ZN7WebCore13createWrapperINS_10JSFileListENS_8FileListEEEPNS_12JSDOMWrapperEPN3JSC9ExecStateEPNS_17JSDOMGlobalObjectEPT0_@Base 2.2.0
 (optional=templinst|arch=s390x)_ZN7WebCore13createWrapperINS_10JSLocationENS_8LocationEEEPNS_12JSDOMWrapperEPN3JSC9ExecStateEPNS_17JSDOMGlobalObjectEPT0_@Base 2.2.0
 (optional=templinst|arch=s390x)_ZN7WebCore13createWrapperINS_10JSNodeListENS_8NodeListEEEPNS_12JSDOMWrapperEPN3JSC9ExecStateEPNS_17JSDOMGlobalObjectEPT0_@Base 2.2.0
 (optional=templinst|arch=s390x)_ZN7WebCore13createWrapperINS_10JSRGBColorENS_8RGBColorEEEPNS_12JSDOMWrapperEPN3JSC9ExecStateEPNS_17JSDOMGlobalObjectEPT0_@Base 2.2.0
 (optional=templinst|arch=s390x)_ZN7WebCore13createWrapperINS_10JSSQLErrorENS_8SQLErrorEEEPNS_12JSDOMWrapperEPN3JSC9ExecStateEPNS_17JSDOMGlobalObjectEPT0_@Base 2.2.0
 (optional=templinst|arch=s390x)_ZN7WebCore13createWrapperINS_10JSSVGAngleENS_18SVGPropertyTearOffINS_8SVGAngleEEEEEPNS_12JSDOMWrapperEPN3JSC9ExecStateEPNS_17JSDOMGlobalObjectEPT0_@Base 2.2.0
 (optional=templinst|arch=s390x)_ZN7WebCore13createWrapperINS_10JSSVGPointENS_18SVGPropertyTearOffINS_10FloatPointEEEEEPNS_12JSDOMWrapperEPN3JSC9ExecStateEPNS_17JSDOMGlobalObjectEPT0_@Base 2.2.0
 (optional=templinst|arch=s390x)_ZN7WebCore13createWrapperINS_11JSClipboardENS_9ClipboardEEEPNS_12JSDOMWrapperEPN3JSC9ExecStateEPNS_17JSDOMGlobalObjectEPT0_@Base 2.2.0
 (optional=templinst|arch=s390x)_ZN7WebCore13createWrapperINS_11JSDOMParserENS_9DOMParserEEEPNS_12JSDOMWrapperEPN3JSC9ExecStateEPNS_17JSDOMGlobalObjectEPT0_@Base 2.2.0
 (optional=templinst|arch=s390x)_ZN7WebCore13createWrapperINS_11JSDOMPluginENS_9DOMPluginEEEPNS_12JSDOMWrapperEPN3JSC9ExecStateEPNS_17JSDOMGlobalObjectEPT0_@Base 2.2.0
 (optional=templinst|arch=s390x)_ZN7WebCore13createWrapperINS_11JSFileErrorENS_9FileErrorEEEPNS_12JSDOMWrapperEPN3JSC9ExecStateEPNS_17JSDOMGlobalObjectEPT0_@Base 2.2.0
 (optional=templinst|arch=s390x)_ZN7WebCore13createWrapperINS_11JSInternalsENS_9InternalsEEEPNS_12JSDOMWrapperEPN3JSC9ExecStateEPNS_17JSDOMGlobalObjectEPT0_@Base 2.2.0
 (optional=templinst|arch=s390x)_ZN7WebCore13createWrapperINS_11JSMediaListENS_9MediaListEEEPNS_12JSDOMWrapperEPN3JSC9ExecStateEPNS_17JSDOMGlobalObjectEPT0_@Base 2.2.0
 (optional=templinst|arch=s390x)_ZN7WebCore13createWrapperINS_11JSNavigatorENS_9NavigatorEEEPNS_12JSDOMWrapperEPN3JSC9ExecStateEPNS_17JSDOMGlobalObjectEPT0_@Base 2.2.0
 (optional=templinst|arch=s390x)_ZN7WebCore13createWrapperINS_11JSSVGLengthENS_18SVGPropertyTearOffINS_9SVGLengthEEEEEPNS_12JSDOMWrapperEPN3JSC9ExecStateEPNS_17JSDOMGlobalObjectEPT0_@Base 2.2.0
 (optional=templinst|arch=s390x)_ZN7WebCore13createWrapperINS_11JSSVGMatrixENS_18SVGPropertyTearOffINS_9SVGMatrixEEEEEPNS_12JSDOMWrapperEPN3JSC9ExecStateEPNS_17JSDOMGlobalObjectEPT0_@Base 2.2.0
 (optional=templinst|arch=s390x)_ZN7WebCore13createWrapperINS_11JSSVGNumberENS_18SVGPropertyTearOffIfEEEEPNS_12JSDOMWrapperEPN3JSC9ExecStateEPNS_17JSDOMGlobalObjectEPT0_@Base 2.2.0
 (optional=templinst|arch=s390x)_ZN7WebCore13createWrapperINS_11JSTouchListENS_9TouchListEEEPNS_12JSDOMWrapperEPN3JSC9ExecStateEPNS_17JSDOMGlobalObjectEPT0_@Base 2.2.0
 (optional=templinst|arch=s390x)_ZN7WebCore13createWrapperINS_12JSClientRectENS_10ClientRectEEEPNS_12JSDOMWrapperEPN3JSC9ExecStateEPNS_17JSDOMGlobalObjectEPT0_@Base 2.2.0
 (optional=templinst|arch=s390x)_ZN7WebCore13createWrapperINS_12JSFileReaderENS_10FileReaderEEEPNS_12JSDOMWrapperEPN3JSC9ExecStateEPNS_17JSDOMGlobalObjectEPT0_@Base 2.2.0
 (optional=templinst|arch=s390x)_ZN7WebCore13createWrapperINS_12JSMediaErrorENS_10MediaErrorEEEPNS_12JSDOMWrapperEPN3JSC9ExecStateEPNS_17JSDOMGlobalObjectEPT0_@Base 2.2.0
 (optional=templinst|arch=s390x)_ZN7WebCore13createWrapperINS_12JSMemoryInfoENS_10MemoryInfoEEEPNS_12JSDOMWrapperEPN3JSC9ExecStateEPNS_17JSDOMGlobalObjectEPT0_@Base 2.2.0
 (optional=templinst|arch=s390x)_ZN7WebCore13createWrapperINS_12JSNodeFilterENS_10NodeFilterEEEPNS_12JSDOMWrapperEPN3JSC9ExecStateEPNS_17JSDOMGlobalObjectEPT0_@Base 2.2.0
 (optional=templinst|arch=s390x)_ZN7WebCore13createWrapperINS_12JSStyleMediaENS_10StyleMediaEEEPNS_12JSDOMWrapperEPN3JSC9ExecStateEPNS_17JSDOMGlobalObjectEPT0_@Base 2.2.0
 (optional=templinst|arch=s390x)_ZN7WebCore13createWrapperINS_12JSTimeRangesENS_10TimeRangesEEEPNS_12JSDOMWrapperEPN3JSC9ExecStateEPNS_17JSDOMGlobalObjectEPT0_@Base 2.2.0
 (optional=templinst|arch=s390x)_ZN7WebCore13createWrapperINS_12JSTreeWalkerENS_10TreeWalkerEEEPNS_12JSDOMWrapperEPN3JSC9ExecStateEPNS_17JSDOMGlobalObjectEPT0_@Base 2.2.0
 (optional=templinst|arch=s390x)_ZN7WebCore13createWrapperINS_13JSArrayBufferENS_11ArrayBufferEEEPNS_12JSDOMWrapperEPN3JSC9ExecStateEPNS_17JSDOMGlobalObjectEPT0_@Base 2.2.0
 (optional=templinst|arch=s390x)_ZN7WebCore13createWrapperINS_13JSCSSRuleListENS_11CSSRuleListEEEPNS_12JSDOMWrapperEPN3JSC9ExecStateEPNS_17JSDOMGlobalObjectEPT0_@Base 2.2.0
 (optional=templinst|arch=s390x)_ZN7WebCore13createWrapperINS_13JSCoordinatesENS_11CoordinatesEEEPNS_12JSDOMWrapperEPN3JSC9ExecStateEPNS_17JSDOMGlobalObjectEPT0_@Base 2.2.0
 (optional=templinst|arch=s390x)_ZN7WebCore13createWrapperINS_13JSDOMFormDataENS_11DOMFormDataEEEPNS_12JSDOMWrapperEPN3JSC9ExecStateEPNS_17JSDOMGlobalObjectEPT0_@Base 2.2.0
 (optional=templinst|arch=s390x)_ZN7WebCore13createWrapperINS_13JSDOMMimeTypeENS_11DOMMimeTypeEEEPNS_12JSDOMWrapperEPN3JSC9ExecStateEPNS_17JSDOMGlobalObjectEPT0_@Base 2.2.0
 (optional=templinst|arch=s390x)_ZN7WebCore13createWrapperINS_13JSEventSourceENS_11EventSourceEEEPNS_12JSDOMWrapperEPN3JSC9ExecStateEPNS_17JSDOMGlobalObjectEPT0_@Base 2.2.0
 (optional=templinst|arch=s390x)_ZN7WebCore13createWrapperINS_13JSMessagePortENS_11MessagePortEEEPNS_12JSDOMWrapperEPN3JSC9ExecStateEPNS_17JSDOMGlobalObjectEPT0_@Base 2.2.0
 (optional=templinst|arch=s390x)_ZN7WebCore13createWrapperINS_13JSSVGAElementENS_11SVGAElementEEEPNS_12JSDOMWrapperEPN3JSC9ExecStateEPNS_17JSDOMGlobalObjectEPT0_@Base 2.2.0
 (optional=templinst|arch=s390x)_ZN7WebCore13createWrapperINS_13JSSVGGElementENS_11SVGGElementEEEPNS_12JSDOMWrapperEPN3JSC9ExecStateEPNS_17JSDOMGlobalObjectEPT0_@Base 2.2.0
 (optional=templinst|arch=s390x)_ZN7WebCore13createWrapperINS_13JSTextMetricsENS_11TextMetricsEEEPNS_12JSDOMWrapperEPN3JSC9ExecStateEPNS_17JSDOMGlobalObjectEPT0_@Base 2.2.0
 (optional=templinst|arch=s390x)_ZN7WebCore13createWrapperINS_13JSWebKitPointENS_11WebKitPointEEEPNS_12JSDOMWrapperEPN3JSC9ExecStateEPNS_17JSDOMGlobalObjectEPT0_@Base 2.2.0
 (optional=templinst|arch=s390x)_ZN7WebCore13createWrapperINS_13JSXPathResultENS_11XPathResultEEEPNS_12JSDOMWrapperEPN3JSC9ExecStateEPNS_17JSDOMGlobalObjectEPT0_@Base 2.2.0
 (optional=templinst|arch=s390x)_ZN7WebCore13createWrapperINS_14JSDOMSelectionENS_12DOMSelectionEEEPNS_12JSDOMWrapperEPN3JSC9ExecStateEPNS_17JSDOMGlobalObjectEPT0_@Base 2.2.0
 (optional=templinst|arch=s390x)_ZN7WebCore13createWrapperINS_14JSDatabaseSyncENS_12DatabaseSyncEEEPNS_12JSDOMWrapperEPN3JSC9ExecStateEPNS_17JSDOMGlobalObjectEPT0_@Base 2.2.0
 (optional=templinst|arch=s390x)_ZN7WebCore13createWrapperINS_14JSNamedNodeMapENS_12NamedNodeMapEEEPNS_12JSDOMWrapperEPN3JSC9ExecStateEPNS_17JSDOMGlobalObjectEPT0_@Base 2.2.0
 (optional=templinst|arch=s390x)_ZN7WebCore13createWrapperINS_14JSNodeIteratorENS_12NodeIteratorEEEPNS_12JSDOMWrapperEPN3JSC9ExecStateEPNS_17JSDOMGlobalObjectEPT0_@Base 2.2.0
 (optional=templinst|arch=s390x)_ZN7WebCore13createWrapperINS_14JSNotificationENS_12NotificationEEEPNS_12JSDOMWrapperEPN3JSC9ExecStateEPNS_17JSDOMGlobalObjectEPT0_@Base 2.2.0
 (optional=templinst|arch=s390x)_ZN7WebCore13createWrapperINS_14JSSQLExceptionENS_12SQLExceptionEEEPNS_12JSDOMWrapperEPN3JSC9ExecStateEPNS_17JSDOMGlobalObjectEPT0_@Base 2.2.0
 (optional=templinst|arch=s390x)_ZN7WebCore13createWrapperINS_14JSSQLResultSetENS_12SQLResultSetEEEPNS_12JSDOMWrapperEPN3JSC9ExecStateEPNS_17JSDOMGlobalObjectEPT0_@Base 2.2.0
 (optional=templinst|arch=s390x)_ZN7WebCore13createWrapperINS_14JSSVGExceptionENS_12SVGExceptionEEEPNS_12JSDOMWrapperEPN3JSC9ExecStateEPNS_17JSDOMGlobalObjectEPT0_@Base 2.2.0
 (optional=templinst|arch=s390x)_ZN7WebCore13createWrapperINS_14JSSVGPointListENS_22SVGListPropertyTearOffINS_12SVGPointListEEEEEPNS_12JSDOMWrapperEPN3JSC9ExecStateEPNS_17JSDOMGlobalObjectEPT0_@Base 2.2.0
 (optional=templinst|arch=s390x)_ZN7WebCore13createWrapperINS_14JSSVGTransformENS_18SVGPropertyTearOffINS_12SVGTransformEEEEEPNS_12JSDOMWrapperEPN3JSC9ExecStateEPNS_17JSDOMGlobalObjectEPT0_@Base 2.2.0
 (optional=templinst|arch=s390x)_ZN7WebCore13createWrapperINS_14JSSVGUnitTypesENS_12SVGUnitTypesEEEPNS_12JSDOMWrapperEPN3JSC9ExecStateEPNS_17JSDOMGlobalObjectEPT0_@Base 2.2.0
 (optional=templinst|arch=s390x)_ZN7WebCore13createWrapperINS_14JSSharedWorkerENS_12SharedWorkerEEEPNS_12JSDOMWrapperEPN3JSC9ExecStateEPNS_17JSDOMGlobalObjectEPT0_@Base 2.2.0
 (optional=templinst|arch=s390x)_ZN7WebCore13createWrapperINS_14JSVoidCallbackENS_12VoidCallbackEEEPNS_12JSDOMWrapperEPN3JSC9ExecStateEPNS_17JSDOMGlobalObjectEPT0_@Base 2.2.0
 (optional=templinst|arch=s390x)_ZN7WebCore13createWrapperINS_15JSCanvasPatternENS_13CanvasPatternEEEPNS_12JSDOMWrapperEPN3JSC9ExecStateEPNS_17JSDOMGlobalObjectEPT0_@Base 2.2.0
 (optional=templinst|arch=s390x)_ZN7WebCore13createWrapperINS_15JSDOMStringListENS_13DOMStringListEEEPNS_12JSDOMWrapperEPN3JSC9ExecStateEPNS_17JSDOMGlobalObjectEPT0_@Base 2.2.0
 (optional=templinst|arch=s390x)_ZN7WebCore13createWrapperINS_15JSFileExceptionENS_13FileExceptionEEEPNS_12JSDOMWrapperEPN3JSC9ExecStateEPNS_17JSDOMGlobalObjectEPT0_@Base 2.2.0
 (optional=templinst|arch=s390x)_ZN7WebCore13createWrapperINS_15JSHTMLBRElementENS_13HTMLBRElementEEEPNS_12JSDOMWrapperEPN3JSC9ExecStateEPNS_17JSDOMGlobalObjectEPT0_@Base 2.2.0
 (optional=templinst|arch=s390x)_ZN7WebCore13createWrapperINS_15JSHTMLHRElementENS_13HTMLHRElementEEEPNS_12JSDOMWrapperEPN3JSC9ExecStateEPNS_17JSDOMGlobalObjectEPT0_@Base 2.2.0
 (optional=templinst|arch=s390x)_ZN7WebCore13createWrapperINS_15JSHTMLLIElementENS_13HTMLLIElementEEEPNS_12JSDOMWrapperEPN3JSC9ExecStateEPNS_17JSDOMGlobalObjectEPT0_@Base 2.2.0
 (optional=templinst|arch=s390x)_ZN7WebCore13createWrapperINS_15JSSVGLengthListENS_22SVGListPropertyTearOffINS_13SVGLengthListEEEEEPNS_12JSDOMWrapperEPN3JSC9ExecStateEPNS_17JSDOMGlobalObjectEPT0_@Base 2.2.0
 (optional=templinst|arch=s390x)_ZN7WebCore13createWrapperINS_15JSSVGNumberListENS_22SVGListPropertyTearOffINS_13SVGNumberListEEEEEPNS_12JSDOMWrapperEPN3JSC9ExecStateEPNS_17JSDOMGlobalObjectEPT0_@Base 2.2.0
 (optional=templinst|arch=s390x)_ZN7WebCore13createWrapperINS_15JSSVGSVGElementENS_13SVGSVGElementEEEPNS_12JSDOMWrapperEPN3JSC9ExecStateEPNS_17JSDOMGlobalObjectEPT0_@Base 2.2.0
 (optional=templinst|arch=s390x)_ZN7WebCore13createWrapperINS_15JSSVGSetElementENS_13SVGSetElementEEEPNS_12JSDOMWrapperEPN3JSC9ExecStateEPNS_17JSDOMGlobalObjectEPT0_@Base 2.2.0
 (optional=templinst|arch=s390x)_ZN7WebCore13createWrapperINS_15JSSVGStringListENS_28SVGStaticListPropertyTearOffINS_13SVGStringListEEEEEPNS_12JSDOMWrapperEPN3JSC9ExecStateEPNS_17JSDOMGlobalObjectEPT0_@Base 2.2.0
 (optional=templinst|arch=s390x)_ZN7WebCore13createWrapperINS_15JSSVGUseElementENS_13SVGUseElementEEEPNS_12JSDOMWrapperEPN3JSC9ExecStateEPNS_17JSDOMGlobalObjectEPT0_@Base 2.2.0
 (optional=templinst|arch=s390x)_ZN7WebCore13createWrapperINS_15JSScriptProfileENS_13ScriptProfileEEEPNS_12JSDOMWrapperEPN3JSC9ExecStateEPNS_17JSDOMGlobalObjectEPT0_@Base 2.2.0
 (optional=templinst|arch=s390x)_ZN7WebCore13createWrapperINS_15JSXMLSerializerENS_13XMLSerializerEEEPNS_12JSDOMWrapperEPN3JSC9ExecStateEPNS_17JSDOMGlobalObjectEPT0_@Base 2.2.0
 (optional=templinst|arch=s390x)_ZN7WebCore13createWrapperINS_16JSCanvasGradientENS_14CanvasGradientEEEPNS_12JSDOMWrapperEPN3JSC9ExecStateEPNS_17JSDOMGlobalObjectEPT0_@Base 2.2.0
 (optional=templinst|arch=s390x)_ZN7WebCore13createWrapperINS_16JSClientRectListENS_14ClientRectListEEEPNS_12JSDOMWrapperEPN3JSC9ExecStateEPNS_17JSDOMGlobalObjectEPT0_@Base 2.2.0
 (optional=templinst|arch=s390x)_ZN7WebCore13createWrapperINS_16JSDOMPluginArrayENS_14DOMPluginArrayEEEPNS_12JSDOMWrapperEPN3JSC9ExecStateEPNS_17JSDOMGlobalObjectEPT0_@Base 2.2.0
 (optional=templinst|arch=s390x)_ZN7WebCore13createWrapperINS_16JSEventExceptionENS_14EventExceptionEEEPNS_12JSDOMWrapperEPN3JSC9ExecStateEPNS_17JSDOMGlobalObjectEPT0_@Base 2.2.0
 (optional=templinst|arch=s390x)_ZN7WebCore13createWrapperINS_16JSFileReaderSyncENS_14FileReaderSyncEEEPNS_12JSDOMWrapperEPN3JSC9ExecStateEPNS_17JSDOMGlobalObjectEPT0_@Base 2.2.0
 (optional=templinst|arch=s390x)_ZN7WebCore13createWrapperINS_16JSHTMLDivElementENS_14HTMLDivElementEEEPNS_12JSDOMWrapperEPN3JSC9ExecStateEPNS_17JSDOMGlobalObjectEPT0_@Base 2.2.0
 (optional=templinst|arch=s390x)_ZN7WebCore13createWrapperINS_16JSHTMLMapElementENS_14HTMLMapElementEEEPNS_12JSDOMWrapperEPN3JSC9ExecStateEPNS_17JSDOMGlobalObjectEPT0_@Base 2.2.0
 (optional=templinst|arch=s390x)_ZN7WebCore13createWrapperINS_16JSHTMLModElementENS_14HTMLModElementEEEPNS_12JSDOMWrapperEPN3JSC9ExecStateEPNS_17JSDOMGlobalObjectEPT0_@Base 2.2.0
 (optional=templinst|arch=s390x)_ZN7WebCore13createWrapperINS_16JSHTMLPreElementENS_14HTMLPreElementEEEPNS_12JSDOMWrapperEPN3JSC9ExecStateEPNS_17JSDOMGlobalObjectEPT0_@Base 2.2.0
 (optional=templinst|arch=s390x)_ZN7WebCore13createWrapperINS_16JSMediaQueryListENS_14MediaQueryListEEEPNS_12JSDOMWrapperEPN3JSC9ExecStateEPNS_17JSDOMGlobalObjectEPT0_@Base 2.2.0
 (optional=templinst|arch=s390x)_ZN7WebCore13createWrapperINS_16JSMessageChannelENS_14MessageChannelEEEPNS_12JSDOMWrapperEPN3JSC9ExecStateEPNS_17JSDOMGlobalObjectEPT0_@Base 2.2.0
 (optional=templinst|arch=s390x)_ZN7WebCore13createWrapperINS_16JSRangeExceptionENS_14RangeExceptionEEEPNS_12JSDOMWrapperEPN3JSC9ExecStateEPNS_17JSDOMGlobalObjectEPT0_@Base 2.2.0
 (optional=templinst|arch=s390x)_ZN7WebCore13createWrapperINS_16JSSQLTransactionENS_14SQLTransactionEEEPNS_12JSDOMWrapperEPN3JSC9ExecStateEPNS_17JSDOMGlobalObjectEPT0_@Base 2.2.0
 (optional=templinst|arch=s390x)_ZN7WebCore13createWrapperINS_16JSSVGDefsElementENS_14SVGDefsElementEEEPNS_12JSDOMWrapperEPN3JSC9ExecStateEPNS_17JSDOMGlobalObjectEPT0_@Base 2.2.0
 (optional=templinst|arch=s390x)_ZN7WebCore13createWrapperINS_16JSSVGDescElementENS_14SVGDescElementEEEPNS_12JSDOMWrapperEPN3JSC9ExecStateEPNS_17JSDOMGlobalObjectEPT0_@Base 2.2.0
 (optional=templinst|arch=s390x)_ZN7WebCore13createWrapperINS_16JSSVGFontElementENS_14SVGFontElementEEEPNS_12JSDOMWrapperEPN3JSC9ExecStateEPNS_17JSDOMGlobalObjectEPT0_@Base 2.2.0
 (optional=templinst|arch=s390x)_ZN7WebCore13createWrapperINS_16JSSVGLineElementENS_14SVGLineElementEEEPNS_12JSDOMWrapperEPN3JSC9ExecStateEPNS_17JSDOMGlobalObjectEPT0_@Base 2.2.0
 (optional=templinst|arch=s390x)_ZN7WebCore13createWrapperINS_16JSSVGMaskElementENS_14SVGMaskElementEEEPNS_12JSDOMWrapperEPN3JSC9ExecStateEPNS_17JSDOMGlobalObjectEPT0_@Base 2.2.0
 (optional=templinst|arch=s390x)_ZN7WebCore13createWrapperINS_16JSSVGPathElementENS_14SVGPathElementEEEPNS_12JSDOMWrapperEPN3JSC9ExecStateEPNS_17JSDOMGlobalObjectEPT0_@Base 2.2.0
 (optional=templinst|arch=s390x)_ZN7WebCore13createWrapperINS_16JSSVGPathSegListENS_29SVGPathSegListPropertyTearOffEEEPNS_12JSDOMWrapperEPN3JSC9ExecStateEPNS_17JSDOMGlobalObjectEPT0_@Base 2.2.0
 (optional=templinst|arch=s390x)_ZN7WebCore13createWrapperINS_16JSSVGRectElementENS_14SVGRectElementEEEPNS_12JSDOMWrapperEPN3JSC9ExecStateEPNS_17JSDOMGlobalObjectEPT0_@Base 2.2.0
 (optional=templinst|arch=s390x)_ZN7WebCore13createWrapperINS_16JSSVGStopElementENS_14SVGStopElementEEEPNS_12JSDOMWrapperEPN3JSC9ExecStateEPNS_17JSDOMGlobalObjectEPT0_@Base 2.2.0
 (optional=templinst|arch=s390x)_ZN7WebCore13createWrapperINS_16JSSVGTRefElementENS_14SVGTRefElementEEEPNS_12JSDOMWrapperEPN3JSC9ExecStateEPNS_17JSDOMGlobalObjectEPT0_@Base 2.2.0
 (optional=templinst|arch=s390x)_ZN7WebCore13createWrapperINS_16JSSVGTextElementENS_14SVGTextElementEEEPNS_12JSDOMWrapperEPN3JSC9ExecStateEPNS_17JSDOMGlobalObjectEPT0_@Base 2.2.0
 (optional=templinst|arch=s390x)_ZN7WebCore13createWrapperINS_16JSSVGViewElementENS_14SVGViewElementEEEPNS_12JSDOMWrapperEPN3JSC9ExecStateEPNS_17JSDOMGlobalObjectEPT0_@Base 2.2.0
 (optional=templinst|arch=s390x)_ZN7WebCore13createWrapperINS_16JSStyleSheetListENS_14StyleSheetListEEEPNS_12JSDOMWrapperEPN3JSC9ExecStateEPNS_17JSDOMGlobalObjectEPT0_@Base 2.2.0
 (optional=templinst|arch=s390x)_ZN7WebCore13createWrapperINS_16JSWorkerLocationENS_14WorkerLocationEEEPNS_12JSDOMWrapperEPN3JSC9ExecStateEPNS_17JSDOMGlobalObjectEPT0_@Base 2.2.0
 (optional=templinst|arch=s390x)_ZN7WebCore13createWrapperINS_16JSXPathEvaluatorENS_14XPathEvaluatorEEEPNS_12JSDOMWrapperEPN3JSC9ExecStateEPNS_17JSDOMGlobalObjectEPT0_@Base 2.2.0
 (optional=templinst|arch=s390x)_ZN7WebCore13createWrapperINS_16JSXPathExceptionENS_14XPathExceptionEEEPNS_12JSDOMWrapperEPN3JSC9ExecStateEPNS_17JSDOMGlobalObjectEPT0_@Base 2.2.0
 (optional=templinst|arch=s390x)_ZN7WebCore13createWrapperINS_17JSHTMLAreaElementENS_15HTMLAreaElementEEEPNS_12JSDOMWrapperEPN3JSC9ExecStateEPNS_17JSDOMGlobalObjectEPT0_@Base 2.2.0
 (optional=templinst|arch=s390x)_ZN7WebCore13createWrapperINS_17JSHTMLBaseElementENS_15HTMLBaseElementEEEPNS_12JSDOMWrapperEPN3JSC9ExecStateEPNS_17JSDOMGlobalObjectEPT0_@Base 2.2.0
 (optional=templinst|arch=s390x)_ZN7WebCore13createWrapperINS_17JSHTMLBodyElementENS_15HTMLBodyElementEEEPNS_12JSDOMWrapperEPN3JSC9ExecStateEPNS_17JSDOMGlobalObjectEPT0_@Base 2.2.0
 (optional=templinst|arch=s390x)_ZN7WebCore13createWrapperINS_17JSHTMLFontElementENS_15HTMLFontElementEEEPNS_12JSDOMWrapperEPN3JSC9ExecStateEPNS_17JSDOMGlobalObjectEPT0_@Base 2.2.0
 (optional=templinst|arch=s390x)_ZN7WebCore13createWrapperINS_17JSHTMLFormElementENS_15HTMLFormElementEEEPNS_12JSDOMWrapperEPN3JSC9ExecStateEPNS_17JSDOMGlobalObjectEPT0_@Base 2.2.0
 (optional=templinst|arch=s390x)_ZN7WebCore13createWrapperINS_17JSHTMLHeadElementENS_15HTMLHeadElementEEEPNS_12JSDOMWrapperEPN3JSC9ExecStateEPNS_17JSDOMGlobalObjectEPT0_@Base 2.2.0
 (optional=templinst|arch=s390x)_ZN7WebCore13createWrapperINS_17JSHTMLHtmlElementENS_15HTMLHtmlElementEEEPNS_12JSDOMWrapperEPN3JSC9ExecStateEPNS_17JSDOMGlobalObjectEPT0_@Base 2.2.0
 (optional=templinst|arch=s390x)_ZN7WebCore13createWrapperINS_17JSHTMLLinkElementENS_15HTMLLinkElementEEEPNS_12JSDOMWrapperEPN3JSC9ExecStateEPNS_17JSDOMGlobalObjectEPT0_@Base 2.2.0
 (optional=templinst|arch=s390x)_ZN7WebCore13createWrapperINS_17JSHTMLMenuElementENS_15HTMLMenuElementEEEPNS_12JSDOMWrapperEPN3JSC9ExecStateEPNS_17JSDOMGlobalObjectEPT0_@Base 2.2.0
 (optional=templinst|arch=s390x)_ZN7WebCore13createWrapperINS_17JSHTMLMetaElementENS_15HTMLMetaElementEEEPNS_12JSDOMWrapperEPN3JSC9ExecStateEPNS_17JSDOMGlobalObjectEPT0_@Base 2.2.0
 (optional=templinst|arch=s390x)_ZN7WebCore13createWrapperINS_17JSSVGAnimatedRectENS_26SVGAnimatedPropertyTearOffINS_9FloatRectEEEEEPNS_12JSDOMWrapperEPN3JSC9ExecStateEPNS_17JSDOMGlobalObjectEPT0_@Base 2.2.0
 (optional=templinst|arch=s390x)_ZN7WebCore13createWrapperINS_17JSSVGGlyphElementENS_15SVGGlyphElementEEEPNS_12JSDOMWrapperEPN3JSC9ExecStateEPNS_17JSDOMGlobalObjectEPT0_@Base 2.2.0
 (optional=templinst|arch=s390x)_ZN7WebCore13createWrapperINS_17JSSVGImageElementENS_15SVGImageElementEEEPNS_12JSDOMWrapperEPN3JSC9ExecStateEPNS_17JSDOMGlobalObjectEPT0_@Base 2.2.0
 (optional=templinst|arch=s390x)_ZN7WebCore13createWrapperINS_17JSSVGStyleElementENS_15SVGStyleElementEEEPNS_12JSDOMWrapperEPN3JSC9ExecStateEPNS_17JSDOMGlobalObjectEPT0_@Base 2.2.0
 (optional=templinst|arch=s390x)_ZN7WebCore13createWrapperINS_17JSSVGTSpanElementENS_15SVGTSpanElementEEEPNS_12JSDOMWrapperEPN3JSC9ExecStateEPNS_17JSDOMGlobalObjectEPT0_@Base 2.2.0
 (optional=templinst|arch=s390x)_ZN7WebCore13createWrapperINS_17JSSVGTitleElementENS_15SVGTitleElementEEEPNS_12JSDOMWrapperEPN3JSC9ExecStateEPNS_17JSDOMGlobalObjectEPT0_@Base 2.2.0
 (optional=templinst|arch=s390x)_ZN7WebCore13createWrapperINS_17JSSVGVKernElementENS_15SVGVKernElementEEEPNS_12JSDOMWrapperEPN3JSC9ExecStateEPNS_17JSDOMGlobalObjectEPT0_@Base 2.2.0
 (optional=templinst|arch=s390x)_ZN7WebCore13createWrapperINS_17JSWebKitAnimationENS_15WebKitAnimationEEEPNS_12JSDOMWrapperEPN3JSC9ExecStateEPNS_17JSDOMGlobalObjectEPT0_@Base 2.2.0
 (optional=templinst|arch=s390x)_ZN7WebCore13createWrapperINS_17JSWorkerNavigatorENS_15WorkerNavigatorEEEPNS_12JSDOMWrapperEPN3JSC9ExecStateEPNS_17JSDOMGlobalObjectEPT0_@Base 2.2.0
 (optional=templinst|arch=s390x)_ZN7WebCore13createWrapperINS_17JSXPathExpressionENS_15XPathExpressionEEEPNS_12JSDOMWrapperEPN3JSC9ExecStateEPNS_17JSDOMGlobalObjectEPT0_@Base 2.2.0
 (optional=templinst|arch=s390x)_ZN7WebCore13createWrapperINS_17JSXPathNSResolverENS_15XPathNSResolverEEEPNS_12JSDOMWrapperEPN3JSC9ExecStateEPNS_17JSDOMGlobalObjectEPT0_@Base 2.2.0
 (optional=templinst|arch=s390x)_ZN7WebCore13createWrapperINS_18JSDOMCoreExceptionENS_16DOMCoreExceptionEEEPNS_12JSDOMWrapperEPN3JSC9ExecStateEPNS_17JSDOMGlobalObjectEPT0_@Base 2.2.0
 (optional=templinst|arch=s390x)_ZN7WebCore13createWrapperINS_18JSDOMMimeTypeArrayENS_16DOMMimeTypeArrayEEEPNS_12JSDOMWrapperEPN3JSC9ExecStateEPNS_17JSDOMGlobalObjectEPT0_@Base 2.2.0
 (optional=templinst|arch=ia64 s390x)_ZN7WebCore13createWrapperINS_18JSHTMLAudioElementENS_16HTMLAudioElementEEEPNS_12JSDOMWrapperEPN3JSC9ExecStateEPNS_17JSDOMGlobalObjectEPT0_@Base 2.2.0
 (optional=templinst|arch=s390x)_ZN7WebCore13createWrapperINS_18JSHTMLDListElementENS_16HTMLDListElementEEEPNS_12JSDOMWrapperEPN3JSC9ExecStateEPNS_17JSDOMGlobalObjectEPT0_@Base 2.2.0
 (optional=templinst|arch=s390x)_ZN7WebCore13createWrapperINS_18JSHTMLEmbedElementENS_16HTMLEmbedElementEEEPNS_12JSDOMWrapperEPN3JSC9ExecStateEPNS_17JSDOMGlobalObjectEPT0_@Base 2.2.0
 (optional=templinst|arch=s390x)_ZN7WebCore13createWrapperINS_18JSHTMLFrameElementENS_16HTMLFrameElementEEEPNS_12JSDOMWrapperEPN3JSC9ExecStateEPNS_17JSDOMGlobalObjectEPT0_@Base 2.2.0
 (optional=templinst|arch=s390x)_ZN7WebCore13createWrapperINS_18JSHTMLImageElementENS_16HTMLImageElementEEEPNS_12JSDOMWrapperEPN3JSC9ExecStateEPNS_17JSDOMGlobalObjectEPT0_@Base 2.2.0
 (optional=templinst|arch=s390x)_ZN7WebCore13createWrapperINS_18JSHTMLInputElementENS_16HTMLInputElementEEEPNS_12JSDOMWrapperEPN3JSC9ExecStateEPNS_17JSDOMGlobalObjectEPT0_@Base 2.2.0
 (optional=templinst|arch=s390x)_ZN7WebCore13createWrapperINS_18JSHTMLLabelElementENS_16HTMLLabelElementEEEPNS_12JSDOMWrapperEPN3JSC9ExecStateEPNS_17JSDOMGlobalObjectEPT0_@Base 2.2.0
 (optional=templinst|arch=s390x)_ZN7WebCore13createWrapperINS_18JSHTMLMeterElementENS_16HTMLMeterElementEEEPNS_12JSDOMWrapperEPN3JSC9ExecStateEPNS_17JSDOMGlobalObjectEPT0_@Base 2.2.0
 (optional=templinst|arch=s390x)_ZN7WebCore13createWrapperINS_18JSHTMLOListElementENS_16HTMLOListElementEEEPNS_12JSDOMWrapperEPN3JSC9ExecStateEPNS_17JSDOMGlobalObjectEPT0_@Base 2.2.0
 (optional=templinst|arch=s390x)_ZN7WebCore13createWrapperINS_18JSHTMLParamElementENS_16HTMLParamElementEEEPNS_12JSDOMWrapperEPN3JSC9ExecStateEPNS_17JSDOMGlobalObjectEPT0_@Base 2.2.0
 (optional=templinst|arch=s390x)_ZN7WebCore13createWrapperINS_18JSHTMLQuoteElementENS_16HTMLQuoteElementEEEPNS_12JSDOMWrapperEPN3JSC9ExecStateEPNS_17JSDOMGlobalObjectEPT0_@Base 2.2.0
 (optional=templinst|arch=s390x)_ZN7WebCore13createWrapperINS_18JSHTMLStyleElementENS_16HTMLStyleElementEEEPNS_12JSDOMWrapperEPN3JSC9ExecStateEPNS_17JSDOMGlobalObjectEPT0_@Base 2.2.0
 (optional=templinst|arch=s390x)_ZN7WebCore13createWrapperINS_18JSHTMLTableElementENS_16HTMLTableElementEEEPNS_12JSDOMWrapperEPN3JSC9ExecStateEPNS_17JSDOMGlobalObjectEPT0_@Base 2.2.0
 (optional=templinst|arch=s390x)_ZN7WebCore13createWrapperINS_18JSHTMLTitleElementENS_16HTMLTitleElementEEEPNS_12JSDOMWrapperEPN3JSC9ExecStateEPNS_17JSDOMGlobalObjectEPT0_@Base 2.2.0
 (optional=templinst|arch=s390x)_ZN7WebCore13createWrapperINS_18JSHTMLUListElementENS_16HTMLUListElementEEEPNS_12JSDOMWrapperEPN3JSC9ExecStateEPNS_17JSDOMGlobalObjectEPT0_@Base 2.2.0
 (optional=templinst|arch=ia64 s390x)_ZN7WebCore13createWrapperINS_18JSHTMLVideoElementENS_16HTMLVideoElementEEEPNS_12JSDOMWrapperEPN3JSC9ExecStateEPNS_17JSDOMGlobalObjectEPT0_@Base 2.2.0
 (optional=templinst|arch=s390x)_ZN7WebCore13createWrapperINS_18JSSVGAnimatedAngleENS_26SVGAnimatedPropertyTearOffINS_8SVGAngleEEEEEPNS_12JSDOMWrapperEPN3JSC9ExecStateEPNS_17JSDOMGlobalObjectEPT0_@Base 2.2.0
 (optional=templinst|arch=s390x)_ZN7WebCore13createWrapperINS_18JSSVGCircleElementENS_16SVGCircleElementEEEPNS_12JSDOMWrapperEPN3JSC9ExecStateEPNS_17JSDOMGlobalObjectEPT0_@Base 2.2.0
 (optional=templinst|arch=s390x)_ZN7WebCore13createWrapperINS_18JSSVGCursorElementENS_16SVGCursorElementEEEPNS_12JSDOMWrapperEPN3JSC9ExecStateEPNS_17JSDOMGlobalObjectEPT0_@Base 2.2.0
 (optional=templinst|arch=s390x)_ZN7WebCore13createWrapperINS_18JSSVGFETileElementENS_16SVGFETileElementEEEPNS_12JSDOMWrapperEPN3JSC9ExecStateEPNS_17JSDOMGlobalObjectEPT0_@Base 2.2.0
 (optional=templinst|arch=s390x)_ZN7WebCore13createWrapperINS_18JSSVGFilterElementENS_16SVGFilterElementEEEPNS_12JSDOMWrapperEPN3JSC9ExecStateEPNS_17JSDOMGlobalObjectEPT0_@Base 2.2.0
 (optional=templinst|arch=s390x)_ZN7WebCore13createWrapperINS_18JSSVGMarkerElementENS_16SVGMarkerElementEEEPNS_12JSDOMWrapperEPN3JSC9ExecStateEPNS_17JSDOMGlobalObjectEPT0_@Base 2.2.0
 (optional=templinst|arch=s390x)_ZN7WebCore13createWrapperINS_18JSSVGScriptElementENS_16SVGScriptElementEEEPNS_12JSDOMWrapperEPN3JSC9ExecStateEPNS_17JSDOMGlobalObjectEPT0_@Base 2.2.0
 (optional=templinst|arch=s390x)_ZN7WebCore13createWrapperINS_18JSSVGSwitchElementENS_16SVGSwitchElementEEEPNS_12JSDOMWrapperEPN3JSC9ExecStateEPNS_17JSDOMGlobalObjectEPT0_@Base 2.2.0
 (optional=templinst|arch=s390x)_ZN7WebCore13createWrapperINS_18JSSVGSymbolElementENS_16SVGSymbolElementEEEPNS_12JSDOMWrapperEPN3JSC9ExecStateEPNS_17JSDOMGlobalObjectEPT0_@Base 2.2.0
 (optional=templinst|arch=s390x)_ZN7WebCore13createWrapperINS_18JSSVGTransformListENS_31SVGTransformListPropertyTearOffEEEPNS_12JSDOMWrapperEPN3JSC9ExecStateEPNS_17JSDOMGlobalObjectEPT0_@Base 2.2.0
 (optional=templinst|arch=s390x)_ZN7WebCore13createWrapperINS_19JSDOMImplementationENS_17DOMImplementationEEEPNS_12JSDOMWrapperEPN3JSC9ExecStateEPNS_17JSDOMGlobalObjectEPT0_@Base 2.2.0
 (optional=templinst|arch=s390x)_ZN7WebCore13createWrapperINS_19JSHTMLAnchorElementENS_17HTMLAnchorElementEEEPNS_12JSDOMWrapperEPN3JSC9ExecStateEPNS_17JSDOMGlobalObjectEPT0_@Base 2.2.0
 (optional=templinst|arch=s390x)_ZN7WebCore13createWrapperINS_19JSHTMLAppletElementENS_17HTMLAppletElementEEEPNS_12JSDOMWrapperEPN3JSC9ExecStateEPNS_17JSDOMGlobalObjectEPT0_@Base 2.2.0
 (optional=templinst|arch=s390x)_ZN7WebCore13createWrapperINS_19JSHTMLButtonElementENS_17HTMLButtonElementEEEPNS_12JSDOMWrapperEPN3JSC9ExecStateEPNS_17JSDOMGlobalObjectEPT0_@Base 2.2.0
 (optional=templinst|arch=s390x)_ZN7WebCore13createWrapperINS_19JSHTMLCanvasElementENS_17HTMLCanvasElementEEEPNS_12JSDOMWrapperEPN3JSC9ExecStateEPNS_17JSDOMGlobalObjectEPT0_@Base 2.2.0
 (optional=templinst|arch=s390x)_ZN7WebCore13createWrapperINS_19JSHTMLIFrameElementENS_17HTMLIFrameElementEEEPNS_12JSDOMWrapperEPN3JSC9ExecStateEPNS_17JSDOMGlobalObjectEPT0_@Base 2.2.0
 (optional=templinst|arch=s390x)_ZN7WebCore13createWrapperINS_19JSHTMLKeygenElementENS_17HTMLKeygenElementEEEPNS_12JSDOMWrapperEPN3JSC9ExecStateEPNS_17JSDOMGlobalObjectEPT0_@Base 2.2.0
 (optional=templinst|arch=s390x)_ZN7WebCore13createWrapperINS_19JSHTMLLegendElementENS_17HTMLLegendElementEEEPNS_12JSDOMWrapperEPN3JSC9ExecStateEPNS_17JSDOMGlobalObjectEPT0_@Base 2.2.0
 (optional=templinst|arch=s390x)_ZN7WebCore13createWrapperINS_19JSHTMLObjectElementENS_17HTMLObjectElementEEEPNS_12JSDOMWrapperEPN3JSC9ExecStateEPNS_17JSDOMGlobalObjectEPT0_@Base 2.2.0
 (optional=templinst|arch=s390x)_ZN7WebCore13createWrapperINS_19JSHTMLOptionElementENS_17HTMLOptionElementEEEPNS_12JSDOMWrapperEPN3JSC9ExecStateEPNS_17JSDOMGlobalObjectEPT0_@Base 2.2.0
 (optional=templinst|arch=s390x)_ZN7WebCore13createWrapperINS_19JSHTMLOutputElementENS_17HTMLOutputElementEEEPNS_12JSDOMWrapperEPN3JSC9ExecStateEPNS_17JSDOMGlobalObjectEPT0_@Base 2.2.0
 (optional=templinst|arch=s390x)_ZN7WebCore13createWrapperINS_19JSHTMLScriptElementENS_17HTMLScriptElementEEEPNS_12JSDOMWrapperEPN3JSC9ExecStateEPNS_17JSDOMGlobalObjectEPT0_@Base 2.2.0
 (optional=templinst|arch=s390x)_ZN7WebCore13createWrapperINS_19JSHTMLSelectElementENS_17HTMLSelectElementEEEPNS_12JSDOMWrapperEPN3JSC9ExecStateEPNS_17JSDOMGlobalObjectEPT0_@Base 2.2.0
 (optional=templinst|arch=ia64 s390x)_ZN7WebCore13createWrapperINS_19JSHTMLSourceElementENS_17HTMLSourceElementEEEPNS_12JSDOMWrapperEPN3JSC9ExecStateEPNS_17JSDOMGlobalObjectEPT0_@Base 2.2.0
 (optional=templinst|arch=s390x)_ZN7WebCore13createWrapperINS_19JSSVGAnimateElementENS_17SVGAnimateElementEEEPNS_12JSDOMWrapperEPN3JSC9ExecStateEPNS_17JSDOMGlobalObjectEPT0_@Base 2.2.0
 (optional=templinst|arch=s390x)_ZN7WebCore13createWrapperINS_19JSSVGAnimatedLengthENS_26SVGAnimatedPropertyTearOffINS_9SVGLengthEEEEEPNS_12JSDOMWrapperEPN3JSC9ExecStateEPNS_17JSDOMGlobalObjectEPT0_@Base 2.2.0
 (optional=templinst|arch=s390x)_ZN7WebCore13createWrapperINS_19JSSVGAnimatedNumberENS_32SVGAnimatedStaticPropertyTearOffIfEEEEPNS_12JSDOMWrapperEPN3JSC9ExecStateEPNS_17JSDOMGlobalObjectEPT0_@Base 2.2.0
 (optional=templinst|arch=s390x)_ZN7WebCore13createWrapperINS_19JSSVGAnimatedStringENS_32SVGAnimatedStaticPropertyTearOffIN3WTF6StringEEEEEPNS_12JSDOMWrapperEPN3JSC9ExecStateEPNS_17JSDOMGlobalObjectEPT0_@Base 2.2.0
 (optional=templinst|arch=s390x)_ZN7WebCore13createWrapperINS_19JSSVGEllipseElementENS_17SVGEllipseElementEEEPNS_12JSDOMWrapperEPN3JSC9ExecStateEPNS_17JSDOMGlobalObjectEPT0_@Base 2.2.0
 (optional=templinst|arch=s390x)_ZN7WebCore13createWrapperINS_19JSSVGFEBlendElementENS_17SVGFEBlendElementEEEPNS_12JSDOMWrapperEPN3JSC9ExecStateEPNS_17JSDOMGlobalObjectEPT0_@Base 2.2.0
 (optional=templinst|arch=s390x)_ZN7WebCore13createWrapperINS_19JSSVGFEFloodElementENS_17SVGFEFloodElementEEEPNS_12JSDOMWrapperEPN3JSC9ExecStateEPNS_17JSDOMGlobalObjectEPT0_@Base 2.2.0
 (optional=templinst|arch=s390x)_ZN7WebCore13createWrapperINS_19JSSVGFEFuncAElementENS_17SVGFEFuncAElementEEEPNS_12JSDOMWrapperEPN3JSC9ExecStateEPNS_17JSDOMGlobalObjectEPT0_@Base 2.2.0
 (optional=templinst|arch=s390x)_ZN7WebCore13createWrapperINS_19JSSVGFEFuncBElementENS_17SVGFEFuncBElementEEEPNS_12JSDOMWrapperEPN3JSC9ExecStateEPNS_17JSDOMGlobalObjectEPT0_@Base 2.2.0
 (optional=templinst|arch=s390x)_ZN7WebCore13createWrapperINS_19JSSVGFEFuncGElementENS_17SVGFEFuncGElementEEEPNS_12JSDOMWrapperEPN3JSC9ExecStateEPNS_17JSDOMGlobalObjectEPT0_@Base 2.2.0
 (optional=templinst|arch=s390x)_ZN7WebCore13createWrapperINS_19JSSVGFEFuncRElementENS_17SVGFEFuncRElementEEEPNS_12JSDOMWrapperEPN3JSC9ExecStateEPNS_17JSDOMGlobalObjectEPT0_@Base 2.2.0
 (optional=templinst|arch=s390x)_ZN7WebCore13createWrapperINS_19JSSVGFEImageElementENS_17SVGFEImageElementEEEPNS_12JSDOMWrapperEPN3JSC9ExecStateEPNS_17JSDOMGlobalObjectEPT0_@Base 2.2.0
 (optional=templinst|arch=s390x)_ZN7WebCore13createWrapperINS_19JSSVGFEMergeElementENS_17SVGFEMergeElementEEEPNS_12JSDOMWrapperEPN3JSC9ExecStateEPNS_17JSDOMGlobalObjectEPT0_@Base 2.2.0
 (optional=templinst|arch=s390x)_ZN7WebCore13createWrapperINS_19JSSVGPatternElementENS_17SVGPatternElementEEEPNS_12JSDOMWrapperEPN3JSC9ExecStateEPNS_17JSDOMGlobalObjectEPT0_@Base 2.2.0
 (optional=templinst|arch=s390x)_ZN7WebCore13createWrapperINS_19JSSVGPolygonElementENS_17SVGPolygonElementEEEPNS_12JSDOMWrapperEPN3JSC9ExecStateEPNS_17JSDOMGlobalObjectEPT0_@Base 2.2.0
 (optional=templinst|arch=s390x)_ZN7WebCore13createWrapperINS_19JSScriptProfileNodeEN3JSC11ProfileNodeEEEPNS_12JSDOMWrapperEPNS2_9ExecStateEPNS_17JSDOMGlobalObjectEPT0_@Base 2.2.0
 (optional=templinst|arch=s390x)_ZN7WebCore13createWrapperINS_19JSWebKitBlobBuilderENS_17WebKitBlobBuilderEEEPNS_12JSDOMWrapperEPN3JSC9ExecStateEPNS_17JSDOMGlobalObjectEPT0_@Base 2.2.0
 (optional=templinst|arch=s390x)_ZN7WebCore13createWrapperINS_20JSHTMLDetailsElementENS_18HTMLDetailsElementEEEPNS_12JSDOMWrapperEPN3JSC9ExecStateEPNS_17JSDOMGlobalObjectEPT0_@Base 2.2.0
 (optional=templinst|arch=s390x)_ZN7WebCore13createWrapperINS_20JSHTMLHeadingElementENS_18HTMLHeadingElementEEEPNS_12JSDOMWrapperEPN3JSC9ExecStateEPNS_17JSDOMGlobalObjectEPT0_@Base 2.2.0
 (optional=templinst|arch=s390x)_ZN7WebCore13createWrapperINS_20JSHTMLIsIndexElementENS_18HTMLIsIndexElementEEEPNS_12JSDOMWrapperEPN3JSC9ExecStateEPNS_17JSDOMGlobalObjectEPT0_@Base 2.2.0
 (optional=templinst|arch=s390x)_ZN7WebCore13createWrapperINS_20JSHTMLMarqueeElementENS_18HTMLMarqueeElementEEEPNS_12JSDOMWrapperEPN3JSC9ExecStateEPNS_17JSDOMGlobalObjectEPT0_@Base 2.2.0
 (optional=templinst|arch=s390x)_ZN7WebCore13createWrapperINS_20JSInjectedScriptHostENS_18InjectedScriptHostEEEPNS_12JSDOMWrapperEPN3JSC9ExecStateEPNS_17JSDOMGlobalObjectEPT0_@Base 2.2.0
 (optional=templinst|arch=s390x)_ZN7WebCore13createWrapperINS_20JSNotificationCenterENS_18NotificationCenterEEEPNS_12JSDOMWrapperEPN3JSC9ExecStateEPNS_17JSDOMGlobalObjectEPT0_@Base 2.2.0
 (optional=templinst|arch=s390x)_ZN7WebCore13createWrapperINS_20JSSQLTransactionSyncENS_18SQLTransactionSyncEEEPNS_12JSDOMWrapperEPN3JSC9ExecStateEPNS_17JSDOMGlobalObjectEPT0_@Base 2.2.0
 (optional=templinst|arch=s390x)_ZN7WebCore13createWrapperINS_20JSSVGAltGlyphElementENS_18SVGAltGlyphElementEEEPNS_12JSDOMWrapperEPN3JSC9ExecStateEPNS_17JSDOMGlobalObjectEPT0_@Base 2.2.0
 (optional=templinst|arch=s390x)_ZN7WebCore13createWrapperINS_20JSSVGAnimatedBooleanENS_32SVGAnimatedStaticPropertyTearOffIbEEEEPNS_12JSDOMWrapperEPN3JSC9ExecStateEPNS_17JSDOMGlobalObjectEPT0_@Base 2.2.0
 (optional=templinst|arch=s390x)_ZN7WebCore13createWrapperINS_20JSSVGAnimatedIntegerENS_32SVGAnimatedStaticPropertyTearOffIlEEEEPNS_12JSDOMWrapperEPN3JSC9ExecStateEPNS_17JSDOMGlobalObjectEPT0_@Base 2.2.0
 (optional=templinst|arch=s390x)_ZN7WebCore13createWrapperINS_20JSSVGClipPathElementENS_18SVGClipPathElementEEEPNS_12JSDOMWrapperEPN3JSC9ExecStateEPNS_17JSDOMGlobalObjectEPT0_@Base 2.2.0
 (optional=templinst|arch=s390x)_ZN7WebCore13createWrapperINS_20JSSVGElementInstanceENS_18SVGElementInstanceEEEPNS_12JSDOMWrapperEPN3JSC9ExecStateEPNS_17JSDOMGlobalObjectEPT0_@Base 2.2.0
 (optional=templinst|arch=s390x)_ZN7WebCore13createWrapperINS_20JSSVGFEOffsetElementENS_18SVGFEOffsetElementEEEPNS_12JSDOMWrapperEPN3JSC9ExecStateEPNS_17JSDOMGlobalObjectEPT0_@Base 2.2.0
 (optional=templinst|arch=s390x)_ZN7WebCore13createWrapperINS_20JSSVGFontFaceElementENS_18SVGFontFaceElementEEEPNS_12JSDOMWrapperEPN3JSC9ExecStateEPNS_17JSDOMGlobalObjectEPT0_@Base 2.2.0
 (optional=templinst|arch=s390x)_ZN7WebCore13createWrapperINS_20JSSVGMetadataElementENS_18SVGMetadataElementEEEPNS_12JSDOMWrapperEPN3JSC9ExecStateEPNS_17JSDOMGlobalObjectEPT0_@Base 2.2.0
 (optional=templinst|arch=s390x)_ZN7WebCore13createWrapperINS_20JSSVGPolylineElementENS_18SVGPolylineElementEEEPNS_12JSDOMWrapperEPN3JSC9ExecStateEPNS_17JSDOMGlobalObjectEPT0_@Base 2.2.0
 (optional=templinst|arch=s390x)_ZN7WebCore13createWrapperINS_20JSSVGRenderingIntentENS_18SVGRenderingIntentEEEPNS_12JSDOMWrapperEPN3JSC9ExecStateEPNS_17JSDOMGlobalObjectEPT0_@Base 2.2.0
 (optional=templinst|arch=s390x)_ZN7WebCore13createWrapperINS_20JSSVGTextPathElementENS_18SVGTextPathElementEEEPNS_12JSDOMWrapperEPN3JSC9ExecStateEPNS_17JSDOMGlobalObjectEPT0_@Base 2.2.0
 (optional=templinst|arch=s390x)_ZN7WebCore13createWrapperINS_21JSCSSStyleDeclarationENS_19CSSStyleDeclarationEEEPNS_12JSDOMWrapperEPN3JSC9ExecStateEPNS_17JSDOMGlobalObjectEPT0_@Base 2.2.0
 (optional=templinst|arch=s390x)_ZN7WebCore13createWrapperINS_21JSDOMApplicationCacheENS_19DOMApplicationCacheEEEPNS_12JSDOMWrapperEPN3JSC9ExecStateEPNS_17JSDOMGlobalObjectEPT0_@Base 2.2.0
 (optional=templinst|arch=s390x)_ZN7WebCore13createWrapperINS_21JSHTMLBaseFontElementENS_19HTMLBaseFontElementEEEPNS_12JSDOMWrapperEPN3JSC9ExecStateEPNS_17JSDOMGlobalObjectEPT0_@Base 2.2.0
 (optional=templinst|arch=s390x)_ZN7WebCore13createWrapperINS_21JSHTMLDataListElementENS_19HTMLDataListElementEEEPNS_12JSDOMWrapperEPN3JSC9ExecStateEPNS_17JSDOMGlobalObjectEPT0_@Base 2.2.0
 (optional=templinst|arch=s390x)_ZN7WebCore13createWrapperINS_21JSHTMLFieldSetElementENS_19HTMLFieldSetElementEEEPNS_12JSDOMWrapperEPN3JSC9ExecStateEPNS_17JSDOMGlobalObjectEPT0_@Base 2.2.0
 (optional=templinst|arch=s390x)_ZN7WebCore13createWrapperINS_21JSHTMLFrameSetElementENS_19HTMLFrameSetElementEEEPNS_12JSDOMWrapperEPN3JSC9ExecStateEPNS_17JSDOMGlobalObjectEPT0_@Base 2.2.0
 (optional=templinst|arch=s390x)_ZN7WebCore13createWrapperINS_21JSHTMLOptGroupElementENS_19HTMLOptGroupElementEEEPNS_12JSDOMWrapperEPN3JSC9ExecStateEPNS_17JSDOMGlobalObjectEPT0_@Base 2.2.0
 (optional=templinst|arch=s390x)_ZN7WebCore13createWrapperINS_21JSHTMLProgressElementENS_19HTMLProgressElementEEEPNS_12JSDOMWrapperEPN3JSC9ExecStateEPNS_17JSDOMGlobalObjectEPT0_@Base 2.2.0
 (optional=templinst|arch=s390x)_ZN7WebCore13createWrapperINS_21JSHTMLTableColElementENS_19HTMLTableColElementEEEPNS_12JSDOMWrapperEPN3JSC9ExecStateEPNS_17JSDOMGlobalObjectEPT0_@Base 2.2.0
 (optional=templinst|arch=s390x)_ZN7WebCore13createWrapperINS_21JSHTMLTableRowElementENS_19HTMLTableRowElementEEEPNS_12JSDOMWrapperEPN3JSC9ExecStateEPNS_17JSDOMGlobalObjectEPT0_@Base 2.2.0
 (optional=templinst|arch=s390x)_ZN7WebCore13createWrapperINS_21JSHTMLTextAreaElementENS_19HTMLTextAreaElementEEEPNS_12JSDOMWrapperEPN3JSC9ExecStateEPNS_17JSDOMGlobalObjectEPT0_@Base 2.2.0
 (optional=templinst|arch=s390x)_ZN7WebCore13createWrapperINS_21JSJavaScriptCallFrameENS_19JavaScriptCallFrameEEEPNS_12JSDOMWrapperEPN3JSC9ExecStateEPNS_17JSDOMGlobalObjectEPT0_@Base 2.2.0
 (optional=templinst|arch=s390x)_ZN7WebCore13createWrapperINS_21JSSQLResultSetRowListENS_19SQLResultSetRowListEEEPNS_12JSDOMWrapperEPN3JSC9ExecStateEPNS_17JSDOMGlobalObjectEPT0_@Base 2.2.0
 (optional=templinst|arch=s390x)_ZN7WebCore13createWrapperINS_21JSWebKitAnimationListENS_19WebKitAnimationListEEEPNS_12JSDOMWrapperEPN3JSC9ExecStateEPNS_17JSDOMGlobalObjectEPT0_@Base 2.2.0
 (optional=templinst|arch=s390x)_ZN7WebCore13createWrapperINS_22JSHTMLDirectoryElementENS_20HTMLDirectoryElementEEEPNS_12JSDOMWrapperEPN3JSC9ExecStateEPNS_17JSDOMGlobalObjectEPT0_@Base 2.2.0
 (optional=templinst|arch=s390x)_ZN7WebCore13createWrapperINS_22JSHTMLParagraphElementENS_20HTMLParagraphElementEEEPNS_12JSDOMWrapperEPN3JSC9ExecStateEPNS_17JSDOMGlobalObjectEPT0_@Base 2.2.0
 (optional=templinst|arch=s390x)_ZN7WebCore13createWrapperINS_22JSHTMLTableCellElementENS_20HTMLTableCellElementEEEPNS_12JSDOMWrapperEPN3JSC9ExecStateEPNS_17JSDOMGlobalObjectEPT0_@Base 2.2.0
 (optional=templinst|arch=s390x)_ZN7WebCore13createWrapperINS_22JSXMLHttpRequestUploadENS_20XMLHttpRequestUploadEEEPNS_12JSDOMWrapperEPN3JSC9ExecStateEPNS_17JSDOMGlobalObjectEPT0_@Base 2.2.0
 (optional=templinst|arch=s390x)_ZN7WebCore13createWrapperINS_23JSHTMLBlockquoteElementENS_21HTMLBlockquoteElementEEEPNS_12JSDOMWrapperEPN3JSC9ExecStateEPNS_17JSDOMGlobalObjectEPT0_@Base 2.2.0
 (optional=templinst|arch=s390x)_ZN7WebCore13createWrapperINS_23JSInspectorFrontendHostENS_21InspectorFrontendHostEEEPNS_12JSDOMWrapperEPN3JSC9ExecStateEPNS_17JSDOMGlobalObjectEPT0_@Base 2.2.0
 (optional=templinst|arch=s390x)_ZN7WebCore13createWrapperINS_23JSSVGAnimatedLengthListENS_30SVGAnimatedListPropertyTearOffINS_13SVGLengthListEEEEEPNS_12JSDOMWrapperEPN3JSC9ExecStateEPNS_17JSDOMGlobalObjectEPT0_@Base 2.2.0
 (optional=templinst|arch=s390x)_ZN7WebCore13createWrapperINS_23JSSVGAnimatedNumberListENS_30SVGAnimatedListPropertyTearOffINS_13SVGNumberListEEEEEPNS_12JSDOMWrapperEPN3JSC9ExecStateEPNS_17JSDOMGlobalObjectEPT0_@Base 2.2.0
 (optional=templinst|arch=s390x)_ZN7WebCore13createWrapperINS_23JSSVGFECompositeElementENS_21SVGFECompositeElementEEEPNS_12JSDOMWrapperEPN3JSC9ExecStateEPNS_17JSDOMGlobalObjectEPT0_@Base 2.2.0
 (optional=templinst|arch=s390x)_ZN7WebCore13createWrapperINS_23JSSVGFEMergeNodeElementENS_21SVGFEMergeNodeElementEEEPNS_12JSDOMWrapperEPN3JSC9ExecStateEPNS_17JSDOMGlobalObjectEPT0_@Base 2.2.0
 (optional=templinst|arch=s390x)_ZN7WebCore13createWrapperINS_23JSSVGFESpotLightElementENS_21SVGFESpotLightElementEEEPNS_12JSDOMWrapperEPN3JSC9ExecStateEPNS_17JSDOMGlobalObjectEPT0_@Base 2.2.0
 (optional=templinst|arch=s390x)_ZN7WebCore13createWrapperINS_23JSSVGFontFaceSrcElementENS_21SVGFontFaceSrcElementEEEPNS_12JSDOMWrapperEPN3JSC9ExecStateEPNS_17JSDOMGlobalObjectEPT0_@Base 2.2.0
 (optional=templinst|arch=s390x)_ZN7WebCore13createWrapperINS_23JSSVGFontFaceUriElementENS_21SVGFontFaceUriElementEEEPNS_12JSDOMWrapperEPN3JSC9ExecStateEPNS_17JSDOMGlobalObjectEPT0_@Base 2.2.0
 (optional=templinst|arch=s390x)_ZN7WebCore13createWrapperINS_24JSSVGAnimateColorElementENS_22SVGAnimateColorElementEEEPNS_12JSDOMWrapperEPN3JSC9ExecStateEPNS_17JSDOMGlobalObjectEPT0_@Base 2.2.0
 (optional=templinst|arch=s390x)_ZN7WebCore13createWrapperINS_24JSSVGAnimatedEnumerationENS_32SVGAnimatedStaticPropertyTearOffIiEEEEPNS_12JSDOMWrapperEPN3JSC9ExecStateEPNS_17JSDOMGlobalObjectEPT0_@Base 2.2.0
 (optional=templinst|arch=s390x)_ZN7WebCore13createWrapperINS_24JSSVGElementInstanceListENS_22SVGElementInstanceListEEEPNS_12JSDOMWrapperEPN3JSC9ExecStateEPNS_17JSDOMGlobalObjectEPT0_@Base 2.2.0
 (optional=templinst|arch=s390x)_ZN7WebCore13createWrapperINS_24JSSVGFEDropShadowElementENS_22SVGFEDropShadowElementEEEPNS_12JSDOMWrapperEPN3JSC9ExecStateEPNS_17JSDOMGlobalObjectEPT0_@Base 2.2.0
 (optional=templinst|arch=s390x)_ZN7WebCore13createWrapperINS_24JSSVGFEMorphologyElementENS_22SVGFEMorphologyElementEEEPNS_12JSDOMWrapperEPN3JSC9ExecStateEPNS_17JSDOMGlobalObjectEPT0_@Base 2.2.0
 (optional=templinst|arch=s390x)_ZN7WebCore13createWrapperINS_24JSSVGFEPointLightElementENS_22SVGFEPointLightElementEEEPNS_12JSDOMWrapperEPN3JSC9ExecStateEPNS_17JSDOMGlobalObjectEPT0_@Base 2.2.0
 (optional=templinst|arch=s390x)_ZN7WebCore13createWrapperINS_24JSSVGFETurbulenceElementENS_22SVGFETurbulenceElementEEEPNS_12JSDOMWrapperEPN3JSC9ExecStateEPNS_17JSDOMGlobalObjectEPT0_@Base 2.2.0
 (optional=templinst|arch=s390x)_ZN7WebCore13createWrapperINS_24JSSVGFontFaceNameElementENS_22SVGFontFaceNameElementEEEPNS_12JSDOMWrapperEPN3JSC9ExecStateEPNS_17JSDOMGlobalObjectEPT0_@Base 2.2.0
 (optional=templinst|arch=s390x)_ZN7WebCore13createWrapperINS_24JSSVGMissingGlyphElementENS_22SVGMissingGlyphElementEEEPNS_12JSDOMWrapperEPN3JSC9ExecStateEPNS_17JSDOMGlobalObjectEPT0_@Base 2.2.0
 (optional=templinst|arch=s390x)_ZN7WebCore13createWrapperINS_24JSSVGPreserveAspectRatioENS_18SVGPropertyTearOffINS_22SVGPreserveAspectRatioEEEEEPNS_12JSDOMWrapperEPN3JSC9ExecStateEPNS_17JSDOMGlobalObjectEPT0_@Base 2.2.0
 (optional=templinst|arch=s390x)_ZN7WebCore13createWrapperINS_25JSHTMLTableCaptionElementENS_23HTMLTableCaptionElementEEEPNS_12JSDOMWrapperEPN3JSC9ExecStateEPNS_17JSDOMGlobalObjectEPT0_@Base 2.2.0
 (optional=templinst|arch=s390x)_ZN7WebCore13createWrapperINS_25JSHTMLTableSectionElementENS_23HTMLTableSectionElementEEEPNS_12JSDOMWrapperEPN3JSC9ExecStateEPNS_17JSDOMGlobalObjectEPT0_@Base 2.2.0
 (optional=templinst|arch=s390x)_ZN7WebCore13createWrapperINS_25JSSVGFEColorMatrixElementENS_23SVGFEColorMatrixElementEEEPNS_12JSDOMWrapperEPN3JSC9ExecStateEPNS_17JSDOMGlobalObjectEPT0_@Base 2.2.0
 (optional=templinst|arch=s390x)_ZN7WebCore13createWrapperINS_25JSSVGForeignObjectElementENS_23SVGForeignObjectElementEEEPNS_12JSDOMWrapperEPN3JSC9ExecStateEPNS_17JSDOMGlobalObjectEPT0_@Base 2.2.0
 (optional=templinst|arch=s390x)_ZN7WebCore13createWrapperINS_25JSXMLHttpRequestExceptionENS_23XMLHttpRequestExceptionEEEPNS_12JSDOMWrapperEPN3JSC9ExecStateEPNS_17JSDOMGlobalObjectEPT0_@Base 2.2.0
 (optional=templinst|arch=s390x)_ZN7WebCore13createWrapperINS_26JSSVGAnimatedTransformListENS_39SVGAnimatedTransformListPropertyTearOffEEEPNS_12JSDOMWrapperEPN3JSC9ExecStateEPNS_17JSDOMGlobalObjectEPT0_@Base 2.2.0
 (optional=templinst|arch=s390x)_ZN7WebCore13createWrapperINS_26JSSVGFEDistantLightElementENS_24SVGFEDistantLightElementEEEPNS_12JSDOMWrapperEPN3JSC9ExecStateEPNS_17JSDOMGlobalObjectEPT0_@Base 2.2.0
 (optional=templinst|arch=s390x)_ZN7WebCore13createWrapperINS_26JSSVGFEGaussianBlurElementENS_24SVGFEGaussianBlurElementEEEPNS_12JSDOMWrapperEPN3JSC9ExecStateEPNS_17JSDOMGlobalObjectEPT0_@Base 2.2.0
 (optional=templinst|arch=s390x)_ZN7WebCore13createWrapperINS_26JSSVGFontFaceFormatElementENS_24SVGFontFaceFormatElementEEEPNS_12JSDOMWrapperEPN3JSC9ExecStateEPNS_17JSDOMGlobalObjectEPT0_@Base 2.2.0
 (optional=templinst|arch=s390x)_ZN7WebCore13createWrapperINS_26JSSVGLinearGradientElementENS_24SVGLinearGradientElementEEEPNS_12JSDOMWrapperEPN3JSC9ExecStateEPNS_17JSDOMGlobalObjectEPT0_@Base 2.2.0
 (optional=templinst|arch=s390x)_ZN7WebCore13createWrapperINS_26JSSVGRadialGradientElementENS_24SVGRadialGradientElementEEEPNS_12JSDOMWrapperEPN3JSC9ExecStateEPNS_17JSDOMGlobalObjectEPT0_@Base 2.2.0
 (optional=templinst|arch=s390x)_ZN7WebCore13createWrapperINS_28JSSVGAnimateTransformElementENS_26SVGAnimateTransformElementEEEPNS_12JSDOMWrapperEPN3JSC9ExecStateEPNS_17JSDOMGlobalObjectEPT0_@Base 2.2.0
 (optional=templinst|arch=s390x)_ZN7WebCore13createWrapperINS_28JSSVGFEConvolveMatrixElementENS_26SVGFEConvolveMatrixElementEEEPNS_12JSDOMWrapperEPN3JSC9ExecStateEPNS_17JSDOMGlobalObjectEPT0_@Base 2.2.0
 (optional=templinst|arch=s390x)_ZN7WebCore13createWrapperINS_29JSSVGFEDiffuseLightingElementENS_27SVGFEDiffuseLightingElementEEEPNS_12JSDOMWrapperEPN3JSC9ExecStateEPNS_17JSDOMGlobalObjectEPT0_@Base 2.2.0
 (optional=templinst|arch=s390x)_ZN7WebCore13createWrapperINS_29JSSVGFEDisplacementMapElementENS_27SVGFEDisplacementMapElementEEEPNS_12JSDOMWrapperEPN3JSC9ExecStateEPNS_17JSDOMGlobalObjectEPT0_@Base 2.2.0
 (optional=templinst|arch=s390x)_ZN7WebCore13createWrapperINS_30JSSVGFESpecularLightingElementENS_28SVGFESpecularLightingElementEEEPNS_12JSDOMWrapperEPN3JSC9ExecStateEPNS_17JSDOMGlobalObjectEPT0_@Base 2.2.0
 (optional=templinst|arch=s390x)_ZN7WebCore13createWrapperINS_31JSSVGFEComponentTransferElementENS_29SVGFEComponentTransferElementEEEPNS_12JSDOMWrapperEPN3JSC9ExecStateEPNS_17JSDOMGlobalObjectEPT0_@Base 2.2.0
 (optional=templinst|arch=s390x)_ZN7WebCore13createWrapperINS_32JSSVGAnimatedPreserveAspectRatioENS_26SVGAnimatedPropertyTearOffINS_22SVGPreserveAspectRatioEEEEEPNS_12JSDOMWrapperEPN3JSC9ExecStateEPNS_17JSDOMGlobalObjectEPT0_@Base 2.2.0
 (optional=templinst|arch=s390x)_ZN7WebCore13createWrapperINS_6JSBlobENS_4BlobEEEPNS_12JSDOMWrapperEPN3JSC9ExecStateEPNS_17JSDOMGlobalObjectEPT0_@Base 2.2.0
 (optional=templinst|arch=s390x)_ZN7WebCore13createWrapperINS_6JSFileENS_4FileEEEPNS_12JSDOMWrapperEPN3JSC9ExecStateEPNS_17JSDOMGlobalObjectEPT0_@Base 2.2.0
 (optional=templinst|arch=s390x)_ZN7WebCore13createWrapperINS_6JSRectENS_4RectEEEPNS_12JSDOMWrapperEPN3JSC9ExecStateEPNS_17JSDOMGlobalObjectEPT0_@Base 2.2.0
 (optional=templinst|arch=s390x)_ZN7WebCore13createWrapperINS_7JSRangeENS_5RangeEEEPNS_12JSDOMWrapperEPN3JSC9ExecStateEPNS_17JSDOMGlobalObjectEPT0_@Base 2.2.0
 (optional=templinst|arch=s390x)_ZN7WebCore13createWrapperINS_8JSCryptoENS_6CryptoEEEPNS_12JSDOMWrapperEPN3JSC9ExecStateEPNS_17JSDOMGlobalObjectEPT0_@Base 2.2.0
 (optional=templinst|arch=s390x)_ZN7WebCore13createWrapperINS_8JSDOMURLENS_6DOMURLEEEPNS_12JSDOMWrapperEPN3JSC9ExecStateEPNS_17JSDOMGlobalObjectEPT0_@Base 2.2.0
 (optional=templinst|arch=s390x)_ZN7WebCore13createWrapperINS_8JSScreenENS_6ScreenEEEPNS_12JSDOMWrapperEPN3JSC9ExecStateEPNS_17JSDOMGlobalObjectEPT0_@Base 2.2.0
 (optional=templinst|arch=s390x)_ZN7WebCore13createWrapperINS_8JSWorkerENS_6WorkerEEEPNS_12JSDOMWrapperEPN3JSC9ExecStateEPNS_17JSDOMGlobalObjectEPT0_@Base 2.2.0
 (optional=templinst|arch=s390x)_ZN7WebCore13createWrapperINS_9JSBarInfoENS_7BarInfoEEEPNS_12JSDOMWrapperEPN3JSC9ExecStateEPNS_17JSDOMGlobalObjectEPT0_@Base 2.2.0
 (optional=templinst|arch=s390x)_ZN7WebCore13createWrapperINS_9JSConsoleENS_7ConsoleEEEPNS_12JSDOMWrapperEPN3JSC9ExecStateEPNS_17JSDOMGlobalObjectEPT0_@Base 2.2.0
 (optional=templinst|arch=s390x)_ZN7WebCore13createWrapperINS_9JSCounterENS_7CounterEEEPNS_12JSDOMWrapperEPN3JSC9ExecStateEPNS_17JSDOMGlobalObjectEPT0_@Base 2.2.0
 (optional=templinst|arch=s390x)_ZN7WebCore13createWrapperINS_9JSHistoryENS_7HistoryEEEPNS_12JSDOMWrapperEPN3JSC9ExecStateEPNS_17JSDOMGlobalObjectEPT0_@Base 2.2.0
 (optional=templinst|arch=s390x)_ZN7WebCore13createWrapperINS_9JSSVGRectENS_18SVGPropertyTearOffINS_9FloatRectEEEEEPNS_12JSDOMWrapperEPN3JSC9ExecStateEPNS_17JSDOMGlobalObjectEPT0_@Base 2.2.0
 (optional=templinst|arch=s390x)_ZN7WebCore13createWrapperINS_9JSStorageENS_7StorageEEEPNS_12JSDOMWrapperEPN3JSC9ExecStateEPNS_17JSDOMGlobalObjectEPT0_@Base 2.2.0
 (optional=private|arch=s390x)_ZN7WebCore14AbstractWorker10setOnerrorEN3WTF10PassRefPtrINS_13EventListenerEEE@Base 2.2.0
 (optional=private|arch=s390x)_ZN7WebCore14AbstractWorker7onerrorEv@Base 2.2.0
 (optional=private|arch=s390x)_ZN7WebCore14CSSCharsetRule11setEncodingERKN3WTF6StringERi@Base 2.2.0
 (optional=private|arch=s390x)_ZN7WebCore14DOMPluginArray5frameEv@Base 2.2.0
 (optional=private|arch=s390x)_ZN7WebCore14DocumentLoader28setDeferMainResourceDataLoadEb@Base 2.2.0
 (optional=private|arch=s390x)_ZN7WebCore14FileReaderSync10readAsTextEPNS_22ScriptExecutionContextEPNS_4BlobERi@Base 2.2.0
 (optional=private|arch=s390x)_ZN7WebCore14FileReaderSync6createEv@Base 2.2.0
 (optional=private|arch=s390x)_ZN7WebCore14JSBarInfoOwnerC1Ev@Base 2.2.0
 (optional=private|arch=s390x)_ZN7WebCore14JSBarInfoOwnerC2Ev@Base 2.2.0
 (optional=private|arch=s390x)_ZN7WebCore14JSConsoleOwnerC1Ev@Base 2.2.0
 (optional=private|arch=s390x)_ZN7WebCore14JSConsoleOwnerC2Ev@Base 2.2.0
 (optional=private|arch=s390x)_ZN7WebCore14JSDOMSelection15createStructureERN3JSC12JSGlobalDataENS1_7JSValueE@Base 2.2.0
 (optional=private|arch=s390x)_ZN7WebCore14JSDOMStringMap15createStructureERN3JSC12JSGlobalDataENS1_7JSValueE@Base 2.2.0
 (optional=private|arch=s390x)_ZN7WebCore14JSDOMTokenList15createStructureERN3JSC12JSGlobalDataENS1_7JSValueE@Base 2.2.0
 (optional=private|arch=s390x)_ZN7WebCore14JSDatabaseSync15createStructureERN3JSC12JSGlobalDataENS1_7JSValueE@Base 2.2.0
 (optional=private|arch=s390x)_ZN7WebCore14JSErrorHandler6createEPN3JSC8JSObjectES3_bPNS_15DOMWrapperWorldE@Base 2.2.0
 (optional=private|arch=s390x)_ZN7WebCore14JSNamedNodeMap15createStructureERN3JSC12JSGlobalDataENS1_7JSValueE@Base 2.2.0
 (optional=private|arch=s390x)_ZN7WebCore14JSNodeIterator15createStructureERN3JSC12JSGlobalDataENS1_7JSValueE@Base 2.2.0
 (optional=private|arch=s390x)_ZN7WebCore14JSNotification15createStructureERN3JSC12JSGlobalDataENS1_7JSValueE@Base 2.2.0
 (optional=private|arch=s390x)_ZN7WebCore14JSSQLException15createStructureERN3JSC12JSGlobalDataENS1_7JSValueE@Base 2.2.0
 (optional=private|arch=s390x)_ZN7WebCore14JSSQLResultSet15createStructureERN3JSC12JSGlobalDataENS1_7JSValueE@Base 2.2.0
 (optional=private|arch=s390x)_ZN7WebCore14JSSVGException15createStructureERN3JSC12JSGlobalDataENS1_7JSValueE@Base 2.2.0
 (optional=private|arch=s390x)_ZN7WebCore14JSSVGPointList15createStructureERN3JSC12JSGlobalDataENS1_7JSValueE@Base 2.2.0
 (optional=private|arch=s390x)_ZN7WebCore14JSSVGTransform15createStructureERN3JSC12JSGlobalDataENS1_7JSValueE@Base 2.2.0
 (optional=private|arch=s390x)_ZN7WebCore14JSSVGUnitTypes15createStructureERN3JSC12JSGlobalDataENS1_7JSValueE@Base 2.2.0
 (optional=private|arch=s390x)_ZN7WebCore14JSSharedWorker15createStructureERN3JSC12JSGlobalDataENS1_7JSValueE@Base 2.2.0
 (optional=private|arch=s390x)_ZN7WebCore14JSStorageOwnerC1Ev@Base 2.2.0
 (optional=private|arch=s390x)_ZN7WebCore14JSStorageOwnerC2Ev@Base 2.2.0
 (optional=private|arch=s390x)_ZN7WebCore14JSVoidCallback15createStructureERN3JSC12JSGlobalDataENS1_7JSValueE@Base 2.2.0
 (optional=private|arch=s390x)_ZN7WebCore14PluginStrategyC1Ev@Base 2.2.0
 (optional=private|arch=s390x)_ZN7WebCore14PluginStrategyC2Ev@Base 2.2.0
 (optional=private|arch=s390x)_ZN7WebCore14QtPluginWidget16handleVisibilityEv@Base 2.2.0
 (optional=private|arch=s390x)_ZN7WebCore14QtPluginWidgetC1EP7QWidget@Base 2.2.0
 (optional=private|arch=s390x)_ZN7WebCore14QtPluginWidgetC2EP7QWidget@Base 2.2.0
 (optional=private|arch=s390x)_ZN7WebCore14StringCallbackC1Ev@Base 2.2.0
 (optional=private|arch=s390x)_ZN7WebCore14StringCallbackC2Ev@Base 2.2.0
 (optional=private|arch=s390x)_ZN7WebCore14StyleSheetList8documentEv@Base 2.2.0
 (optional=private|arch=s390x)_ZN7WebCore14XMLHttpRequest10onprogressEv@Base 2.2.0
 (optional=private|arch=s390x)_ZN7WebCore14XMLHttpRequest10setOnabortEN3WTF10PassRefPtrINS_13EventListenerEEE@Base 2.2.0
 (optional=private|arch=s390x)_ZN7WebCore14XMLHttpRequest10setOnerrorEN3WTF10PassRefPtrINS_13EventListenerEEE@Base 2.2.0
 (optional=private|arch=s390x)_ZN7WebCore14XMLHttpRequest11onloadstartEv@Base 2.2.0
 (optional=private|arch=s390x)_ZN7WebCore14XMLHttpRequest13setOnprogressEN3WTF10PassRefPtrINS_13EventListenerEEE@Base 2.2.0
 (optional=private|arch=s390x)_ZN7WebCore14XMLHttpRequest14setOnloadstartEN3WTF10PassRefPtrINS_13EventListenerEEE@Base 2.2.0
 (optional=private|arch=s390x)_ZN7WebCore14XMLHttpRequest18onreadystatechangeEv@Base 2.2.0
 (optional=private|arch=s390x)_ZN7WebCore14XMLHttpRequest21setOnreadystatechangeEN3WTF10PassRefPtrINS_13EventListenerEEE@Base 2.2.0
 (optional=private|arch=s390x)_ZN7WebCore14XMLHttpRequest6onloadEv@Base 2.2.0
 (optional=private|arch=s390x)_ZN7WebCore14XMLHttpRequest7onabortEv@Base 2.2.0
 (optional=private|arch=s390x)_ZN7WebCore14XMLHttpRequest7onerrorEv@Base 2.2.0
 (optional=private|arch=s390x)_ZN7WebCore14XMLHttpRequest9setOnloadEN3WTF10PassRefPtrINS_13EventListenerEEE@Base 2.2.0
 (optional=templinst|arch=s390x)_ZN7WebCore14uncacheWrapperINS_10FileReaderEEEvPNS_15DOMWrapperWorldEPT_PNS_12JSDOMWrapperE@Base 2.2.0
 (optional=templinst|arch=s390x)_ZN7WebCore14uncacheWrapperINS_10StyleMediaEEEvPNS_15DOMWrapperWorldEPT_PNS_12JSDOMWrapperE@Base 2.2.0
 (optional=templinst|arch=s390x)_ZN7WebCore14uncacheWrapperINS_10StyleSheetEEEvPNS_15DOMWrapperWorldEPT_PNS_12JSDOMWrapperE@Base 2.2.0
 (optional=templinst|arch=s390x)_ZN7WebCore14uncacheWrapperINS_11ArrayBufferEEEvPNS_15DOMWrapperWorldEPT_PNS_12JSDOMWrapperE@Base 2.2.0
 (optional=templinst|arch=s390x)_ZN7WebCore14uncacheWrapperINS_11CSSRuleListEEEvPNS_15DOMWrapperWorldEPT_PNS_12JSDOMWrapperE@Base 2.2.0
 (optional=templinst|arch=s390x)_ZN7WebCore14uncacheWrapperINS_11EventSourceEEEvPNS_15DOMWrapperWorldEPT_PNS_12JSDOMWrapperE@Base 2.2.0
 (optional=templinst|arch=s390x)_ZN7WebCore14uncacheWrapperINS_11MessagePortEEEvPNS_15DOMWrapperWorldEPT_PNS_12JSDOMWrapperE@Base 2.2.0
 (optional=templinst|arch=s390x)_ZN7WebCore14uncacheWrapperINS_12DOMSelectionEEEvPNS_15DOMWrapperWorldEPT_PNS_12JSDOMWrapperE@Base 2.2.0
 (optional=templinst|arch=s390x)_ZN7WebCore14uncacheWrapperINS_12DOMStringMapEEEvPNS_15DOMWrapperWorldEPT_PNS_12JSDOMWrapperE@Base 2.2.0
 (optional=templinst|arch=s390x)_ZN7WebCore14uncacheWrapperINS_12DOMTokenListEEEvPNS_15DOMWrapperWorldEPT_PNS_12JSDOMWrapperE@Base 2.2.0
 (optional=templinst|arch=s390x)_ZN7WebCore14uncacheWrapperINS_12NamedNodeMapEEEvPNS_15DOMWrapperWorldEPT_PNS_12JSDOMWrapperE@Base 2.2.0
 (optional=templinst|arch=s390x)_ZN7WebCore14uncacheWrapperINS_12NotificationEEEvPNS_15DOMWrapperWorldEPT_PNS_12JSDOMWrapperE@Base 2.2.0
 (optional=templinst|arch=s390x)_ZN7WebCore14uncacheWrapperINS_12SharedWorkerEEEvPNS_15DOMWrapperWorldEPT_PNS_12JSDOMWrapperE@Base 2.2.0
 (optional=templinst|arch=s390x)_ZN7WebCore14uncacheWrapperINS_14AbstractWorkerEEEvPNS_15DOMWrapperWorldEPT_PNS_12JSDOMWrapperE@Base 2.2.0
 (optional=templinst|arch=s390x)_ZN7WebCore14uncacheWrapperINS_14DOMPluginArrayEEEvPNS_15DOMWrapperWorldEPT_PNS_12JSDOMWrapperE@Base 2.2.0
 (optional=templinst|arch=s390x)_ZN7WebCore14uncacheWrapperINS_14HTMLCollectionEEEvPNS_15DOMWrapperWorldEPT_PNS_12JSDOMWrapperE@Base 2.2.0
 (optional=templinst|arch=s390x)_ZN7WebCore14uncacheWrapperINS_14StyleSheetListEEEvPNS_15DOMWrapperWorldEPT_PNS_12JSDOMWrapperE@Base 2.2.0
 (optional=templinst|arch=s390x)_ZN7WebCore14uncacheWrapperINS_14WorkerLocationEEEvPNS_15DOMWrapperWorldEPT_PNS_12JSDOMWrapperE@Base 2.2.0
 (optional=templinst|arch=s390x)_ZN7WebCore14uncacheWrapperINS_14XMLHttpRequestEEEvPNS_15DOMWrapperWorldEPT_PNS_12JSDOMWrapperE@Base 2.2.0
 (optional=templinst|arch=s390x)_ZN7WebCore14uncacheWrapperINS_15WorkerNavigatorEEEvPNS_15DOMWrapperWorldEPT_PNS_12JSDOMWrapperE@Base 2.2.0
 (optional=templinst|arch=s390x)_ZN7WebCore14uncacheWrapperINS_16DOMMimeTypeArrayEEEvPNS_15DOMWrapperWorldEPT_PNS_12JSDOMWrapperE@Base 2.2.0
 (optional=templinst|arch=s390x)_ZN7WebCore14uncacheWrapperINS_17DOMImplementationEEEvPNS_15DOMWrapperWorldEPT_PNS_12JSDOMWrapperE@Base 2.2.0
 (optional=templinst|arch=s390x)_ZN7WebCore14uncacheWrapperINS_18NotificationCenterEEEvPNS_15DOMWrapperWorldEPT_PNS_12JSDOMWrapperE@Base 2.2.0
 (optional=templinst|arch=s390x)_ZN7WebCore14uncacheWrapperINS_19CSSStyleDeclarationEEEvPNS_15DOMWrapperWorldEPT_PNS_12JSDOMWrapperE@Base 2.2.0
 (optional=templinst|arch=s390x)_ZN7WebCore14uncacheWrapperINS_19DOMApplicationCacheEEEvPNS_15DOMWrapperWorldEPT_PNS_12JSDOMWrapperE@Base 2.2.0
 (optional=templinst|arch=s390x)_ZN7WebCore14uncacheWrapperINS_20XMLHttpRequestUploadEEEvPNS_15DOMWrapperWorldEPT_PNS_12JSDOMWrapperE@Base 2.2.0
 (optional=templinst|arch=s390x)_ZN7WebCore14uncacheWrapperINS_22CanvasRenderingContextEEEvPNS_15DOMWrapperWorldEPT_PNS_12JSDOMWrapperE@Base 2.2.0
 (optional=templinst|arch=s390x)_ZN7WebCore14uncacheWrapperINS_4BlobEEEvPNS_15DOMWrapperWorldEPT_PNS_12JSDOMWrapperE@Base 2.2.0
 (optional=templinst|arch=s390x)_ZN7WebCore14uncacheWrapperINS_6ScreenEEEvPNS_15DOMWrapperWorldEPT_PNS_12JSDOMWrapperE@Base 2.2.0
 (optional=templinst|arch=s390x)_ZN7WebCore14uncacheWrapperINS_6WorkerEEEvPNS_15DOMWrapperWorldEPT_PNS_12JSDOMWrapperE@Base 2.2.0
 (optional=templinst|arch=s390x)_ZN7WebCore14uncacheWrapperINS_7BarInfoEEEvPNS_15DOMWrapperWorldEPT_PNS_12JSDOMWrapperE@Base 2.2.0
 (optional=templinst|arch=s390x)_ZN7WebCore14uncacheWrapperINS_7CSSRuleEEEvPNS_15DOMWrapperWorldEPT_PNS_12JSDOMWrapperE@Base 2.2.0
 (optional=templinst|arch=s390x)_ZN7WebCore14uncacheWrapperINS_7ConsoleEEEvPNS_15DOMWrapperWorldEPT_PNS_12JSDOMWrapperE@Base 2.2.0
 (optional=templinst|arch=s390x)_ZN7WebCore14uncacheWrapperINS_7HistoryEEEvPNS_15DOMWrapperWorldEPT_PNS_12JSDOMWrapperE@Base 2.2.0
 (optional=templinst|arch=s390x)_ZN7WebCore14uncacheWrapperINS_7StorageEEEvPNS_15DOMWrapperWorldEPT_PNS_12JSDOMWrapperE@Base 2.2.0
 (optional=templinst|arch=s390x)_ZN7WebCore14uncacheWrapperINS_8LocationEEEvPNS_15DOMWrapperWorldEPT_PNS_12JSDOMWrapperE@Base 2.2.0
 (optional=templinst|arch=s390x)_ZN7WebCore14uncacheWrapperINS_8NodeListEEEvPNS_15DOMWrapperWorldEPT_PNS_12JSDOMWrapperE@Base 2.2.0
 (optional=templinst|arch=s390x)_ZN7WebCore14uncacheWrapperINS_9MediaListEEEvPNS_15DOMWrapperWorldEPT_PNS_12JSDOMWrapperE@Base 2.2.0
 (optional=templinst|arch=s390x)_ZN7WebCore14uncacheWrapperINS_9NavigatorEEEvPNS_15DOMWrapperWorldEPT_PNS_12JSDOMWrapperE@Base 2.2.0
 (optional=templinst|arch=s390x)_ZN7WebCore14uncacheWrapperINS_9WebSocketEEEvPNS_15DOMWrapperWorldEPT_PNS_12JSDOMWrapperE@Base 2.2.0
 (optional=private|arch=s390x)_ZN7WebCore14wrapperContextEPNS_15DOMWrapperWorldEPNS_10FileReaderE@Base 2.2.0
 (optional=private|arch=s390x)_ZN7WebCore14wrapperContextEPNS_15DOMWrapperWorldEPNS_10StyleMediaE@Base 2.2.0
 (optional=private|arch=s390x)_ZN7WebCore14wrapperContextEPNS_15DOMWrapperWorldEPNS_11ArrayBufferE@Base 2.2.0
 (optional=private|arch=s390x)_ZN7WebCore14wrapperContextEPNS_15DOMWrapperWorldEPNS_11CSSRuleListE@Base 2.2.0
 (optional=private|arch=s390x)_ZN7WebCore14wrapperContextEPNS_15DOMWrapperWorldEPNS_11EventSourceE@Base 2.2.0
 (optional=private|arch=s390x)_ZN7WebCore14wrapperContextEPNS_15DOMWrapperWorldEPNS_11MessagePortE@Base 2.2.0
 (optional=private|arch=s390x)_ZN7WebCore14wrapperContextEPNS_15DOMWrapperWorldEPNS_12DOMSelectionE@Base 2.2.0
 (optional=private|arch=s390x)_ZN7WebCore14wrapperContextEPNS_15DOMWrapperWorldEPNS_12DOMStringMapE@Base 2.2.0
 (optional=private|arch=s390x)_ZN7WebCore14wrapperContextEPNS_15DOMWrapperWorldEPNS_12DOMTokenListE@Base 2.2.0
 (optional=private|arch=s390x)_ZN7WebCore14wrapperContextEPNS_15DOMWrapperWorldEPNS_12NamedNodeMapE@Base 2.2.0
 (optional=private|arch=s390x)_ZN7WebCore14wrapperContextEPNS_15DOMWrapperWorldEPNS_12NotificationE@Base 2.2.0
 (optional=private|arch=s390x)_ZN7WebCore14wrapperContextEPNS_15DOMWrapperWorldEPNS_12SharedWorkerE@Base 2.2.0
 (optional=private|arch=s390x)_ZN7WebCore14wrapperContextEPNS_15DOMWrapperWorldEPNS_14DOMPluginArrayE@Base 2.2.0
 (optional=private|arch=s390x)_ZN7WebCore14wrapperContextEPNS_15DOMWrapperWorldEPNS_14StyleSheetListE@Base 2.2.0
 (optional=private|arch=s390x)_ZN7WebCore14wrapperContextEPNS_15DOMWrapperWorldEPNS_14WorkerLocationE@Base 2.2.0
 (optional=private|arch=s390x)_ZN7WebCore14wrapperContextEPNS_15DOMWrapperWorldEPNS_15WorkerNavigatorE@Base 2.2.0
 (optional=private|arch=s390x)_ZN7WebCore14wrapperContextEPNS_15DOMWrapperWorldEPNS_16DOMMimeTypeArrayE@Base 2.2.0
 (optional=private|arch=s390x)_ZN7WebCore14wrapperContextEPNS_15DOMWrapperWorldEPNS_17DOMImplementationE@Base 2.2.0
 (optional=private|arch=s390x)_ZN7WebCore14wrapperContextEPNS_15DOMWrapperWorldEPNS_18NotificationCenterE@Base 2.2.0
 (optional=private|arch=s390x)_ZN7WebCore14wrapperContextEPNS_15DOMWrapperWorldEPNS_19CSSStyleDeclarationE@Base 2.2.0
 (optional=private|arch=s390x)_ZN7WebCore14wrapperContextEPNS_15DOMWrapperWorldEPNS_19DOMApplicationCacheE@Base 2.2.0
 (optional=private|arch=s390x)_ZN7WebCore14wrapperContextEPNS_15DOMWrapperWorldEPNS_20XMLHttpRequestUploadE@Base 2.2.0
 (optional=private|arch=s390x)_ZN7WebCore14wrapperContextEPNS_15DOMWrapperWorldEPNS_4BlobE@Base 2.2.0
 (optional=private|arch=s390x)_ZN7WebCore14wrapperContextEPNS_15DOMWrapperWorldEPNS_6ScreenE@Base 2.2.0
 (optional=private|arch=s390x)_ZN7WebCore14wrapperContextEPNS_15DOMWrapperWorldEPNS_6WorkerE@Base 2.2.0
 (optional=private|arch=s390x)_ZN7WebCore14wrapperContextEPNS_15DOMWrapperWorldEPNS_7BarInfoE@Base 2.2.0
 (optional=private|arch=s390x)_ZN7WebCore14wrapperContextEPNS_15DOMWrapperWorldEPNS_7ConsoleE@Base 2.2.0
 (optional=private|arch=s390x)_ZN7WebCore14wrapperContextEPNS_15DOMWrapperWorldEPNS_7StorageE@Base 2.2.0
 (optional=private|arch=s390x)_ZN7WebCore14wrapperContextEPNS_15DOMWrapperWorldEPNS_8NodeListE@Base 2.2.0
 (optional=private|arch=s390x)_ZN7WebCore14wrapperContextEPNS_15DOMWrapperWorldEPNS_9MediaListE@Base 2.2.0
 (optional=private|arch=s390x)_ZN7WebCore14wrapperContextEPNS_15DOMWrapperWorldEPNS_9NavigatorE@Base 2.2.0
 (optional=private|arch=s390x)_ZN7WebCore15BeforeLoadEvent19initBeforeLoadEventERKN3WTF12AtomicStringEbbRKNS1_6StringE@Base 2.2.0
 (optional=private|arch=s390x)_ZN7WebCore15CookiesStrategyC1Ev@Base 2.2.0
 (optional=private|arch=s390x)_ZN7WebCore15CookiesStrategyC2Ev@Base 2.2.0
 (optional=private|arch=s390x)_ZN7WebCore15HTMLBodyElement10onpopstateEv@Base 2.2.0
 (optional=private|arch=s390x)_ZN7WebCore15HTMLBodyElement11setOnonlineEN3WTF10PassRefPtrINS_13EventListenerEEE@Base 2.2.0
 (optional=private|arch=s390x)_ZN7WebCore15HTMLBodyElement11setOnresizeEN3WTF10PassRefPtrINS_13EventListenerEEE@Base 2.2.0
 (optional=private|arch=s390x)_ZN7WebCore15HTMLBodyElement11setOnunloadEN3WTF10PassRefPtrINS_13EventListenerEEE@Base 2.2.0
 (optional=private|arch=s390x)_ZN7WebCore15HTMLBodyElement12onhashchangeEv@Base 2.2.0
 (optional=private|arch=s390x)_ZN7WebCore15HTMLBodyElement12setOnmessageEN3WTF10PassRefPtrINS_13EventListenerEEE@Base 2.2.0
 (optional=private|arch=s390x)_ZN7WebCore15HTMLBodyElement12setOnofflineEN3WTF10PassRefPtrINS_13EventListenerEEE@Base 2.2.0
 (optional=private|arch=s390x)_ZN7WebCore15HTMLBodyElement12setOnstorageEN3WTF10PassRefPtrINS_13EventListenerEEE@Base 2.2.0
 (optional=private|arch=s390x)_ZN7WebCore15HTMLBodyElement13setOnpopstateEN3WTF10PassRefPtrINS_13EventListenerEEE@Base 2.2.0
 (optional=private|arch=s390x)_ZN7WebCore15HTMLBodyElement14onbeforeunloadEv@Base 2.2.0
 (optional=private|arch=s390x)_ZN7WebCore15HTMLBodyElement15setOnhashchangeEN3WTF10PassRefPtrINS_13EventListenerEEE@Base 2.2.0
 (optional=private|arch=s390x)_ZN7WebCore15HTMLBodyElement17setOnbeforeunloadEN3WTF10PassRefPtrINS_13EventListenerEEE@Base 2.2.0
 (optional=private|arch=s390x)_ZN7WebCore15HTMLBodyElement8ononlineEv@Base 2.2.0
 (optional=private|arch=s390x)_ZN7WebCore15HTMLBodyElement8onresizeEv@Base 2.2.0
 (optional=private|arch=s390x)_ZN7WebCore15HTMLBodyElement8onunloadEv@Base 2.2.0
 (optional=private|arch=s390x)_ZN7WebCore15HTMLBodyElement9onmessageEv@Base 2.2.0
 (optional=private|arch=s390x)_ZN7WebCore15HTMLBodyElement9onofflineEv@Base 2.2.0
 (optional=private|arch=s390x)_ZN7WebCore15HTMLBodyElement9onstorageEv@Base 2.2.0
 (optional=private|arch=s390x)_ZN7WebCore15HTMLFormElement11setEncodingERKN3WTF6StringE@Base 2.2.0
 (optional=private|arch=s390x)_ZN7WebCore15HashChangeEvent19initHashChangeEventERKN3WTF12AtomicStringEbbRKNS1_6StringES7_@Base 2.2.0
 (optional=private|arch=s390x)_ZN7WebCore15JSAttrPrototype15createStructureERN3JSC12JSGlobalDataENS1_7JSValueE@Base 2.2.0
 (optional=private|arch=s390x)_ZN7WebCore15JSAttrPrototypeC1ERN3JSC12JSGlobalDataEPNS1_14JSGlobalObjectEPNS1_9StructureE@Base 2.2.0
 (optional=private|arch=s390x)_ZN7WebCore15JSAttrPrototypeC2ERN3JSC12JSGlobalDataEPNS1_14JSGlobalObjectEPNS1_9StructureE@Base 2.2.0
 (optional=private|arch=s390x)_ZN7WebCore15JSBlobPrototype15createStructureERN3JSC12JSGlobalDataENS1_7JSValueE@Base 2.2.0
 (optional=private|arch=s390x)_ZN7WebCore15JSBlobPrototypeC1ERN3JSC12JSGlobalDataEPNS1_14JSGlobalObjectEPNS1_9StructureE@Base 2.2.0
 (optional=private|arch=s390x)_ZN7WebCore15JSBlobPrototypeC2ERN3JSC12JSGlobalDataEPNS1_14JSGlobalObjectEPNS1_9StructureE@Base 2.2.0
 (optional=private|arch=s390x)_ZN7WebCore15JSCanvasPattern15createStructureERN3JSC12JSGlobalDataENS1_7JSValueE@Base 2.2.0
 (optional=private|arch=s390x)_ZN7WebCore15JSCharacterData15createStructureERN3JSC12JSGlobalDataENS1_7JSValueE@Base 2.2.0
 (optional=private|arch=s390x)_ZN7WebCore15JSDOMStringList15createStructureERN3JSC12JSGlobalDataENS1_7JSValueE@Base 2.2.0
 (optional=private|arch=s390x)_ZN7WebCore15JSFileException15createStructureERN3JSC12JSGlobalDataENS1_7JSValueE@Base 2.2.0
 (optional=private|arch=s390x)_ZN7WebCore15JSFilePrototype15createStructureERN3JSC12JSGlobalDataENS1_7JSValueE@Base 2.2.0
 (optional=private|arch=s390x)_ZN7WebCore15JSFilePrototypeC1ERN3JSC12JSGlobalDataEPNS1_14JSGlobalObjectEPNS1_9StructureE@Base 2.2.0
 (optional=private|arch=s390x)_ZN7WebCore15JSFilePrototypeC2ERN3JSC12JSGlobalDataEPNS1_14JSGlobalObjectEPNS1_9StructureE@Base 2.2.0
 (optional=private|arch=s390x)_ZN7WebCore15JSHTMLBRElement15createStructureERN3JSC12JSGlobalDataENS1_7JSValueE@Base 2.2.0
 (optional=private|arch=s390x)_ZN7WebCore15JSHTMLHRElement15createStructureERN3JSC12JSGlobalDataENS1_7JSValueE@Base 2.2.0
 (optional=private|arch=s390x)_ZN7WebCore15JSHTMLLIElement15createStructureERN3JSC12JSGlobalDataENS1_7JSValueE@Base 2.2.0
 (optional=private|arch=s390x)_ZN7WebCore15JSNodeListOwnerC1Ev@Base 2.2.0
 (optional=private|arch=s390x)_ZN7WebCore15JSNodeListOwnerC2Ev@Base 2.2.0
 (optional=private|arch=s390x)_ZN7WebCore15JSNodePrototype15createStructureERN3JSC12JSGlobalDataENS1_7JSValueE@Base 2.2.0
 (optional=private|arch=s390x)_ZN7WebCore15JSNodePrototypeC1ERN3JSC12JSGlobalDataEPNS1_14JSGlobalObjectEPNS1_9StructureE@Base 2.2.0
 (optional=private|arch=s390x)_ZN7WebCore15JSNodePrototypeC2ERN3JSC12JSGlobalDataEPNS1_14JSGlobalObjectEPNS1_9StructureE@Base 2.2.0
 (optional=private|arch=s390x)_ZN7WebCore15JSRectPrototype15createStructureERN3JSC12JSGlobalDataENS1_7JSValueE@Base 2.2.0
 (optional=private|arch=s390x)_ZN7WebCore15JSRectPrototypeC1ERN3JSC12JSGlobalDataEPNS1_14JSGlobalObjectEPNS1_9StructureE@Base 2.2.0
 (optional=private|arch=s390x)_ZN7WebCore15JSRectPrototypeC2ERN3JSC12JSGlobalDataEPNS1_14JSGlobalObjectEPNS1_9StructureE@Base 2.2.0
 (optional=private|arch=s390x)_ZN7WebCore15JSSVGLengthList15createStructureERN3JSC12JSGlobalDataENS1_7JSValueE@Base 2.2.0
 (optional=private|arch=s390x)_ZN7WebCore15JSSVGNumberList15createStructureERN3JSC12JSGlobalDataENS1_7JSValueE@Base 2.2.0
 (optional=private|arch=s390x)_ZN7WebCore15JSSVGSVGElement15createStructureERN3JSC12JSGlobalDataENS1_7JSValueE@Base 2.2.0
 (optional=private|arch=s390x)_ZN7WebCore15JSSVGSetElement15createStructureERN3JSC12JSGlobalDataENS1_7JSValueE@Base 2.2.0
 (optional=private|arch=s390x)_ZN7WebCore15JSSVGStringList15createStructureERN3JSC12JSGlobalDataENS1_7JSValueE@Base 2.2.0
 (optional=private|arch=s390x)_ZN7WebCore15JSSVGUseElement15createStructureERN3JSC12JSGlobalDataENS1_7JSValueE@Base 2.2.0
 (optional=private|arch=s390x)_ZN7WebCore15JSScriptProfile15createStructureERN3JSC12JSGlobalDataENS1_7JSValueE@Base 2.2.0
 (optional=private|arch=s390x)_ZN7WebCore15JSTextPrototype15createStructureERN3JSC12JSGlobalDataENS1_7JSValueE@Base 2.2.0
 (optional=private|arch=s390x)_ZN7WebCore15JSTextPrototypeC1ERN3JSC12JSGlobalDataEPNS1_14JSGlobalObjectEPNS1_9StructureE@Base 2.2.0
 (optional=private|arch=s390x)_ZN7WebCore15JSTextPrototypeC2ERN3JSC12JSGlobalDataEPNS1_14JSGlobalObjectEPNS1_9StructureE@Base 2.2.0
 (optional=private|arch=s390x)_ZN7WebCore15JSValidityState15createStructureERN3JSC12JSGlobalDataENS1_7JSValueE@Base 2.2.0
 (optional=private|arch=s390x)_ZN7WebCore15JSXMLSerializer15createStructureERN3JSC12JSGlobalDataENS1_7JSValueE@Base 2.2.0
 (optional=private|arch=alpha armel armhf mips mipsel powerpc ppc64 s390 sh4 sparc sparc64)_ZN7WebCore15ResourceRequestC1Ev@Base 2.2.0
 (optional=private|arch=alpha armel armhf mips mipsel powerpc ppc64 s390 sh4 sparc sparc64)_ZN7WebCore15ResourceRequestC2Ev@Base 2.2.0
 (optional=templinst|arch=s390x)_ZN7WebCore15SVGListPropertyINS_12SVGPointListEE10canGetItemERS1_jRi@Base 2.2.0
 (optional=templinst|arch=s390x)_ZN7WebCore15SVGListPropertyINS_12SVGPointListEE13canRemoveItemERS1_jRi@Base 2.2.0
 (optional=templinst|arch=s390x)_ZN7WebCore15SVGListPropertyINS_12SVGPointListEE14canReplaceItemERS1_jRi@Base 2.2.0
 (optional=templinst|arch=s390x)_ZN7WebCore15SVGListPropertyINS_12SVGPointListEE22clearValuesAndWrappersEPNS_30SVGAnimatedListPropertyTearOffIS1_EERi@Base 2.2.0
 (optional=templinst|arch=s390x)_ZN7WebCore15SVGListPropertyINS_12SVGPointListEE24getItemValuesAndWrappersEPNS_30SVGAnimatedListPropertyTearOffIS1_EEjRi@Base 2.2.0
 (optional=templinst|arch=s390x)_ZN7WebCore15SVGListPropertyINS_12SVGPointListEE27appendItemValuesAndWrappersEPNS_30SVGAnimatedListPropertyTearOffIS1_EEN3WTF10PassRefPtrINS_18SVGPropertyTearOffINS_10FloatPointEEEEERi@Base 2.2.0
 (optional=templinst|arch=s390x)_ZN7WebCore15SVGListPropertyINS_12SVGPointListEE27initializeValuesAndWrappersEPNS_30SVGAnimatedListPropertyTearOffIS1_EEN3WTF10PassRefPtrINS_18SVGPropertyTearOffINS_10FloatPointEEEEERi@Base 2.2.0
 (optional=templinst|arch=s390x)_ZN7WebCore15SVGListPropertyINS_12SVGPointListEE27removeItemValuesAndWrappersEPNS_30SVGAnimatedListPropertyTearOffIS1_EEjRi@Base 2.2.0
 (optional=templinst|arch=s390x)_ZN7WebCore15SVGListPropertyINS_12SVGPointListEE28replaceItemValuesAndWrappersEPNS_30SVGAnimatedListPropertyTearOffIS1_EEN3WTF10PassRefPtrINS_18SVGPropertyTearOffINS_10FloatPointEEEEEjRi@Base 2.2.0
 (optional=templinst|arch=s390x)_ZN7WebCore15SVGListPropertyINS_12SVGPointListEE33insertItemBeforeValuesAndWrappersEPNS_30SVGAnimatedListPropertyTearOffIS1_EEN3WTF10PassRefPtrINS_18SVGPropertyTearOffINS_10FloatPointEEEEEjRi@Base 2.2.0
 (optional=templinst|arch=s390x)_ZN7WebCore15SVGListPropertyINS_13SVGLengthListEE10canGetItemERS1_jRi@Base 2.2.0
 (optional=templinst|arch=s390x)_ZN7WebCore15SVGListPropertyINS_13SVGLengthListEE13canRemoveItemERS1_jRi@Base 2.2.0
 (optional=templinst|arch=s390x)_ZN7WebCore15SVGListPropertyINS_13SVGLengthListEE14canReplaceItemERS1_jRi@Base 2.2.0
 (optional=templinst|arch=s390x)_ZN7WebCore15SVGListPropertyINS_13SVGLengthListEE22clearValuesAndWrappersEPNS_30SVGAnimatedListPropertyTearOffIS1_EERi@Base 2.2.0
 (optional=templinst|arch=s390x)_ZN7WebCore15SVGListPropertyINS_13SVGLengthListEE24getItemValuesAndWrappersEPNS_30SVGAnimatedListPropertyTearOffIS1_EEjRi@Base 2.2.0
 (optional=templinst|arch=s390x)_ZN7WebCore15SVGListPropertyINS_13SVGLengthListEE27appendItemValuesAndWrappersEPNS_30SVGAnimatedListPropertyTearOffIS1_EEN3WTF10PassRefPtrINS_18SVGPropertyTearOffINS_9SVGLengthEEEEERi@Base 2.2.0
 (optional=templinst|arch=s390x)_ZN7WebCore15SVGListPropertyINS_13SVGLengthListEE27initializeValuesAndWrappersEPNS_30SVGAnimatedListPropertyTearOffIS1_EEN3WTF10PassRefPtrINS_18SVGPropertyTearOffINS_9SVGLengthEEEEERi@Base 2.2.0
 (optional=templinst|arch=s390x)_ZN7WebCore15SVGListPropertyINS_13SVGLengthListEE27removeItemValuesAndWrappersEPNS_30SVGAnimatedListPropertyTearOffIS1_EEjRi@Base 2.2.0
 (optional=templinst|arch=s390x)_ZN7WebCore15SVGListPropertyINS_13SVGLengthListEE28replaceItemValuesAndWrappersEPNS_30SVGAnimatedListPropertyTearOffIS1_EEN3WTF10PassRefPtrINS_18SVGPropertyTearOffINS_9SVGLengthEEEEEjRi@Base 2.2.0
 (optional=templinst|arch=s390x)_ZN7WebCore15SVGListPropertyINS_13SVGLengthListEE33insertItemBeforeValuesAndWrappersEPNS_30SVGAnimatedListPropertyTearOffIS1_EEN3WTF10PassRefPtrINS_18SVGPropertyTearOffINS_9SVGLengthEEEEEjRi@Base 2.2.0
 (optional=templinst|arch=s390x)_ZN7WebCore15SVGListPropertyINS_13SVGLengthListEEC1ENS_15SVGPropertyRoleE@Base 2.2.0
 (optional=templinst|arch=s390x)_ZN7WebCore15SVGListPropertyINS_13SVGLengthListEEC2ENS_15SVGPropertyRoleE@Base 2.2.0
 (optional=templinst|arch=s390x)_ZN7WebCore15SVGListPropertyINS_13SVGNumberListEE10canGetItemERS1_jRi@Base 2.2.0
 (optional=templinst|arch=s390x)_ZN7WebCore15SVGListPropertyINS_13SVGNumberListEE13canRemoveItemERS1_jRi@Base 2.2.0
 (optional=templinst|arch=s390x)_ZN7WebCore15SVGListPropertyINS_13SVGNumberListEE14canReplaceItemERS1_jRi@Base 2.2.0
 (optional=templinst|arch=s390x)_ZN7WebCore15SVGListPropertyINS_13SVGNumberListEE22clearValuesAndWrappersEPNS_30SVGAnimatedListPropertyTearOffIS1_EERi@Base 2.2.0
 (optional=templinst|arch=s390x)_ZN7WebCore15SVGListPropertyINS_13SVGNumberListEE24getItemValuesAndWrappersEPNS_30SVGAnimatedListPropertyTearOffIS1_EEjRi@Base 2.2.0
 (optional=templinst|arch=s390x)_ZN7WebCore15SVGListPropertyINS_13SVGNumberListEE27appendItemValuesAndWrappersEPNS_30SVGAnimatedListPropertyTearOffIS1_EEN3WTF10PassRefPtrINS_18SVGPropertyTearOffIfEEEERi@Base 2.2.0
 (optional=templinst|arch=s390x)_ZN7WebCore15SVGListPropertyINS_13SVGNumberListEE27initializeValuesAndWrappersEPNS_30SVGAnimatedListPropertyTearOffIS1_EEN3WTF10PassRefPtrINS_18SVGPropertyTearOffIfEEEERi@Base 2.2.0
 (optional=templinst|arch=s390x)_ZN7WebCore15SVGListPropertyINS_13SVGNumberListEE27removeItemValuesAndWrappersEPNS_30SVGAnimatedListPropertyTearOffIS1_EEjRi@Base 2.2.0
 (optional=templinst|arch=s390x)_ZN7WebCore15SVGListPropertyINS_13SVGNumberListEE28replaceItemValuesAndWrappersEPNS_30SVGAnimatedListPropertyTearOffIS1_EEN3WTF10PassRefPtrINS_18SVGPropertyTearOffIfEEEEjRi@Base 2.2.0
 (optional=templinst|arch=s390x)_ZN7WebCore15SVGListPropertyINS_13SVGNumberListEE33insertItemBeforeValuesAndWrappersEPNS_30SVGAnimatedListPropertyTearOffIS1_EEN3WTF10PassRefPtrINS_18SVGPropertyTearOffIfEEEEjRi@Base 2.2.0
 (optional=templinst|arch=s390x)_ZN7WebCore15SVGListPropertyINS_13SVGNumberListEEC1ENS_15SVGPropertyRoleE@Base 2.2.0
 (optional=templinst|arch=s390x)_ZN7WebCore15SVGListPropertyINS_13SVGNumberListEEC2ENS_15SVGPropertyRoleE@Base 2.2.0
 (optional=templinst|arch=s390x)_ZN7WebCore15SVGListPropertyINS_13SVGStringListEE10canGetItemERS1_jRi@Base 2.2.0
 (optional=templinst|arch=s390x)_ZN7WebCore15SVGListPropertyINS_13SVGStringListEE11clearValuesERS1_Ri@Base 2.2.0
 (optional=templinst|arch=s390x)_ZN7WebCore15SVGListPropertyINS_13SVGStringListEE13canRemoveItemERS1_jRi@Base 2.2.0
 (optional=templinst|arch=s390x)_ZN7WebCore15SVGListPropertyINS_13SVGStringListEE13getItemValuesERS1_jRi@Base 2.2.0
 (optional=templinst|arch=s390x)_ZN7WebCore15SVGListPropertyINS_13SVGStringListEE14canReplaceItemERS1_jRi@Base 2.2.0
 (optional=templinst|arch=s390x)_ZN7WebCore15SVGListPropertyINS_13SVGStringListEE16appendItemValuesERS1_RKN3WTF6StringERi@Base 2.2.0
 (optional=templinst|arch=s390x)_ZN7WebCore15SVGListPropertyINS_13SVGStringListEE16initializeValuesERS1_RKN3WTF6StringERi@Base 2.2.0
 (optional=templinst|arch=s390x)_ZN7WebCore15SVGListPropertyINS_13SVGStringListEE16removeItemValuesERS1_jRi@Base 2.2.0
 (optional=templinst|arch=s390x)_ZN7WebCore15SVGListPropertyINS_13SVGStringListEE17replaceItemValuesERS1_RKN3WTF6StringEjRi@Base 2.2.0
 (optional=templinst|arch=s390x)_ZN7WebCore15SVGListPropertyINS_13SVGStringListEE22insertItemBeforeValuesERS1_RKN3WTF6StringEjRi@Base 2.2.0
 (optional=templinst|arch=s390x)_ZN7WebCore15SVGListPropertyINS_13SVGStringListEEC1ENS_15SVGPropertyRoleE@Base 2.2.0
 (optional=templinst|arch=s390x)_ZN7WebCore15SVGListPropertyINS_13SVGStringListEEC2ENS_15SVGPropertyRoleE@Base 2.2.0
 (optional=templinst|arch=s390x)_ZN7WebCore15SVGListPropertyINS_14SVGPathSegListEE14canReplaceItemERS1_jRi@Base 2.2.0
 (optional=templinst|arch=s390x)_ZN7WebCore15SVGListPropertyINS_14SVGPathSegListEE16appendItemValuesERS1_RKN3WTF6RefPtrINS_10SVGPathSegEEERi@Base 2.2.0
 (optional=templinst|arch=s390x)_ZN7WebCore15SVGListPropertyINS_14SVGPathSegListEE16initializeValuesERS1_RKN3WTF6RefPtrINS_10SVGPathSegEEERi@Base 2.2.0
 (optional=templinst|arch=s390x)_ZN7WebCore15SVGListPropertyINS_14SVGPathSegListEE17replaceItemValuesERS1_RKN3WTF6RefPtrINS_10SVGPathSegEEEjRi@Base 2.2.0
 (optional=templinst|arch=s390x)_ZN7WebCore15SVGListPropertyINS_14SVGPathSegListEE22insertItemBeforeValuesERS1_RKN3WTF6RefPtrINS_10SVGPathSegEEEjRi@Base 2.2.0
 (optional=templinst|arch=s390x)_ZN7WebCore15SVGListPropertyINS_16SVGTransformListEE10canGetItemERS1_jRi@Base 2.2.0
 (optional=templinst|arch=s390x)_ZN7WebCore15SVGListPropertyINS_16SVGTransformListEE13canRemoveItemERS1_jRi@Base 2.2.0
 (optional=templinst|arch=s390x)_ZN7WebCore15SVGListPropertyINS_16SVGTransformListEE14canReplaceItemERS1_jRi@Base 2.2.0
 (optional=templinst|arch=s390x)_ZN7WebCore15SVGListPropertyINS_16SVGTransformListEE22clearValuesAndWrappersEPNS_30SVGAnimatedListPropertyTearOffIS1_EERi@Base 2.2.0
 (optional=templinst|arch=s390x)_ZN7WebCore15SVGListPropertyINS_16SVGTransformListEE24getItemValuesAndWrappersEPNS_30SVGAnimatedListPropertyTearOffIS1_EEjRi@Base 2.2.0
 (optional=templinst|arch=s390x)_ZN7WebCore15SVGListPropertyINS_16SVGTransformListEE27appendItemValuesAndWrappersEPNS_30SVGAnimatedListPropertyTearOffIS1_EEN3WTF10PassRefPtrINS_18SVGPropertyTearOffINS_12SVGTransformEEEEERi@Base 2.2.0
 (optional=templinst|arch=s390x)_ZN7WebCore15SVGListPropertyINS_16SVGTransformListEE27initializeValuesAndWrappersEPNS_30SVGAnimatedListPropertyTearOffIS1_EEN3WTF10PassRefPtrINS_18SVGPropertyTearOffINS_12SVGTransformEEEEERi@Base 2.2.0
 (optional=templinst|arch=s390x)_ZN7WebCore15SVGListPropertyINS_16SVGTransformListEE27removeItemValuesAndWrappersEPNS_30SVGAnimatedListPropertyTearOffIS1_EEjRi@Base 2.2.0
 (optional=templinst|arch=s390x)_ZN7WebCore15SVGListPropertyINS_16SVGTransformListEE28replaceItemValuesAndWrappersEPNS_30SVGAnimatedListPropertyTearOffIS1_EEN3WTF10PassRefPtrINS_18SVGPropertyTearOffINS_12SVGTransformEEEEEjRi@Base 2.2.0
 (optional=templinst|arch=s390x)_ZN7WebCore15SVGListPropertyINS_16SVGTransformListEE33insertItemBeforeValuesAndWrappersEPNS_30SVGAnimatedListPropertyTearOffIS1_EEN3WTF10PassRefPtrINS_18SVGPropertyTearOffINS_12SVGTransformEEEEEjRi@Base 2.2.0
 (optional=templinst|arch=s390x)_ZN7WebCore15SVGListPropertyINS_16SVGTransformListEEC1ENS_15SVGPropertyRoleE@Base 2.2.0
 (optional=templinst|arch=s390x)_ZN7WebCore15SVGListPropertyINS_16SVGTransformListEEC2ENS_15SVGPropertyRoleE@Base 2.2.0
 (optional=private|arch=s390x)_ZN7WebCore15WebKitCSSMatrix4setAEd@Base 2.2.0
 (optional=private|arch=s390x)_ZN7WebCore15WebKitCSSMatrix4setBEd@Base 2.2.0
 (optional=private|arch=s390x)_ZN7WebCore15WebKitCSSMatrix4setCEd@Base 2.2.0
 (optional=private|arch=s390x)_ZN7WebCore15WebKitCSSMatrix4setDEd@Base 2.2.0
 (optional=private|arch=s390x)_ZN7WebCore15WebKitCSSMatrix4setEEd@Base 2.2.0
 (optional=private|arch=s390x)_ZN7WebCore15WebKitCSSMatrix4setFEd@Base 2.2.0
 (optional=private|arch=s390x)_ZN7WebCore15WebKitCSSMatrix6setM11Ed@Base 2.2.0
 (optional=private|arch=s390x)_ZN7WebCore15WebKitCSSMatrix6setM12Ed@Base 2.2.0
 (optional=private|arch=s390x)_ZN7WebCore15WebKitCSSMatrix6setM13Ed@Base 2.2.0
 (optional=private|arch=s390x)_ZN7WebCore15WebKitCSSMatrix6setM14Ed@Base 2.2.0
 (optional=private|arch=s390x)_ZN7WebCore15WebKitCSSMatrix6setM21Ed@Base 2.2.0
 (optional=private|arch=s390x)_ZN7WebCore15WebKitCSSMatrix6setM22Ed@Base 2.2.0
 (optional=private|arch=s390x)_ZN7WebCore15WebKitCSSMatrix6setM23Ed@Base 2.2.0
 (optional=private|arch=s390x)_ZN7WebCore15WebKitCSSMatrix6setM24Ed@Base 2.2.0
 (optional=private|arch=s390x)_ZN7WebCore15WebKitCSSMatrix6setM31Ed@Base 2.2.0
 (optional=private|arch=s390x)_ZN7WebCore15WebKitCSSMatrix6setM32Ed@Base 2.2.0
 (optional=private|arch=s390x)_ZN7WebCore15WebKitCSSMatrix6setM33Ed@Base 2.2.0
 (optional=private|arch=s390x)_ZN7WebCore15WebKitCSSMatrix6setM34Ed@Base 2.2.0
 (optional=private|arch=s390x)_ZN7WebCore15WebKitCSSMatrix6setM41Ed@Base 2.2.0
 (optional=private|arch=s390x)_ZN7WebCore15WebKitCSSMatrix6setM42Ed@Base 2.2.0
 (optional=private|arch=s390x)_ZN7WebCore15WebKitCSSMatrix6setM43Ed@Base 2.2.0
 (optional=private|arch=s390x)_ZN7WebCore15WebKitCSSMatrix6setM44Ed@Base 2.2.0
 (optional=templinst|arch=s390x)_ZN7WebCore15getDOMPrototypeINS_10JSCSSValueEEEPN3JSC8JSObjectEPNS2_9ExecStateEPNS2_14JSGlobalObjectE@Base 2.2.0
 (optional=templinst|arch=s390x)_ZN7WebCore15getDOMPrototypeINS_10JSDataViewEEEPN3JSC8JSObjectEPNS2_9ExecStateEPNS2_14JSGlobalObjectE@Base 2.2.0
 (optional=templinst|arch=s390x)_ZN7WebCore15getDOMPrototypeINS_10JSDatabaseEEEPN3JSC8JSObjectEPNS2_9ExecStateEPNS2_14JSGlobalObjectE@Base 2.2.0
 (optional=templinst|arch=s390x)_ZN7WebCore15getDOMPrototypeINS_10JSDocumentEEEPN3JSC8JSObjectEPNS2_9ExecStateEPNS2_14JSGlobalObjectE@Base 2.2.0
 (optional=templinst|arch=s390x)_ZN7WebCore15getDOMPrototypeINS_10JSFileListEEEPN3JSC8JSObjectEPNS2_9ExecStateEPNS2_14JSGlobalObjectE@Base 2.2.0
 (optional=templinst|arch=s390x)_ZN7WebCore15getDOMPrototypeINS_10JSLocationEEEPN3JSC8JSObjectEPNS2_9ExecStateEPNS2_14JSGlobalObjectE@Base 2.2.0
 (optional=templinst|arch=s390x)_ZN7WebCore15getDOMPrototypeINS_10JSNodeListEEEPN3JSC8JSObjectEPNS2_9ExecStateEPNS2_14JSGlobalObjectE@Base 2.2.0
 (optional=templinst|arch=s390x)_ZN7WebCore15getDOMPrototypeINS_10JSNotationEEEPN3JSC8JSObjectEPNS2_9ExecStateEPNS2_14JSGlobalObjectE@Base 2.2.0
 (optional=templinst|arch=s390x)_ZN7WebCore15getDOMPrototypeINS_10JSRGBColorEEEPN3JSC8JSObjectEPNS2_9ExecStateEPNS2_14JSGlobalObjectE@Base 2.2.0
 (optional=templinst|arch=s390x)_ZN7WebCore15getDOMPrototypeINS_10JSSQLErrorEEEPN3JSC8JSObjectEPNS2_9ExecStateEPNS2_14JSGlobalObjectE@Base 2.2.0
 (optional=templinst|arch=s390x)_ZN7WebCore15getDOMPrototypeINS_10JSSVGAngleEEEPN3JSC8JSObjectEPNS2_9ExecStateEPNS2_14JSGlobalObjectE@Base 2.2.0
 (optional=templinst|arch=s390x)_ZN7WebCore15getDOMPrototypeINS_10JSSVGColorEEEPN3JSC8JSObjectEPNS2_9ExecStateEPNS2_14JSGlobalObjectE@Base 2.2.0
 (optional=templinst|arch=s390x)_ZN7WebCore15getDOMPrototypeINS_10JSSVGPaintEEEPN3JSC8JSObjectEPNS2_9ExecStateEPNS2_14JSGlobalObjectE@Base 2.2.0
 (optional=templinst|arch=s390x)_ZN7WebCore15getDOMPrototypeINS_10JSSVGPointEEEPN3JSC8JSObjectEPNS2_9ExecStateEPNS2_14JSGlobalObjectE@Base 2.2.0
 (optional=templinst|arch=s390x)_ZN7WebCore15getDOMPrototypeINS_11JSClipboardEEEPN3JSC8JSObjectEPNS2_9ExecStateEPNS2_14JSGlobalObjectE@Base 2.2.0
 (optional=templinst|arch=s390x)_ZN7WebCore15getDOMPrototypeINS_11JSDOMParserEEEPN3JSC8JSObjectEPNS2_9ExecStateEPNS2_14JSGlobalObjectE@Base 2.2.0
 (optional=templinst|arch=s390x)_ZN7WebCore15getDOMPrototypeINS_11JSDOMPluginEEEPN3JSC8JSObjectEPNS2_9ExecStateEPNS2_14JSGlobalObjectE@Base 2.2.0
 (optional=templinst|arch=s390x)_ZN7WebCore15getDOMPrototypeINS_11JSFileErrorEEEPN3JSC8JSObjectEPNS2_9ExecStateEPNS2_14JSGlobalObjectE@Base 2.2.0
 (optional=templinst|arch=s390x)_ZN7WebCore15getDOMPrototypeINS_11JSImageDataEEEPN3JSC8JSObjectEPNS2_9ExecStateEPNS2_14JSGlobalObjectE@Base 2.2.0
 (optional=templinst|arch=s390x)_ZN7WebCore15getDOMPrototypeINS_11JSInt8ArrayEEEPN3JSC8JSObjectEPNS2_9ExecStateEPNS2_14JSGlobalObjectE@Base 2.2.0
 (optional=templinst|arch=s390x)_ZN7WebCore15getDOMPrototypeINS_11JSInternalsEEEPN3JSC8JSObjectEPNS2_9ExecStateEPNS2_14JSGlobalObjectE@Base 2.2.0
 (optional=templinst|arch=s390x)_ZN7WebCore15getDOMPrototypeINS_11JSMediaListEEEPN3JSC8JSObjectEPNS2_9ExecStateEPNS2_14JSGlobalObjectE@Base 2.2.0
 (optional=templinst|arch=s390x)_ZN7WebCore15getDOMPrototypeINS_11JSNavigatorEEEPN3JSC8JSObjectEPNS2_9ExecStateEPNS2_14JSGlobalObjectE@Base 2.2.0
 (optional=templinst|arch=s390x)_ZN7WebCore15getDOMPrototypeINS_11JSSVGLengthEEEPN3JSC8JSObjectEPNS2_9ExecStateEPNS2_14JSGlobalObjectE@Base 2.2.0
 (optional=templinst|arch=s390x)_ZN7WebCore15getDOMPrototypeINS_11JSSVGMatrixEEEPN3JSC8JSObjectEPNS2_9ExecStateEPNS2_14JSGlobalObjectE@Base 2.2.0
 (optional=templinst|arch=s390x)_ZN7WebCore15getDOMPrototypeINS_11JSSVGNumberEEEPN3JSC8JSObjectEPNS2_9ExecStateEPNS2_14JSGlobalObjectE@Base 2.2.0
 (optional=templinst|arch=s390x)_ZN7WebCore15getDOMPrototypeINS_11JSTextEventEEEPN3JSC8JSObjectEPNS2_9ExecStateEPNS2_14JSGlobalObjectE@Base 2.2.0
 (optional=templinst|arch=s390x)_ZN7WebCore15getDOMPrototypeINS_11JSTouchListEEEPN3JSC8JSObjectEPNS2_9ExecStateEPNS2_14JSGlobalObjectE@Base 2.2.0
 (optional=templinst|arch=s390x)_ZN7WebCore15getDOMPrototypeINS_11JSWebSocketEEEPN3JSC8JSObjectEPNS2_9ExecStateEPNS2_14JSGlobalObjectE@Base 2.2.0
 (optional=templinst|arch=s390x)_ZN7WebCore15getDOMPrototypeINS_12JSClientRectEEEPN3JSC8JSObjectEPNS2_9ExecStateEPNS2_14JSGlobalObjectE@Base 2.2.0
 (optional=templinst|arch=s390x)_ZN7WebCore15getDOMPrototypeINS_12JSErrorEventEEEPN3JSC8JSObjectEPNS2_9ExecStateEPNS2_14JSGlobalObjectE@Base 2.2.0
 (optional=templinst|arch=s390x)_ZN7WebCore15getDOMPrototypeINS_12JSFileReaderEEEPN3JSC8JSObjectEPNS2_9ExecStateEPNS2_14JSGlobalObjectE@Base 2.2.0
 (optional=templinst|arch=s390x)_ZN7WebCore15getDOMPrototypeINS_12JSInt16ArrayEEEPN3JSC8JSObjectEPNS2_9ExecStateEPNS2_14JSGlobalObjectE@Base 2.2.0
 (optional=templinst|arch=s390x)_ZN7WebCore15getDOMPrototypeINS_12JSInt32ArrayEEEPN3JSC8JSObjectEPNS2_9ExecStateEPNS2_14JSGlobalObjectE@Base 2.2.0
 (optional=templinst|arch=s390x)_ZN7WebCore15getDOMPrototypeINS_12JSMediaErrorEEEPN3JSC8JSObjectEPNS2_9ExecStateEPNS2_14JSGlobalObjectE@Base 2.2.0
 (optional=templinst|arch=s390x)_ZN7WebCore15getDOMPrototypeINS_12JSMemoryInfoEEEPN3JSC8JSObjectEPNS2_9ExecStateEPNS2_14JSGlobalObjectE@Base 2.2.0
 (optional=templinst|arch=s390x)_ZN7WebCore15getDOMPrototypeINS_12JSMouseEventEEEPN3JSC8JSObjectEPNS2_9ExecStateEPNS2_14JSGlobalObjectE@Base 2.2.0
 (optional=templinst|arch=s390x)_ZN7WebCore15getDOMPrototypeINS_12JSNodeFilterEEEPN3JSC8JSObjectEPNS2_9ExecStateEPNS2_14JSGlobalObjectE@Base 2.2.0
 (optional=templinst|arch=s390x)_ZN7WebCore15getDOMPrototypeINS_12JSSVGElementEEEPN3JSC8JSObjectEPNS2_9ExecStateEPNS2_14JSGlobalObjectE@Base 2.2.0
 (optional=templinst|arch=s390x)_ZN7WebCore15getDOMPrototypeINS_12JSSVGPathSegEEEPN3JSC8JSObjectEPNS2_9ExecStateEPNS2_14JSGlobalObjectE@Base 2.2.0
 (optional=templinst|arch=s390x)_ZN7WebCore15getDOMPrototypeINS_12JSStyleMediaEEEPN3JSC8JSObjectEPNS2_9ExecStateEPNS2_14JSGlobalObjectE@Base 2.2.0
 (optional=templinst|arch=s390x)_ZN7WebCore15getDOMPrototypeINS_12JSStyleSheetEEEPN3JSC8JSObjectEPNS2_9ExecStateEPNS2_14JSGlobalObjectE@Base 2.2.0
 (optional=templinst|arch=s390x)_ZN7WebCore15getDOMPrototypeINS_12JSTimeRangesEEEPN3JSC8JSObjectEPNS2_9ExecStateEPNS2_14JSGlobalObjectE@Base 2.2.0
 (optional=templinst|arch=s390x)_ZN7WebCore15getDOMPrototypeINS_12JSTouchEventEEEPN3JSC8JSObjectEPNS2_9ExecStateEPNS2_14JSGlobalObjectE@Base 2.2.0
 (optional=templinst|arch=s390x)_ZN7WebCore15getDOMPrototypeINS_12JSTreeWalkerEEEPN3JSC8JSObjectEPNS2_9ExecStateEPNS2_14JSGlobalObjectE@Base 2.2.0
 (optional=templinst|arch=s390x)_ZN7WebCore15getDOMPrototypeINS_12JSUint8ArrayEEEPN3JSC8JSObjectEPNS2_9ExecStateEPNS2_14JSGlobalObjectE@Base 2.2.0
 (optional=templinst|arch=s390x)_ZN7WebCore15getDOMPrototypeINS_12JSWheelEventEEEPN3JSC8JSObjectEPNS2_9ExecStateEPNS2_14JSGlobalObjectE@Base 2.2.0
 (optional=templinst|arch=s390x)_ZN7WebCore15getDOMPrototypeINS_13JSArrayBufferEEEPN3JSC8JSObjectEPNS2_9ExecStateEPNS2_14JSGlobalObjectE@Base 2.2.0
 (optional=templinst|arch=s390x)_ZN7WebCore15getDOMPrototypeINS_13JSCSSPageRuleEEEPN3JSC8JSObjectEPNS2_9ExecStateEPNS2_14JSGlobalObjectE@Base 2.2.0
 (optional=templinst|arch=s390x)_ZN7WebCore15getDOMPrototypeINS_13JSCSSRuleListEEEPN3JSC8JSObjectEPNS2_9ExecStateEPNS2_14JSGlobalObjectE@Base 2.2.0
 (optional=templinst|arch=s390x)_ZN7WebCore15getDOMPrototypeINS_13JSCoordinatesEEEPN3JSC8JSObjectEPNS2_9ExecStateEPNS2_14JSGlobalObjectE@Base 2.2.0
 (optional=templinst|arch=s390x)_ZN7WebCore15getDOMPrototypeINS_13JSCustomEventEEEPN3JSC8JSObjectEPNS2_9ExecStateEPNS2_14JSGlobalObjectE@Base 2.2.0
 (optional=templinst|arch=s390x)_ZN7WebCore15getDOMPrototypeINS_13JSDOMFormDataEEEPN3JSC8JSObjectEPNS2_9ExecStateEPNS2_14JSGlobalObjectE@Base 2.2.0
 (optional=templinst|arch=s390x)_ZN7WebCore15getDOMPrototypeINS_13JSDOMMimeTypeEEEPN3JSC8JSObjectEPNS2_9ExecStateEPNS2_14JSGlobalObjectE@Base 2.2.0
 (optional=templinst|arch=s390x)_ZN7WebCore15getDOMPrototypeINS_13JSEventSourceEEEPN3JSC8JSObjectEPNS2_9ExecStateEPNS2_14JSGlobalObjectE@Base 2.2.0
 (optional=templinst|arch=s390x)_ZN7WebCore15getDOMPrototypeINS_13JSHTMLElementEEEPN3JSC8JSObjectEPNS2_9ExecStateEPNS2_14JSGlobalObjectE@Base 2.2.0
 (optional=templinst|arch=s390x)_ZN7WebCore15getDOMPrototypeINS_13JSMessagePortEEEPN3JSC8JSObjectEPNS2_9ExecStateEPNS2_14JSGlobalObjectE@Base 2.2.0
 (optional=templinst|arch=s390x)_ZN7WebCore15getDOMPrototypeINS_13JSSVGAElementEEEPN3JSC8JSObjectEPNS2_9ExecStateEPNS2_14JSGlobalObjectE@Base 2.2.0
 (optional=templinst|arch=s390x)_ZN7WebCore15getDOMPrototypeINS_13JSSVGDocumentEEEPN3JSC8JSObjectEPNS2_9ExecStateEPNS2_14JSGlobalObjectE@Base 2.2.0
 (optional=templinst|arch=s390x)_ZN7WebCore15getDOMPrototypeINS_13JSSVGGElementEEEPN3JSC8JSObjectEPNS2_9ExecStateEPNS2_14JSGlobalObjectE@Base 2.2.0
 (optional=templinst|arch=s390x)_ZN7WebCore15getDOMPrototypeINS_13JSTextMetricsEEEPN3JSC8JSObjectEPNS2_9ExecStateEPNS2_14JSGlobalObjectE@Base 2.2.0
 (optional=templinst|arch=s390x)_ZN7WebCore15getDOMPrototypeINS_13JSUint16ArrayEEEPN3JSC8JSObjectEPNS2_9ExecStateEPNS2_14JSGlobalObjectE@Base 2.2.0
 (optional=templinst|arch=s390x)_ZN7WebCore15getDOMPrototypeINS_13JSUint32ArrayEEEPN3JSC8JSObjectEPNS2_9ExecStateEPNS2_14JSGlobalObjectE@Base 2.2.0
 (optional=templinst|arch=s390x)_ZN7WebCore15getDOMPrototypeINS_13JSWebKitPointEEEPN3JSC8JSObjectEPNS2_9ExecStateEPNS2_14JSGlobalObjectE@Base 2.2.0
 (optional=templinst|arch=s390x)_ZN7WebCore15getDOMPrototypeINS_13JSXPathResultEEEPN3JSC8JSObjectEPNS2_9ExecStateEPNS2_14JSGlobalObjectE@Base 2.2.0
 (optional=templinst|arch=s390x)_ZN7WebCore15getDOMPrototypeINS_14JSCDATASectionEEEPN3JSC8JSObjectEPNS2_9ExecStateEPNS2_14JSGlobalObjectE@Base 2.2.0
 (optional=templinst|arch=s390x)_ZN7WebCore15getDOMPrototypeINS_14JSCSSMediaRuleEEEPN3JSC8JSObjectEPNS2_9ExecStateEPNS2_14JSGlobalObjectE@Base 2.2.0
 (optional=templinst|arch=s390x)_ZN7WebCore15getDOMPrototypeINS_14JSCSSStyleRuleEEEPN3JSC8JSObjectEPNS2_9ExecStateEPNS2_14JSGlobalObjectE@Base 2.2.0
 (optional=templinst|arch=s390x)_ZN7WebCore15getDOMPrototypeINS_14JSCSSValueListEEEPN3JSC8JSObjectEPNS2_9ExecStateEPNS2_14JSGlobalObjectE@Base 2.2.0
 (optional=templinst|arch=s390x)_ZN7WebCore15getDOMPrototypeINS_14JSDOMSelectionEEEPN3JSC8JSObjectEPNS2_9ExecStateEPNS2_14JSGlobalObjectE@Base 2.2.0
 (optional=templinst|arch=s390x)_ZN7WebCore15getDOMPrototypeINS_14JSDOMStringMapEEEPN3JSC8JSObjectEPNS2_9ExecStateEPNS2_14JSGlobalObjectE@Base 2.2.0
 (optional=templinst|arch=s390x)_ZN7WebCore15getDOMPrototypeINS_14JSDOMTokenListEEEPN3JSC8JSObjectEPNS2_9ExecStateEPNS2_14JSGlobalObjectE@Base 2.2.0
 (optional=templinst|arch=s390x)_ZN7WebCore15getDOMPrototypeINS_14JSDatabaseSyncEEEPN3JSC8JSObjectEPNS2_9ExecStateEPNS2_14JSGlobalObjectE@Base 2.2.0
 (optional=templinst|arch=s390x)_ZN7WebCore15getDOMPrototypeINS_14JSDocumentTypeEEEPN3JSC8JSObjectEPNS2_9ExecStateEPNS2_14JSGlobalObjectE@Base 2.2.0
 (optional=templinst|arch=s390x)_ZN7WebCore15getDOMPrototypeINS_14JSFloat32ArrayEEEPN3JSC8JSObjectEPNS2_9ExecStateEPNS2_14JSGlobalObjectE@Base 2.2.0
 (optional=templinst|arch=s390x)_ZN7WebCore15getDOMPrototypeINS_14JSHTMLDocumentEEEPN3JSC8JSObjectEPNS2_9ExecStateEPNS2_14JSGlobalObjectE@Base 2.2.0
 (optional=templinst|arch=s390x)_ZN7WebCore15getDOMPrototypeINS_14JSMessageEventEEEPN3JSC8JSObjectEPNS2_9ExecStateEPNS2_14JSGlobalObjectE@Base 2.2.0
 (optional=templinst|arch=s390x)_ZN7WebCore15getDOMPrototypeINS_14JSNamedNodeMapEEEPN3JSC8JSObjectEPNS2_9ExecStateEPNS2_14JSGlobalObjectE@Base 2.2.0
 (optional=templinst|arch=s390x)_ZN7WebCore15getDOMPrototypeINS_14JSNodeIteratorEEEPN3JSC8JSObjectEPNS2_9ExecStateEPNS2_14JSGlobalObjectE@Base 2.2.0
 (optional=templinst|arch=s390x)_ZN7WebCore15getDOMPrototypeINS_14JSNotificationEEEPN3JSC8JSObjectEPNS2_9ExecStateEPNS2_14JSGlobalObjectE@Base 2.2.0
 (optional=templinst|arch=s390x)_ZN7WebCore15getDOMPrototypeINS_14JSSQLExceptionEEEPN3JSC8JSObjectEPNS2_9ExecStateEPNS2_14JSGlobalObjectE@Base 2.2.0
 (optional=templinst|arch=s390x)_ZN7WebCore15getDOMPrototypeINS_14JSSQLResultSetEEEPN3JSC8JSObjectEPNS2_9ExecStateEPNS2_14JSGlobalObjectE@Base 2.2.0
 (optional=templinst|arch=s390x)_ZN7WebCore15getDOMPrototypeINS_14JSSVGExceptionEEEPN3JSC8JSObjectEPNS2_9ExecStateEPNS2_14JSGlobalObjectE@Base 2.2.0
 (optional=templinst|arch=s390x)_ZN7WebCore15getDOMPrototypeINS_14JSSVGPointListEEEPN3JSC8JSObjectEPNS2_9ExecStateEPNS2_14JSGlobalObjectE@Base 2.2.0
 (optional=templinst|arch=s390x)_ZN7WebCore15getDOMPrototypeINS_14JSSVGTransformEEEPN3JSC8JSObjectEPNS2_9ExecStateEPNS2_14JSGlobalObjectE@Base 2.2.0
 (optional=templinst|arch=s390x)_ZN7WebCore15getDOMPrototypeINS_14JSSVGUnitTypesEEEPN3JSC8JSObjectEPNS2_9ExecStateEPNS2_14JSGlobalObjectE@Base 2.2.0
 (optional=templinst|arch=s390x)_ZN7WebCore15getDOMPrototypeINS_14JSSVGZoomEventEEEPN3JSC8JSObjectEPNS2_9ExecStateEPNS2_14JSGlobalObjectE@Base 2.2.0
 (optional=templinst|arch=s390x)_ZN7WebCore15getDOMPrototypeINS_14JSSharedWorkerEEEPN3JSC8JSObjectEPNS2_9ExecStateEPNS2_14JSGlobalObjectE@Base 2.2.0
 (optional=templinst|arch=s390x)_ZN7WebCore15getDOMPrototypeINS_14JSStorageEventEEEPN3JSC8JSObjectEPNS2_9ExecStateEPNS2_14JSGlobalObjectE@Base 2.2.0
 (optional=templinst|arch=s390x)_ZN7WebCore15getDOMPrototypeINS_14JSVoidCallbackEEEPN3JSC8JSObjectEPNS2_9ExecStateEPNS2_14JSGlobalObjectE@Base 2.2.0
 (optional=templinst|arch=s390x)_ZN7WebCore15getDOMPrototypeINS_15JSCSSImportRuleEEEPN3JSC8JSObjectEPNS2_9ExecStateEPNS2_14JSGlobalObjectE@Base 2.2.0
 (optional=templinst|arch=s390x)_ZN7WebCore15getDOMPrototypeINS_15JSCSSStyleSheetEEEPN3JSC8JSObjectEPNS2_9ExecStateEPNS2_14JSGlobalObjectE@Base 2.2.0
 (optional=templinst|arch=s390x)_ZN7WebCore15getDOMPrototypeINS_15JSCanvasPatternEEEPN3JSC8JSObjectEPNS2_9ExecStateEPNS2_14JSGlobalObjectE@Base 2.2.0
 (optional=templinst|arch=s390x)_ZN7WebCore15getDOMPrototypeINS_15JSCharacterDataEEEPN3JSC8JSObjectEPNS2_9ExecStateEPNS2_14JSGlobalObjectE@Base 2.2.0
 (optional=templinst|arch=s390x)_ZN7WebCore15getDOMPrototypeINS_15JSDOMStringListEEEPN3JSC8JSObjectEPNS2_9ExecStateEPNS2_14JSGlobalObjectE@Base 2.2.0
 (optional=templinst|arch=s390x)_ZN7WebCore15getDOMPrototypeINS_15JSFileExceptionEEEPN3JSC8JSObjectEPNS2_9ExecStateEPNS2_14JSGlobalObjectE@Base 2.2.0
 (optional=templinst|arch=s390x)_ZN7WebCore15getDOMPrototypeINS_15JSHTMLBRElementEEEPN3JSC8JSObjectEPNS2_9ExecStateEPNS2_14JSGlobalObjectE@Base 2.2.0
 (optional=templinst|arch=s390x)_ZN7WebCore15getDOMPrototypeINS_15JSHTMLHRElementEEEPN3JSC8JSObjectEPNS2_9ExecStateEPNS2_14JSGlobalObjectE@Base 2.2.0
 (optional=templinst|arch=s390x)_ZN7WebCore15getDOMPrototypeINS_15JSHTMLLIElementEEEPN3JSC8JSObjectEPNS2_9ExecStateEPNS2_14JSGlobalObjectE@Base 2.2.0
 (optional=templinst|arch=s390x)_ZN7WebCore15getDOMPrototypeINS_15JSKeyboardEventEEEPN3JSC8JSObjectEPNS2_9ExecStateEPNS2_14JSGlobalObjectE@Base 2.2.0
 (optional=templinst|arch=s390x)_ZN7WebCore15getDOMPrototypeINS_15JSMutationEventEEEPN3JSC8JSObjectEPNS2_9ExecStateEPNS2_14JSGlobalObjectE@Base 2.2.0
 (optional=templinst|arch=s390x)_ZN7WebCore15getDOMPrototypeINS_15JSOverflowEventEEEPN3JSC8JSObjectEPNS2_9ExecStateEPNS2_14JSGlobalObjectE@Base 2.2.0
 (optional=templinst|arch=s390x)_ZN7WebCore15getDOMPrototypeINS_15JSPopStateEventEEEPN3JSC8JSObjectEPNS2_9ExecStateEPNS2_14JSGlobalObjectE@Base 2.2.0
 (optional=templinst|arch=s390x)_ZN7WebCore15getDOMPrototypeINS_15JSProgressEventEEEPN3JSC8JSObjectEPNS2_9ExecStateEPNS2_14JSGlobalObjectE@Base 2.2.0
 (optional=templinst|arch=s390x)_ZN7WebCore15getDOMPrototypeINS_15JSSVGLengthListEEEPN3JSC8JSObjectEPNS2_9ExecStateEPNS2_14JSGlobalObjectE@Base 2.2.0
 (optional=templinst|arch=s390x)_ZN7WebCore15getDOMPrototypeINS_15JSSVGNumberListEEEPN3JSC8JSObjectEPNS2_9ExecStateEPNS2_14JSGlobalObjectE@Base 2.2.0
 (optional=templinst|arch=s390x)_ZN7WebCore15getDOMPrototypeINS_15JSSVGSVGElementEEEPN3JSC8JSObjectEPNS2_9ExecStateEPNS2_14JSGlobalObjectE@Base 2.2.0
 (optional=templinst|arch=s390x)_ZN7WebCore15getDOMPrototypeINS_15JSSVGSetElementEEEPN3JSC8JSObjectEPNS2_9ExecStateEPNS2_14JSGlobalObjectE@Base 2.2.0
 (optional=templinst|arch=s390x)_ZN7WebCore15getDOMPrototypeINS_15JSSVGStringListEEEPN3JSC8JSObjectEPNS2_9ExecStateEPNS2_14JSGlobalObjectE@Base 2.2.0
 (optional=templinst|arch=s390x)_ZN7WebCore15getDOMPrototypeINS_15JSSVGUseElementEEEPN3JSC8JSObjectEPNS2_9ExecStateEPNS2_14JSGlobalObjectE@Base 2.2.0
 (optional=templinst|arch=s390x)_ZN7WebCore15getDOMPrototypeINS_15JSScriptProfileEEEPN3JSC8JSObjectEPNS2_9ExecStateEPNS2_14JSGlobalObjectE@Base 2.2.0
 (optional=templinst|arch=s390x)_ZN7WebCore15getDOMPrototypeINS_15JSValidityStateEEEPN3JSC8JSObjectEPNS2_9ExecStateEPNS2_14JSGlobalObjectE@Base 2.2.0
 (optional=templinst|arch=s390x)_ZN7WebCore15getDOMPrototypeINS_15JSXMLSerializerEEEPN3JSC8JSObjectEPNS2_9ExecStateEPNS2_14JSGlobalObjectE@Base 2.2.0
 (optional=templinst|arch=s390x)_ZN7WebCore15getDOMPrototypeINS_16JSAbstractWorkerEEEPN3JSC8JSObjectEPNS2_9ExecStateEPNS2_14JSGlobalObjectE@Base 2.2.0
 (optional=templinst|arch=s390x)_ZN7WebCore15getDOMPrototypeINS_16JSCSSCharsetRuleEEEPN3JSC8JSObjectEPNS2_9ExecStateEPNS2_14JSGlobalObjectE@Base 2.2.0
 (optional=templinst|arch=s390x)_ZN7WebCore15getDOMPrototypeINS_16JSCanvasGradientEEEPN3JSC8JSObjectEPNS2_9ExecStateEPNS2_14JSGlobalObjectE@Base 2.2.0
 (optional=templinst|arch=s390x)_ZN7WebCore15getDOMPrototypeINS_16JSClientRectListEEEPN3JSC8JSObjectEPNS2_9ExecStateEPNS2_14JSGlobalObjectE@Base 2.2.0
 (optional=templinst|arch=s390x)_ZN7WebCore15getDOMPrototypeINS_16JSDOMPluginArrayEEEPN3JSC8JSObjectEPNS2_9ExecStateEPNS2_14JSGlobalObjectE@Base 2.2.0
 (optional=templinst|arch=s390x)_ZN7WebCore15getDOMPrototypeINS_16JSEventExceptionEEEPN3JSC8JSObjectEPNS2_9ExecStateEPNS2_14JSGlobalObjectE@Base 2.2.0
 (optional=templinst|arch=s390x)_ZN7WebCore15getDOMPrototypeINS_16JSFileReaderSyncEEEPN3JSC8JSObjectEPNS2_9ExecStateEPNS2_14JSGlobalObjectE@Base 2.2.0
 (optional=templinst|arch=s390x)_ZN7WebCore15getDOMPrototypeINS_16JSHTMLCollectionEEEPN3JSC8JSObjectEPNS2_9ExecStateEPNS2_14JSGlobalObjectE@Base 2.2.0
 (optional=templinst|arch=s390x)_ZN7WebCore15getDOMPrototypeINS_16JSHTMLDivElementEEEPN3JSC8JSObjectEPNS2_9ExecStateEPNS2_14JSGlobalObjectE@Base 2.2.0
 (optional=templinst|arch=s390x)_ZN7WebCore15getDOMPrototypeINS_16JSHTMLMapElementEEEPN3JSC8JSObjectEPNS2_9ExecStateEPNS2_14JSGlobalObjectE@Base 2.2.0
 (optional=templinst|arch=s390x)_ZN7WebCore15getDOMPrototypeINS_16JSHTMLModElementEEEPN3JSC8JSObjectEPNS2_9ExecStateEPNS2_14JSGlobalObjectE@Base 2.2.0
 (optional=templinst|arch=s390x)_ZN7WebCore15getDOMPrototypeINS_16JSHTMLPreElementEEEPN3JSC8JSObjectEPNS2_9ExecStateEPNS2_14JSGlobalObjectE@Base 2.2.0
 (optional=templinst|arch=s390x)_ZN7WebCore15getDOMPrototypeINS_16JSMediaQueryListEEEPN3JSC8JSObjectEPNS2_9ExecStateEPNS2_14JSGlobalObjectE@Base 2.2.0
 (optional=templinst|arch=s390x)_ZN7WebCore15getDOMPrototypeINS_16JSMessageChannelEEEPN3JSC8JSObjectEPNS2_9ExecStateEPNS2_14JSGlobalObjectE@Base 2.2.0
 (optional=templinst|arch=s390x)_ZN7WebCore15getDOMPrototypeINS_16JSRangeExceptionEEEPN3JSC8JSObjectEPNS2_9ExecStateEPNS2_14JSGlobalObjectE@Base 2.2.0
 (optional=templinst|arch=s390x)_ZN7WebCore15getDOMPrototypeINS_16JSSQLTransactionEEEPN3JSC8JSObjectEPNS2_9ExecStateEPNS2_14JSGlobalObjectE@Base 2.2.0
 (optional=templinst|arch=s390x)_ZN7WebCore15getDOMPrototypeINS_16JSSVGDefsElementEEEPN3JSC8JSObjectEPNS2_9ExecStateEPNS2_14JSGlobalObjectE@Base 2.2.0
 (optional=templinst|arch=s390x)_ZN7WebCore15getDOMPrototypeINS_16JSSVGDescElementEEEPN3JSC8JSObjectEPNS2_9ExecStateEPNS2_14JSGlobalObjectE@Base 2.2.0
 (optional=templinst|arch=s390x)_ZN7WebCore15getDOMPrototypeINS_16JSSVGFontElementEEEPN3JSC8JSObjectEPNS2_9ExecStateEPNS2_14JSGlobalObjectE@Base 2.2.0
 (optional=templinst|arch=s390x)_ZN7WebCore15getDOMPrototypeINS_16JSSVGLineElementEEEPN3JSC8JSObjectEPNS2_9ExecStateEPNS2_14JSGlobalObjectE@Base 2.2.0
 (optional=templinst|arch=s390x)_ZN7WebCore15getDOMPrototypeINS_16JSSVGMaskElementEEEPN3JSC8JSObjectEPNS2_9ExecStateEPNS2_14JSGlobalObjectE@Base 2.2.0
 (optional=templinst|arch=s390x)_ZN7WebCore15getDOMPrototypeINS_16JSSVGPathElementEEEPN3JSC8JSObjectEPNS2_9ExecStateEPNS2_14JSGlobalObjectE@Base 2.2.0
 (optional=templinst|arch=s390x)_ZN7WebCore15getDOMPrototypeINS_16JSSVGPathSegListEEEPN3JSC8JSObjectEPNS2_9ExecStateEPNS2_14JSGlobalObjectE@Base 2.2.0
 (optional=templinst|arch=s390x)_ZN7WebCore15getDOMPrototypeINS_16JSSVGRectElementEEEPN3JSC8JSObjectEPNS2_9ExecStateEPNS2_14JSGlobalObjectE@Base 2.2.0
 (optional=templinst|arch=s390x)_ZN7WebCore15getDOMPrototypeINS_16JSSVGStopElementEEEPN3JSC8JSObjectEPNS2_9ExecStateEPNS2_14JSGlobalObjectE@Base 2.2.0
 (optional=templinst|arch=s390x)_ZN7WebCore15getDOMPrototypeINS_16JSSVGTRefElementEEEPN3JSC8JSObjectEPNS2_9ExecStateEPNS2_14JSGlobalObjectE@Base 2.2.0
 (optional=templinst|arch=s390x)_ZN7WebCore15getDOMPrototypeINS_16JSSVGTextElementEEEPN3JSC8JSObjectEPNS2_9ExecStateEPNS2_14JSGlobalObjectE@Base 2.2.0
 (optional=templinst|arch=s390x)_ZN7WebCore15getDOMPrototypeINS_16JSSVGViewElementEEEPN3JSC8JSObjectEPNS2_9ExecStateEPNS2_14JSGlobalObjectE@Base 2.2.0
 (optional=templinst|arch=s390x)_ZN7WebCore15getDOMPrototypeINS_16JSStyleSheetListEEEPN3JSC8JSObjectEPNS2_9ExecStateEPNS2_14JSGlobalObjectE@Base 2.2.0
 (optional=templinst|arch=s390x)_ZN7WebCore15getDOMPrototypeINS_16JSWorkerLocationEEEPN3JSC8JSObjectEPNS2_9ExecStateEPNS2_14JSGlobalObjectE@Base 2.2.0
 (optional=templinst|arch=s390x)_ZN7WebCore15getDOMPrototypeINS_16JSXMLHttpRequestEEEPN3JSC8JSObjectEPNS2_9ExecStateEPNS2_14JSGlobalObjectE@Base 2.2.0
 (optional=templinst|arch=s390x)_ZN7WebCore15getDOMPrototypeINS_16JSXPathEvaluatorEEEPN3JSC8JSObjectEPNS2_9ExecStateEPNS2_14JSGlobalObjectE@Base 2.2.0
 (optional=templinst|arch=s390x)_ZN7WebCore15getDOMPrototypeINS_16JSXPathExceptionEEEPN3JSC8JSObjectEPNS2_9ExecStateEPNS2_14JSGlobalObjectE@Base 2.2.0
 (optional=templinst|arch=s390x)_ZN7WebCore15getDOMPrototypeINS_17JSArrayBufferViewEEEPN3JSC8JSObjectEPNS2_9ExecStateEPNS2_14JSGlobalObjectE@Base 2.2.0
 (optional=templinst|arch=s390x)_ZN7WebCore15getDOMPrototypeINS_17JSBeforeLoadEventEEEPN3JSC8JSObjectEPNS2_9ExecStateEPNS2_14JSGlobalObjectE@Base 2.2.0
 (optional=templinst|arch=s390x)_ZN7WebCore15getDOMPrototypeINS_17JSCSSFontFaceRuleEEEPN3JSC8JSObjectEPNS2_9ExecStateEPNS2_14JSGlobalObjectE@Base 2.2.0
 (optional=templinst|arch=s390x)_ZN7WebCore15getDOMPrototypeINS_17JSEntityReferenceEEEPN3JSC8JSObjectEPNS2_9ExecStateEPNS2_14JSGlobalObjectE@Base 2.2.0
 (optional=templinst|arch=s390x)_ZN7WebCore15getDOMPrototypeINS_17JSHTMLAreaElementEEEPN3JSC8JSObjectEPNS2_9ExecStateEPNS2_14JSGlobalObjectE@Base 2.2.0
 (optional=templinst|arch=s390x)_ZN7WebCore15getDOMPrototypeINS_17JSHTMLBaseElementEEEPN3JSC8JSObjectEPNS2_9ExecStateEPNS2_14JSGlobalObjectE@Base 2.2.0
 (optional=templinst|arch=s390x)_ZN7WebCore15getDOMPrototypeINS_17JSHTMLBodyElementEEEPN3JSC8JSObjectEPNS2_9ExecStateEPNS2_14JSGlobalObjectE@Base 2.2.0
 (optional=templinst|arch=s390x)_ZN7WebCore15getDOMPrototypeINS_17JSHTMLFontElementEEEPN3JSC8JSObjectEPNS2_9ExecStateEPNS2_14JSGlobalObjectE@Base 2.2.0
 (optional=templinst|arch=s390x)_ZN7WebCore15getDOMPrototypeINS_17JSHTMLFormElementEEEPN3JSC8JSObjectEPNS2_9ExecStateEPNS2_14JSGlobalObjectE@Base 2.2.0
 (optional=templinst|arch=s390x)_ZN7WebCore15getDOMPrototypeINS_17JSHTMLHeadElementEEEPN3JSC8JSObjectEPNS2_9ExecStateEPNS2_14JSGlobalObjectE@Base 2.2.0
 (optional=templinst|arch=s390x)_ZN7WebCore15getDOMPrototypeINS_17JSHTMLHtmlElementEEEPN3JSC8JSObjectEPNS2_9ExecStateEPNS2_14JSGlobalObjectE@Base 2.2.0
 (optional=templinst|arch=s390x)_ZN7WebCore15getDOMPrototypeINS_17JSHTMLLinkElementEEEPN3JSC8JSObjectEPNS2_9ExecStateEPNS2_14JSGlobalObjectE@Base 2.2.0
 (optional=templinst|arch=s390x)_ZN7WebCore15getDOMPrototypeINS_17JSHTMLMenuElementEEEPN3JSC8JSObjectEPNS2_9ExecStateEPNS2_14JSGlobalObjectE@Base 2.2.0
 (optional=templinst|arch=s390x)_ZN7WebCore15getDOMPrototypeINS_17JSHTMLMetaElementEEEPN3JSC8JSObjectEPNS2_9ExecStateEPNS2_14JSGlobalObjectE@Base 2.2.0
 (optional=templinst|arch=s390x)_ZN7WebCore15getDOMPrototypeINS_17JSHashChangeEventEEEPN3JSC8JSObjectEPNS2_9ExecStateEPNS2_14JSGlobalObjectE@Base 2.2.0
 (optional=templinst|arch=s390x)_ZN7WebCore15getDOMPrototypeINS_17JSSVGAnimatedRectEEEPN3JSC8JSObjectEPNS2_9ExecStateEPNS2_14JSGlobalObjectE@Base 2.2.0
 (optional=templinst|arch=s390x)_ZN7WebCore15getDOMPrototypeINS_17JSSVGGlyphElementEEEPN3JSC8JSObjectEPNS2_9ExecStateEPNS2_14JSGlobalObjectE@Base 2.2.0
 (optional=templinst|arch=s390x)_ZN7WebCore15getDOMPrototypeINS_17JSSVGHKernElementEEEPN3JSC8JSObjectEPNS2_9ExecStateEPNS2_14JSGlobalObjectE@Base 2.2.0
 (optional=templinst|arch=s390x)_ZN7WebCore15getDOMPrototypeINS_17JSSVGImageElementEEEPN3JSC8JSObjectEPNS2_9ExecStateEPNS2_14JSGlobalObjectE@Base 2.2.0
 (optional=templinst|arch=s390x)_ZN7WebCore15getDOMPrototypeINS_17JSSVGStyleElementEEEPN3JSC8JSObjectEPNS2_9ExecStateEPNS2_14JSGlobalObjectE@Base 2.2.0
 (optional=templinst|arch=s390x)_ZN7WebCore15getDOMPrototypeINS_17JSSVGTSpanElementEEEPN3JSC8JSObjectEPNS2_9ExecStateEPNS2_14JSGlobalObjectE@Base 2.2.0
 (optional=templinst|arch=s390x)_ZN7WebCore15getDOMPrototypeINS_17JSSVGTitleElementEEEPN3JSC8JSObjectEPNS2_9ExecStateEPNS2_14JSGlobalObjectE@Base 2.2.0
 (optional=templinst|arch=s390x)_ZN7WebCore15getDOMPrototypeINS_17JSSVGVKernElementEEEPN3JSC8JSObjectEPNS2_9ExecStateEPNS2_14JSGlobalObjectE@Base 2.2.0
 (optional=templinst|arch=s390x)_ZN7WebCore15getDOMPrototypeINS_17JSWebKitAnimationEEEPN3JSC8JSObjectEPNS2_9ExecStateEPNS2_14JSGlobalObjectE@Base 2.2.0
 (optional=templinst|arch=s390x)_ZN7WebCore15getDOMPrototypeINS_17JSWebKitCSSMatrixEEEPN3JSC8JSObjectEPNS2_9ExecStateEPNS2_14JSGlobalObjectE@Base 2.2.0
 (optional=templinst|arch=s390x)_ZN7WebCore15getDOMPrototypeINS_17JSWorkerNavigatorEEEPN3JSC8JSObjectEPNS2_9ExecStateEPNS2_14JSGlobalObjectE@Base 2.2.0
 (optional=templinst|arch=s390x)_ZN7WebCore15getDOMPrototypeINS_17JSXPathExpressionEEEPN3JSC8JSObjectEPNS2_9ExecStateEPNS2_14JSGlobalObjectE@Base 2.2.0
 (optional=templinst|arch=s390x)_ZN7WebCore15getDOMPrototypeINS_17JSXPathNSResolverEEEPN3JSC8JSObjectEPNS2_9ExecStateEPNS2_14JSGlobalObjectE@Base 2.2.0
 (optional=templinst|arch=s390x)_ZN7WebCore15getDOMPrototypeINS_18JSCompositionEventEEEPN3JSC8JSObjectEPNS2_9ExecStateEPNS2_14JSGlobalObjectE@Base 2.2.0
 (optional=templinst|arch=s390x)_ZN7WebCore15getDOMPrototypeINS_18JSDOMCoreExceptionEEEPN3JSC8JSObjectEPNS2_9ExecStateEPNS2_14JSGlobalObjectE@Base 2.2.0
 (optional=templinst|arch=s390x)_ZN7WebCore15getDOMPrototypeINS_18JSDOMMimeTypeArrayEEEPN3JSC8JSObjectEPNS2_9ExecStateEPNS2_14JSGlobalObjectE@Base 2.2.0
 (optional=templinst|arch=s390x)_ZN7WebCore15getDOMPrototypeINS_18JSDocumentFragmentEEEPN3JSC8JSObjectEPNS2_9ExecStateEPNS2_14JSGlobalObjectE@Base 2.2.0
 (optional=templinst|arch=s390x)_ZN7WebCore15getDOMPrototypeINS_18JSHTMLAudioElementEEEPN3JSC8JSObjectEPNS2_9ExecStateEPNS2_14JSGlobalObjectE@Base 2.2.0
 (optional=templinst|arch=s390x)_ZN7WebCore15getDOMPrototypeINS_18JSHTMLDListElementEEEPN3JSC8JSObjectEPNS2_9ExecStateEPNS2_14JSGlobalObjectE@Base 2.2.0
 (optional=templinst|arch=s390x)_ZN7WebCore15getDOMPrototypeINS_18JSHTMLEmbedElementEEEPN3JSC8JSObjectEPNS2_9ExecStateEPNS2_14JSGlobalObjectE@Base 2.2.0
 (optional=templinst|arch=s390x)_ZN7WebCore15getDOMPrototypeINS_18JSHTMLFrameElementEEEPN3JSC8JSObjectEPNS2_9ExecStateEPNS2_14JSGlobalObjectE@Base 2.2.0
 (optional=templinst|arch=s390x)_ZN7WebCore15getDOMPrototypeINS_18JSHTMLImageElementEEEPN3JSC8JSObjectEPNS2_9ExecStateEPNS2_14JSGlobalObjectE@Base 2.2.0
 (optional=templinst|arch=s390x)_ZN7WebCore15getDOMPrototypeINS_18JSHTMLInputElementEEEPN3JSC8JSObjectEPNS2_9ExecStateEPNS2_14JSGlobalObjectE@Base 2.2.0
 (optional=templinst|arch=s390x)_ZN7WebCore15getDOMPrototypeINS_18JSHTMLLabelElementEEEPN3JSC8JSObjectEPNS2_9ExecStateEPNS2_14JSGlobalObjectE@Base 2.2.0
 (optional=templinst|arch=s390x)_ZN7WebCore15getDOMPrototypeINS_18JSHTMLMediaElementEEEPN3JSC8JSObjectEPNS2_9ExecStateEPNS2_14JSGlobalObjectE@Base 2.2.0
 (optional=templinst|arch=s390x)_ZN7WebCore15getDOMPrototypeINS_18JSHTMLMeterElementEEEPN3JSC8JSObjectEPNS2_9ExecStateEPNS2_14JSGlobalObjectE@Base 2.2.0
 (optional=templinst|arch=s390x)_ZN7WebCore15getDOMPrototypeINS_18JSHTMLOListElementEEEPN3JSC8JSObjectEPNS2_9ExecStateEPNS2_14JSGlobalObjectE@Base 2.2.0
 (optional=templinst|arch=s390x)_ZN7WebCore15getDOMPrototypeINS_18JSHTMLParamElementEEEPN3JSC8JSObjectEPNS2_9ExecStateEPNS2_14JSGlobalObjectE@Base 2.2.0
 (optional=templinst|arch=s390x)_ZN7WebCore15getDOMPrototypeINS_18JSHTMLQuoteElementEEEPN3JSC8JSObjectEPNS2_9ExecStateEPNS2_14JSGlobalObjectE@Base 2.2.0
 (optional=templinst|arch=s390x)_ZN7WebCore15getDOMPrototypeINS_18JSHTMLStyleElementEEEPN3JSC8JSObjectEPNS2_9ExecStateEPNS2_14JSGlobalObjectE@Base 2.2.0
 (optional=templinst|arch=s390x)_ZN7WebCore15getDOMPrototypeINS_18JSHTMLTableElementEEEPN3JSC8JSObjectEPNS2_9ExecStateEPNS2_14JSGlobalObjectE@Base 2.2.0
 (optional=templinst|arch=s390x)_ZN7WebCore15getDOMPrototypeINS_18JSHTMLTitleElementEEEPN3JSC8JSObjectEPNS2_9ExecStateEPNS2_14JSGlobalObjectE@Base 2.2.0
 (optional=templinst|arch=s390x)_ZN7WebCore15getDOMPrototypeINS_18JSHTMLUListElementEEEPN3JSC8JSObjectEPNS2_9ExecStateEPNS2_14JSGlobalObjectE@Base 2.2.0
 (optional=templinst|arch=s390x)_ZN7WebCore15getDOMPrototypeINS_18JSHTMLVideoElementEEEPN3JSC8JSObjectEPNS2_9ExecStateEPNS2_14JSGlobalObjectE@Base 2.2.0
 (optional=templinst|arch=s390x)_ZN7WebCore15getDOMPrototypeINS_18JSSVGAnimatedAngleEEEPN3JSC8JSObjectEPNS2_9ExecStateEPNS2_14JSGlobalObjectE@Base 2.2.0
 (optional=templinst|arch=s390x)_ZN7WebCore15getDOMPrototypeINS_18JSSVGCircleElementEEEPN3JSC8JSObjectEPNS2_9ExecStateEPNS2_14JSGlobalObjectE@Base 2.2.0
 (optional=templinst|arch=s390x)_ZN7WebCore15getDOMPrototypeINS_18JSSVGCursorElementEEEPN3JSC8JSObjectEPNS2_9ExecStateEPNS2_14JSGlobalObjectE@Base 2.2.0
 (optional=templinst|arch=s390x)_ZN7WebCore15getDOMPrototypeINS_18JSSVGFETileElementEEEPN3JSC8JSObjectEPNS2_9ExecStateEPNS2_14JSGlobalObjectE@Base 2.2.0
 (optional=templinst|arch=s390x)_ZN7WebCore15getDOMPrototypeINS_18JSSVGFilterElementEEEPN3JSC8JSObjectEPNS2_9ExecStateEPNS2_14JSGlobalObjectE@Base 2.2.0
 (optional=templinst|arch=s390x)_ZN7WebCore15getDOMPrototypeINS_18JSSVGMarkerElementEEEPN3JSC8JSObjectEPNS2_9ExecStateEPNS2_14JSGlobalObjectE@Base 2.2.0
 (optional=templinst|arch=s390x)_ZN7WebCore15getDOMPrototypeINS_18JSSVGPathSegArcAbsEEEPN3JSC8JSObjectEPNS2_9ExecStateEPNS2_14JSGlobalObjectE@Base 2.2.0
 (optional=templinst|arch=s390x)_ZN7WebCore15getDOMPrototypeINS_18JSSVGPathSegArcRelEEEPN3JSC8JSObjectEPNS2_9ExecStateEPNS2_14JSGlobalObjectE@Base 2.2.0
 (optional=templinst|arch=s390x)_ZN7WebCore15getDOMPrototypeINS_18JSSVGScriptElementEEEPN3JSC8JSObjectEPNS2_9ExecStateEPNS2_14JSGlobalObjectE@Base 2.2.0
 (optional=templinst|arch=s390x)_ZN7WebCore15getDOMPrototypeINS_18JSSVGSwitchElementEEEPN3JSC8JSObjectEPNS2_9ExecStateEPNS2_14JSGlobalObjectE@Base 2.2.0
 (optional=templinst|arch=s390x)_ZN7WebCore15getDOMPrototypeINS_18JSSVGSymbolElementEEEPN3JSC8JSObjectEPNS2_9ExecStateEPNS2_14JSGlobalObjectE@Base 2.2.0
 (optional=templinst|arch=s390x)_ZN7WebCore15getDOMPrototypeINS_18JSSVGTransformListEEEPN3JSC8JSObjectEPNS2_9ExecStateEPNS2_14JSGlobalObjectE@Base 2.2.0
 (optional=templinst|arch=s390x)_ZN7WebCore15getDOMPrototypeINS_19JSCSSPrimitiveValueEEEPN3JSC8JSObjectEPNS2_9ExecStateEPNS2_14JSGlobalObjectE@Base 2.2.0
 (optional=templinst|arch=s390x)_ZN7WebCore15getDOMPrototypeINS_19JSDOMImplementationEEEPN3JSC8JSObjectEPNS2_9ExecStateEPNS2_14JSGlobalObjectE@Base 2.2.0
 (optional=templinst|arch=s390x)_ZN7WebCore15getDOMPrototypeINS_19JSHTMLAllCollectionEEEPN3JSC8JSObjectEPNS2_9ExecStateEPNS2_14JSGlobalObjectE@Base 2.2.0
 (optional=templinst|arch=s390x)_ZN7WebCore15getDOMPrototypeINS_19JSHTMLAnchorElementEEEPN3JSC8JSObjectEPNS2_9ExecStateEPNS2_14JSGlobalObjectE@Base 2.2.0
 (optional=templinst|arch=s390x)_ZN7WebCore15getDOMPrototypeINS_19JSHTMLAppletElementEEEPN3JSC8JSObjectEPNS2_9ExecStateEPNS2_14JSGlobalObjectE@Base 2.2.0
 (optional=templinst|arch=s390x)_ZN7WebCore15getDOMPrototypeINS_19JSHTMLButtonElementEEEPN3JSC8JSObjectEPNS2_9ExecStateEPNS2_14JSGlobalObjectE@Base 2.2.0
 (optional=templinst|arch=s390x)_ZN7WebCore15getDOMPrototypeINS_19JSHTMLCanvasElementEEEPN3JSC8JSObjectEPNS2_9ExecStateEPNS2_14JSGlobalObjectE@Base 2.2.0
 (optional=templinst|arch=s390x)_ZN7WebCore15getDOMPrototypeINS_19JSHTMLIFrameElementEEEPN3JSC8JSObjectEPNS2_9ExecStateEPNS2_14JSGlobalObjectE@Base 2.2.0
 (optional=templinst|arch=s390x)_ZN7WebCore15getDOMPrototypeINS_19JSHTMLKeygenElementEEEPN3JSC8JSObjectEPNS2_9ExecStateEPNS2_14JSGlobalObjectE@Base 2.2.0
 (optional=templinst|arch=s390x)_ZN7WebCore15getDOMPrototypeINS_19JSHTMLLegendElementEEEPN3JSC8JSObjectEPNS2_9ExecStateEPNS2_14JSGlobalObjectE@Base 2.2.0
 (optional=templinst|arch=s390x)_ZN7WebCore15getDOMPrototypeINS_19JSHTMLObjectElementEEEPN3JSC8JSObjectEPNS2_9ExecStateEPNS2_14JSGlobalObjectE@Base 2.2.0
 (optional=templinst|arch=s390x)_ZN7WebCore15getDOMPrototypeINS_19JSHTMLOptionElementEEEPN3JSC8JSObjectEPNS2_9ExecStateEPNS2_14JSGlobalObjectE@Base 2.2.0
 (optional=templinst|arch=s390x)_ZN7WebCore15getDOMPrototypeINS_19JSHTMLOutputElementEEEPN3JSC8JSObjectEPNS2_9ExecStateEPNS2_14JSGlobalObjectE@Base 2.2.0
 (optional=templinst|arch=s390x)_ZN7WebCore15getDOMPrototypeINS_19JSHTMLScriptElementEEEPN3JSC8JSObjectEPNS2_9ExecStateEPNS2_14JSGlobalObjectE@Base 2.2.0
 (optional=templinst|arch=s390x)_ZN7WebCore15getDOMPrototypeINS_19JSHTMLSelectElementEEEPN3JSC8JSObjectEPNS2_9ExecStateEPNS2_14JSGlobalObjectE@Base 2.2.0
 (optional=templinst|arch=s390x)_ZN7WebCore15getDOMPrototypeINS_19JSHTMLSourceElementEEEPN3JSC8JSObjectEPNS2_9ExecStateEPNS2_14JSGlobalObjectE@Base 2.2.0
 (optional=templinst|arch=s390x)_ZN7WebCore15getDOMPrototypeINS_19JSSVGAnimateElementEEEPN3JSC8JSObjectEPNS2_9ExecStateEPNS2_14JSGlobalObjectE@Base 2.2.0
 (optional=templinst|arch=s390x)_ZN7WebCore15getDOMPrototypeINS_19JSSVGAnimatedLengthEEEPN3JSC8JSObjectEPNS2_9ExecStateEPNS2_14JSGlobalObjectE@Base 2.2.0
 (optional=templinst|arch=s390x)_ZN7WebCore15getDOMPrototypeINS_19JSSVGAnimatedNumberEEEPN3JSC8JSObjectEPNS2_9ExecStateEPNS2_14JSGlobalObjectE@Base 2.2.0
 (optional=templinst|arch=s390x)_ZN7WebCore15getDOMPrototypeINS_19JSSVGAnimatedStringEEEPN3JSC8JSObjectEPNS2_9ExecStateEPNS2_14JSGlobalObjectE@Base 2.2.0
 (optional=templinst|arch=s390x)_ZN7WebCore15getDOMPrototypeINS_19JSSVGEllipseElementEEEPN3JSC8JSObjectEPNS2_9ExecStateEPNS2_14JSGlobalObjectE@Base 2.2.0
 (optional=templinst|arch=s390x)_ZN7WebCore15getDOMPrototypeINS_19JSSVGFEBlendElementEEEPN3JSC8JSObjectEPNS2_9ExecStateEPNS2_14JSGlobalObjectE@Base 2.2.0
 (optional=templinst|arch=s390x)_ZN7WebCore15getDOMPrototypeINS_19JSSVGFEFloodElementEEEPN3JSC8JSObjectEPNS2_9ExecStateEPNS2_14JSGlobalObjectE@Base 2.2.0
 (optional=templinst|arch=s390x)_ZN7WebCore15getDOMPrototypeINS_19JSSVGFEFuncAElementEEEPN3JSC8JSObjectEPNS2_9ExecStateEPNS2_14JSGlobalObjectE@Base 2.2.0
 (optional=templinst|arch=s390x)_ZN7WebCore15getDOMPrototypeINS_19JSSVGFEFuncBElementEEEPN3JSC8JSObjectEPNS2_9ExecStateEPNS2_14JSGlobalObjectE@Base 2.2.0
 (optional=templinst|arch=s390x)_ZN7WebCore15getDOMPrototypeINS_19JSSVGFEFuncGElementEEEPN3JSC8JSObjectEPNS2_9ExecStateEPNS2_14JSGlobalObjectE@Base 2.2.0
 (optional=templinst|arch=s390x)_ZN7WebCore15getDOMPrototypeINS_19JSSVGFEFuncRElementEEEPN3JSC8JSObjectEPNS2_9ExecStateEPNS2_14JSGlobalObjectE@Base 2.2.0
 (optional=templinst|arch=s390x)_ZN7WebCore15getDOMPrototypeINS_19JSSVGFEImageElementEEEPN3JSC8JSObjectEPNS2_9ExecStateEPNS2_14JSGlobalObjectE@Base 2.2.0
 (optional=templinst|arch=s390x)_ZN7WebCore15getDOMPrototypeINS_19JSSVGFEMergeElementEEEPN3JSC8JSObjectEPNS2_9ExecStateEPNS2_14JSGlobalObjectE@Base 2.2.0
 (optional=templinst|arch=s390x)_ZN7WebCore15getDOMPrototypeINS_19JSSVGPatternElementEEEPN3JSC8JSObjectEPNS2_9ExecStateEPNS2_14JSGlobalObjectE@Base 2.2.0
 (optional=templinst|arch=s390x)_ZN7WebCore15getDOMPrototypeINS_19JSSVGPolygonElementEEEPN3JSC8JSObjectEPNS2_9ExecStateEPNS2_14JSGlobalObjectE@Base 2.2.0
 (optional=templinst|arch=s390x)_ZN7WebCore15getDOMPrototypeINS_19JSScriptProfileNodeEEEPN3JSC8JSObjectEPNS2_9ExecStateEPNS2_14JSGlobalObjectE@Base 2.2.0
 (optional=templinst|arch=s390x)_ZN7WebCore15getDOMPrototypeINS_19JSWebKitBlobBuilderEEEPN3JSC8JSObjectEPNS2_9ExecStateEPNS2_14JSGlobalObjectE@Base 2.2.0
 (optional=templinst|arch=s390x)_ZN7WebCore15getDOMPrototypeINS_20JSBeforeProcessEventEEEPN3JSC8JSObjectEPNS2_9ExecStateEPNS2_14JSGlobalObjectE@Base 2.2.0
 (optional=templinst|arch=s390x)_ZN7WebCore15getDOMPrototypeINS_20JSHTMLDetailsElementEEEPN3JSC8JSObjectEPNS2_9ExecStateEPNS2_14JSGlobalObjectE@Base 2.2.0
 (optional=templinst|arch=s390x)_ZN7WebCore15getDOMPrototypeINS_20JSHTMLHeadingElementEEEPN3JSC8JSObjectEPNS2_9ExecStateEPNS2_14JSGlobalObjectE@Base 2.2.0
 (optional=templinst|arch=s390x)_ZN7WebCore15getDOMPrototypeINS_20JSHTMLIsIndexElementEEEPN3JSC8JSObjectEPNS2_9ExecStateEPNS2_14JSGlobalObjectE@Base 2.2.0
 (optional=templinst|arch=s390x)_ZN7WebCore15getDOMPrototypeINS_20JSHTMLMarqueeElementEEEPN3JSC8JSObjectEPNS2_9ExecStateEPNS2_14JSGlobalObjectE@Base 2.2.0
 (optional=templinst|arch=s390x)_ZN7WebCore15getDOMPrototypeINS_20JSInjectedScriptHostEEEPN3JSC8JSObjectEPNS2_9ExecStateEPNS2_14JSGlobalObjectE@Base 2.2.0
 (optional=templinst|arch=s390x)_ZN7WebCore15getDOMPrototypeINS_20JSNotificationCenterEEEPN3JSC8JSObjectEPNS2_9ExecStateEPNS2_14JSGlobalObjectE@Base 2.2.0
 (optional=templinst|arch=s390x)_ZN7WebCore15getDOMPrototypeINS_20JSSQLTransactionSyncEEEPN3JSC8JSObjectEPNS2_9ExecStateEPNS2_14JSGlobalObjectE@Base 2.2.0
 (optional=templinst|arch=s390x)_ZN7WebCore15getDOMPrototypeINS_20JSSVGAltGlyphElementEEEPN3JSC8JSObjectEPNS2_9ExecStateEPNS2_14JSGlobalObjectE@Base 2.2.0
 (optional=templinst|arch=s390x)_ZN7WebCore15getDOMPrototypeINS_20JSSVGAnimatedBooleanEEEPN3JSC8JSObjectEPNS2_9ExecStateEPNS2_14JSGlobalObjectE@Base 2.2.0
 (optional=templinst|arch=s390x)_ZN7WebCore15getDOMPrototypeINS_20JSSVGAnimatedIntegerEEEPN3JSC8JSObjectEPNS2_9ExecStateEPNS2_14JSGlobalObjectE@Base 2.2.0
 (optional=templinst|arch=s390x)_ZN7WebCore15getDOMPrototypeINS_20JSSVGClipPathElementEEEPN3JSC8JSObjectEPNS2_9ExecStateEPNS2_14JSGlobalObjectE@Base 2.2.0
 (optional=templinst|arch=s390x)_ZN7WebCore15getDOMPrototypeINS_20JSSVGElementInstanceEEEPN3JSC8JSObjectEPNS2_9ExecStateEPNS2_14JSGlobalObjectE@Base 2.2.0
 (optional=templinst|arch=s390x)_ZN7WebCore15getDOMPrototypeINS_20JSSVGFEOffsetElementEEEPN3JSC8JSObjectEPNS2_9ExecStateEPNS2_14JSGlobalObjectE@Base 2.2.0
 (optional=templinst|arch=s390x)_ZN7WebCore15getDOMPrototypeINS_20JSSVGFontFaceElementEEEPN3JSC8JSObjectEPNS2_9ExecStateEPNS2_14JSGlobalObjectE@Base 2.2.0
 (optional=templinst|arch=s390x)_ZN7WebCore15getDOMPrototypeINS_20JSSVGGradientElementEEEPN3JSC8JSObjectEPNS2_9ExecStateEPNS2_14JSGlobalObjectE@Base 2.2.0
 (optional=templinst|arch=s390x)_ZN7WebCore15getDOMPrototypeINS_20JSSVGMetadataElementEEEPN3JSC8JSObjectEPNS2_9ExecStateEPNS2_14JSGlobalObjectE@Base 2.2.0
 (optional=templinst|arch=s390x)_ZN7WebCore15getDOMPrototypeINS_20JSSVGPolylineElementEEEPN3JSC8JSObjectEPNS2_9ExecStateEPNS2_14JSGlobalObjectE@Base 2.2.0
 (optional=templinst|arch=s390x)_ZN7WebCore15getDOMPrototypeINS_20JSSVGRenderingIntentEEEPN3JSC8JSObjectEPNS2_9ExecStateEPNS2_14JSGlobalObjectE@Base 2.2.0
 (optional=templinst|arch=s390x)_ZN7WebCore15getDOMPrototypeINS_20JSSVGTextPathElementEEEPN3JSC8JSObjectEPNS2_9ExecStateEPNS2_14JSGlobalObjectE@Base 2.2.0
 (optional=templinst|arch=s390x)_ZN7WebCore15getDOMPrototypeINS_21JSCSSStyleDeclarationEEEPN3JSC8JSObjectEPNS2_9ExecStateEPNS2_14JSGlobalObjectE@Base 2.2.0
 (optional=templinst|arch=s390x)_ZN7WebCore15getDOMPrototypeINS_21JSDOMApplicationCacheEEEPN3JSC8JSObjectEPNS2_9ExecStateEPNS2_14JSGlobalObjectE@Base 2.2.0
 (optional=templinst|arch=s390x)_ZN7WebCore15getDOMPrototypeINS_21JSHTMLBaseFontElementEEEPN3JSC8JSObjectEPNS2_9ExecStateEPNS2_14JSGlobalObjectE@Base 2.2.0
 (optional=templinst|arch=s390x)_ZN7WebCore15getDOMPrototypeINS_21JSHTMLDataListElementEEEPN3JSC8JSObjectEPNS2_9ExecStateEPNS2_14JSGlobalObjectE@Base 2.2.0
 (optional=templinst|arch=s390x)_ZN7WebCore15getDOMPrototypeINS_21JSHTMLFieldSetElementEEEPN3JSC8JSObjectEPNS2_9ExecStateEPNS2_14JSGlobalObjectE@Base 2.2.0
 (optional=templinst|arch=s390x)_ZN7WebCore15getDOMPrototypeINS_21JSHTMLFrameSetElementEEEPN3JSC8JSObjectEPNS2_9ExecStateEPNS2_14JSGlobalObjectE@Base 2.2.0
 (optional=templinst|arch=s390x)_ZN7WebCore15getDOMPrototypeINS_21JSHTMLOptGroupElementEEEPN3JSC8JSObjectEPNS2_9ExecStateEPNS2_14JSGlobalObjectE@Base 2.2.0
 (optional=templinst|arch=s390x)_ZN7WebCore15getDOMPrototypeINS_21JSHTMLProgressElementEEEPN3JSC8JSObjectEPNS2_9ExecStateEPNS2_14JSGlobalObjectE@Base 2.2.0
 (optional=templinst|arch=s390x)_ZN7WebCore15getDOMPrototypeINS_21JSHTMLTableColElementEEEPN3JSC8JSObjectEPNS2_9ExecStateEPNS2_14JSGlobalObjectE@Base 2.2.0
 (optional=templinst|arch=s390x)_ZN7WebCore15getDOMPrototypeINS_21JSHTMLTableRowElementEEEPN3JSC8JSObjectEPNS2_9ExecStateEPNS2_14JSGlobalObjectE@Base 2.2.0
 (optional=templinst|arch=s390x)_ZN7WebCore15getDOMPrototypeINS_21JSHTMLTextAreaElementEEEPN3JSC8JSObjectEPNS2_9ExecStateEPNS2_14JSGlobalObjectE@Base 2.2.0
 (optional=templinst|arch=s390x)_ZN7WebCore15getDOMPrototypeINS_21JSJavaScriptCallFrameEEEPN3JSC8JSObjectEPNS2_9ExecStateEPNS2_14JSGlobalObjectE@Base 2.2.0
 (optional=templinst|arch=s390x)_ZN7WebCore15getDOMPrototypeINS_21JSPageTransitionEventEEEPN3JSC8JSObjectEPNS2_9ExecStateEPNS2_14JSGlobalObjectE@Base 2.2.0
 (optional=templinst|arch=s390x)_ZN7WebCore15getDOMPrototypeINS_21JSSQLResultSetRowListEEEPN3JSC8JSObjectEPNS2_9ExecStateEPNS2_14JSGlobalObjectE@Base 2.2.0
 (optional=templinst|arch=s390x)_ZN7WebCore15getDOMPrototypeINS_21JSSVGAnimationElementEEEPN3JSC8JSObjectEPNS2_9ExecStateEPNS2_14JSGlobalObjectE@Base 2.2.0
 (optional=templinst|arch=s390x)_ZN7WebCore15getDOMPrototypeINS_21JSSVGPathSegClosePathEEEPN3JSC8JSObjectEPNS2_9ExecStateEPNS2_14JSGlobalObjectE@Base 2.2.0
 (optional=templinst|arch=s390x)_ZN7WebCore15getDOMPrototypeINS_21JSSVGPathSegLinetoAbsEEEPN3JSC8JSObjectEPNS2_9ExecStateEPNS2_14JSGlobalObjectE@Base 2.2.0
 (optional=templinst|arch=s390x)_ZN7WebCore15getDOMPrototypeINS_21JSSVGPathSegLinetoRelEEEPN3JSC8JSObjectEPNS2_9ExecStateEPNS2_14JSGlobalObjectE@Base 2.2.0
 (optional=templinst|arch=s390x)_ZN7WebCore15getDOMPrototypeINS_21JSSVGPathSegMovetoAbsEEEPN3JSC8JSObjectEPNS2_9ExecStateEPNS2_14JSGlobalObjectE@Base 2.2.0
 (optional=templinst|arch=s390x)_ZN7WebCore15getDOMPrototypeINS_21JSSVGPathSegMovetoRelEEEPN3JSC8JSObjectEPNS2_9ExecStateEPNS2_14JSGlobalObjectE@Base 2.2.0
 (optional=templinst|arch=s390x)_ZN7WebCore15getDOMPrototypeINS_21JSWebKitAnimationListEEEPN3JSC8JSObjectEPNS2_9ExecStateEPNS2_14JSGlobalObjectE@Base 2.2.0
 (optional=templinst|arch=s390x)_ZN7WebCore15getDOMPrototypeINS_22JSDOMSettableTokenListEEEPN3JSC8JSObjectEPNS2_9ExecStateEPNS2_14JSGlobalObjectE@Base 2.2.0
 (optional=templinst|arch=s390x)_ZN7WebCore15getDOMPrototypeINS_22JSHTMLDirectoryElementEEEPN3JSC8JSObjectEPNS2_9ExecStateEPNS2_14JSGlobalObjectE@Base 2.2.0
 (optional=templinst|arch=s390x)_ZN7WebCore15getDOMPrototypeINS_22JSHTMLParagraphElementEEEPN3JSC8JSObjectEPNS2_9ExecStateEPNS2_14JSGlobalObjectE@Base 2.2.0
 (optional=templinst|arch=s390x)_ZN7WebCore15getDOMPrototypeINS_22JSHTMLTableCellElementEEEPN3JSC8JSObjectEPNS2_9ExecStateEPNS2_14JSGlobalObjectE@Base 2.2.0
 (optional=templinst|arch=s390x)_ZN7WebCore15getDOMPrototypeINS_22JSWebKitAnimationEventEEEPN3JSC8JSObjectEPNS2_9ExecStateEPNS2_14JSGlobalObjectE@Base 2.2.0
 (optional=templinst|arch=s390x)_ZN7WebCore15getDOMPrototypeINS_22JSXMLHttpRequestUploadEEEPN3JSC8JSObjectEPNS2_9ExecStateEPNS2_14JSGlobalObjectE@Base 2.2.0
 (optional=templinst|arch=s390x)_ZN7WebCore15getDOMPrototypeINS_23JSHTMLBlockquoteElementEEEPN3JSC8JSObjectEPNS2_9ExecStateEPNS2_14JSGlobalObjectE@Base 2.2.0
 (optional=templinst|arch=s390x)_ZN7WebCore15getDOMPrototypeINS_23JSHTMLOptionsCollectionEEEPN3JSC8JSObjectEPNS2_9ExecStateEPNS2_14JSGlobalObjectE@Base 2.2.0
 (optional=templinst|arch=s390x)_ZN7WebCore15getDOMPrototypeINS_23JSInspectorFrontendHostEEEPN3JSC8JSObjectEPNS2_9ExecStateEPNS2_14JSGlobalObjectE@Base 2.2.0
 (optional=templinst|arch=s390x)_ZN7WebCore15getDOMPrototypeINS_23JSProcessingInstructionEEEPN3JSC8JSObjectEPNS2_9ExecStateEPNS2_14JSGlobalObjectE@Base 2.2.0
 (optional=templinst|arch=s390x)_ZN7WebCore15getDOMPrototypeINS_23JSSVGAnimatedLengthListEEEPN3JSC8JSObjectEPNS2_9ExecStateEPNS2_14JSGlobalObjectE@Base 2.2.0
 (optional=templinst|arch=s390x)_ZN7WebCore15getDOMPrototypeINS_23JSSVGAnimatedNumberListEEEPN3JSC8JSObjectEPNS2_9ExecStateEPNS2_14JSGlobalObjectE@Base 2.2.0
 (optional=templinst|arch=s390x)_ZN7WebCore15getDOMPrototypeINS_23JSSVGFECompositeElementEEEPN3JSC8JSObjectEPNS2_9ExecStateEPNS2_14JSGlobalObjectE@Base 2.2.0
 (optional=templinst|arch=s390x)_ZN7WebCore15getDOMPrototypeINS_23JSSVGFEMergeNodeElementEEEPN3JSC8JSObjectEPNS2_9ExecStateEPNS2_14JSGlobalObjectE@Base 2.2.0
 (optional=templinst|arch=s390x)_ZN7WebCore15getDOMPrototypeINS_23JSSVGFESpotLightElementEEEPN3JSC8JSObjectEPNS2_9ExecStateEPNS2_14JSGlobalObjectE@Base 2.2.0
 (optional=templinst|arch=s390x)_ZN7WebCore15getDOMPrototypeINS_23JSSVGFontFaceSrcElementEEEPN3JSC8JSObjectEPNS2_9ExecStateEPNS2_14JSGlobalObjectE@Base 2.2.0
 (optional=templinst|arch=s390x)_ZN7WebCore15getDOMPrototypeINS_23JSSVGFontFaceUriElementEEEPN3JSC8JSObjectEPNS2_9ExecStateEPNS2_14JSGlobalObjectE@Base 2.2.0
 (optional=templinst|arch=s390x)_ZN7WebCore15getDOMPrototypeINS_23JSSVGTextContentElementEEEPN3JSC8JSObjectEPNS2_9ExecStateEPNS2_14JSGlobalObjectE@Base 2.2.0
 (optional=templinst|arch=s390x)_ZN7WebCore15getDOMPrototypeINS_23JSWebKitCSSKeyframeRuleEEEPN3JSC8JSObjectEPNS2_9ExecStateEPNS2_14JSGlobalObjectE@Base 2.2.0
 (optional=templinst|arch=s390x)_ZN7WebCore15getDOMPrototypeINS_23JSWebKitTransitionEventEEEPN3JSC8JSObjectEPNS2_9ExecStateEPNS2_14JSGlobalObjectE@Base 2.2.0
 (optional=templinst|arch=s390x)_ZN7WebCore15getDOMPrototypeINS_24JSCanvasRenderingContextEEEPN3JSC8JSObjectEPNS2_9ExecStateEPNS2_14JSGlobalObjectE@Base 2.2.0
 (optional=templinst|arch=s390x)_ZN7WebCore15getDOMPrototypeINS_24JSSVGAnimateColorElementEEEPN3JSC8JSObjectEPNS2_9ExecStateEPNS2_14JSGlobalObjectE@Base 2.2.0
 (optional=templinst|arch=s390x)_ZN7WebCore15getDOMPrototypeINS_24JSSVGAnimatedEnumerationEEEPN3JSC8JSObjectEPNS2_9ExecStateEPNS2_14JSGlobalObjectE@Base 2.2.0
 (optional=templinst|arch=s390x)_ZN7WebCore15getDOMPrototypeINS_24JSSVGElementInstanceListEEEPN3JSC8JSObjectEPNS2_9ExecStateEPNS2_14JSGlobalObjectE@Base 2.2.0
 (optional=templinst|arch=s390x)_ZN7WebCore15getDOMPrototypeINS_24JSSVGFEDropShadowElementEEEPN3JSC8JSObjectEPNS2_9ExecStateEPNS2_14JSGlobalObjectE@Base 2.2.0
 (optional=templinst|arch=s390x)_ZN7WebCore15getDOMPrototypeINS_24JSSVGFEMorphologyElementEEEPN3JSC8JSObjectEPNS2_9ExecStateEPNS2_14JSGlobalObjectE@Base 2.2.0
 (optional=templinst|arch=s390x)_ZN7WebCore15getDOMPrototypeINS_24JSSVGFEPointLightElementEEEPN3JSC8JSObjectEPNS2_9ExecStateEPNS2_14JSGlobalObjectE@Base 2.2.0
 (optional=templinst|arch=s390x)_ZN7WebCore15getDOMPrototypeINS_24JSSVGFETurbulenceElementEEEPN3JSC8JSObjectEPNS2_9ExecStateEPNS2_14JSGlobalObjectE@Base 2.2.0
 (optional=templinst|arch=s390x)_ZN7WebCore15getDOMPrototypeINS_24JSSVGFontFaceNameElementEEEPN3JSC8JSObjectEPNS2_9ExecStateEPNS2_14JSGlobalObjectE@Base 2.2.0
 (optional=templinst|arch=s390x)_ZN7WebCore15getDOMPrototypeINS_24JSSVGMissingGlyphElementEEEPN3JSC8JSObjectEPNS2_9ExecStateEPNS2_14JSGlobalObjectE@Base 2.2.0
 (optional=templinst|arch=s390x)_ZN7WebCore15getDOMPrototypeINS_24JSSVGPreserveAspectRatioEEEPN3JSC8JSObjectEPNS2_9ExecStateEPNS2_14JSGlobalObjectE@Base 2.2.0
 (optional=templinst|arch=s390x)_ZN7WebCore15getDOMPrototypeINS_24JSWebKitCSSKeyframesRuleEEEPN3JSC8JSObjectEPNS2_9ExecStateEPNS2_14JSGlobalObjectE@Base 2.2.0
 (optional=templinst|arch=s390x)_ZN7WebCore15getDOMPrototypeINS_25JSHTMLTableCaptionElementEEEPN3JSC8JSObjectEPNS2_9ExecStateEPNS2_14JSGlobalObjectE@Base 2.2.0
 (optional=templinst|arch=s390x)_ZN7WebCore15getDOMPrototypeINS_25JSHTMLTableSectionElementEEEPN3JSC8JSObjectEPNS2_9ExecStateEPNS2_14JSGlobalObjectE@Base 2.2.0
 (optional=templinst|arch=s390x)_ZN7WebCore15getDOMPrototypeINS_25JSSVGFEColorMatrixElementEEEPN3JSC8JSObjectEPNS2_9ExecStateEPNS2_14JSGlobalObjectE@Base 2.2.0
 (optional=templinst|arch=s390x)_ZN7WebCore15getDOMPrototypeINS_25JSSVGForeignObjectElementEEEPN3JSC8JSObjectEPNS2_9ExecStateEPNS2_14JSGlobalObjectE@Base 2.2.0
 (optional=templinst|arch=s390x)_ZN7WebCore15getDOMPrototypeINS_25JSWebKitCSSTransformValueEEEPN3JSC8JSObjectEPNS2_9ExecStateEPNS2_14JSGlobalObjectE@Base 2.2.0
 (optional=templinst|arch=s390x)_ZN7WebCore15getDOMPrototypeINS_25JSXMLHttpRequestExceptionEEEPN3JSC8JSObjectEPNS2_9ExecStateEPNS2_14JSGlobalObjectE@Base 2.2.0
 (optional=templinst|arch=s390x)_ZN7WebCore15getDOMPrototypeINS_26JSCanvasRenderingContext2DEEEPN3JSC8JSObjectEPNS2_9ExecStateEPNS2_14JSGlobalObjectE@Base 2.2.0
 (optional=templinst|arch=s390x)_ZN7WebCore15getDOMPrototypeINS_26JSSVGAnimatedTransformListEEEPN3JSC8JSObjectEPNS2_9ExecStateEPNS2_14JSGlobalObjectE@Base 2.2.0
 (optional=templinst|arch=s390x)_ZN7WebCore15getDOMPrototypeINS_26JSSVGFEDistantLightElementEEEPN3JSC8JSObjectEPNS2_9ExecStateEPNS2_14JSGlobalObjectE@Base 2.2.0
 (optional=templinst|arch=s390x)_ZN7WebCore15getDOMPrototypeINS_26JSSVGFEGaussianBlurElementEEEPN3JSC8JSObjectEPNS2_9ExecStateEPNS2_14JSGlobalObjectE@Base 2.2.0
 (optional=templinst|arch=s390x)_ZN7WebCore15getDOMPrototypeINS_26JSSVGFontFaceFormatElementEEEPN3JSC8JSObjectEPNS2_9ExecStateEPNS2_14JSGlobalObjectE@Base 2.2.0
 (optional=templinst|arch=s390x)_ZN7WebCore15getDOMPrototypeINS_26JSSVGLinearGradientElementEEEPN3JSC8JSObjectEPNS2_9ExecStateEPNS2_14JSGlobalObjectE@Base 2.2.0
 (optional=templinst|arch=s390x)_ZN7WebCore15getDOMPrototypeINS_26JSSVGRadialGradientElementEEEPN3JSC8JSObjectEPNS2_9ExecStateEPNS2_14JSGlobalObjectE@Base 2.2.0
 (optional=templinst|arch=s390x)_ZN7WebCore15getDOMPrototypeINS_27JSSVGPathSegCurvetoCubicAbsEEEPN3JSC8JSObjectEPNS2_9ExecStateEPNS2_14JSGlobalObjectE@Base 2.2.0
 (optional=templinst|arch=s390x)_ZN7WebCore15getDOMPrototypeINS_27JSSVGPathSegCurvetoCubicRelEEEPN3JSC8JSObjectEPNS2_9ExecStateEPNS2_14JSGlobalObjectE@Base 2.2.0
 (optional=templinst|arch=s390x)_ZN7WebCore15getDOMPrototypeINS_27JSSVGTextPositioningElementEEEPN3JSC8JSObjectEPNS2_9ExecStateEPNS2_14JSGlobalObjectE@Base 2.2.0
 (optional=templinst|arch=s390x)_ZN7WebCore15getDOMPrototypeINS_28JSSVGAnimateTransformElementEEEPN3JSC8JSObjectEPNS2_9ExecStateEPNS2_14JSGlobalObjectE@Base 2.2.0
 (optional=templinst|arch=s390x)_ZN7WebCore15getDOMPrototypeINS_28JSSVGFEConvolveMatrixElementEEEPN3JSC8JSObjectEPNS2_9ExecStateEPNS2_14JSGlobalObjectE@Base 2.2.0
 (optional=templinst|arch=s390x)_ZN7WebCore15getDOMPrototypeINS_29JSSVGFEDiffuseLightingElementEEEPN3JSC8JSObjectEPNS2_9ExecStateEPNS2_14JSGlobalObjectE@Base 2.2.0
 (optional=templinst|arch=s390x)_ZN7WebCore15getDOMPrototypeINS_29JSSVGFEDisplacementMapElementEEEPN3JSC8JSObjectEPNS2_9ExecStateEPNS2_14JSGlobalObjectE@Base 2.2.0
 (optional=templinst|arch=s390x)_ZN7WebCore15getDOMPrototypeINS_29JSSVGPathSegLinetoVerticalAbsEEEPN3JSC8JSObjectEPNS2_9ExecStateEPNS2_14JSGlobalObjectE@Base 2.2.0
 (optional=templinst|arch=s390x)_ZN7WebCore15getDOMPrototypeINS_29JSSVGPathSegLinetoVerticalRelEEEPN3JSC8JSObjectEPNS2_9ExecStateEPNS2_14JSGlobalObjectE@Base 2.2.0
 (optional=templinst|arch=s390x)_ZN7WebCore15getDOMPrototypeINS_29JSXMLHttpRequestProgressEventEEEPN3JSC8JSObjectEPNS2_9ExecStateEPNS2_14JSGlobalObjectE@Base 2.2.0
 (optional=templinst|arch=s390x)_ZN7WebCore15getDOMPrototypeINS_30JSSVGFESpecularLightingElementEEEPN3JSC8JSObjectEPNS2_9ExecStateEPNS2_14JSGlobalObjectE@Base 2.2.0
 (optional=templinst|arch=s390x)_ZN7WebCore15getDOMPrototypeINS_31JSSVGFEComponentTransferElementEEEPN3JSC8JSObjectEPNS2_9ExecStateEPNS2_14JSGlobalObjectE@Base 2.2.0
 (optional=templinst|arch=s390x)_ZN7WebCore15getDOMPrototypeINS_31JSSVGPathSegCurvetoQuadraticAbsEEEPN3JSC8JSObjectEPNS2_9ExecStateEPNS2_14JSGlobalObjectE@Base 2.2.0
 (optional=templinst|arch=s390x)_ZN7WebCore15getDOMPrototypeINS_31JSSVGPathSegCurvetoQuadraticRelEEEPN3JSC8JSObjectEPNS2_9ExecStateEPNS2_14JSGlobalObjectE@Base 2.2.0
 (optional=templinst|arch=s390x)_ZN7WebCore15getDOMPrototypeINS_31JSSVGPathSegLinetoHorizontalAbsEEEPN3JSC8JSObjectEPNS2_9ExecStateEPNS2_14JSGlobalObjectE@Base 2.2.0
 (optional=templinst|arch=s390x)_ZN7WebCore15getDOMPrototypeINS_31JSSVGPathSegLinetoHorizontalRelEEEPN3JSC8JSObjectEPNS2_9ExecStateEPNS2_14JSGlobalObjectE@Base 2.2.0
 (optional=templinst|arch=s390x)_ZN7WebCore15getDOMPrototypeINS_32JSSVGAnimatedPreserveAspectRatioEEEPN3JSC8JSObjectEPNS2_9ExecStateEPNS2_14JSGlobalObjectE@Base 2.2.0
 (optional=templinst|arch=s390x)_ZN7WebCore15getDOMPrototypeINS_33JSSVGPathSegCurvetoCubicSmoothAbsEEEPN3JSC8JSObjectEPNS2_9ExecStateEPNS2_14JSGlobalObjectE@Base 2.2.0
 (optional=templinst|arch=s390x)_ZN7WebCore15getDOMPrototypeINS_33JSSVGPathSegCurvetoCubicSmoothRelEEEPN3JSC8JSObjectEPNS2_9ExecStateEPNS2_14JSGlobalObjectE@Base 2.2.0
 (optional=templinst|arch=s390x)_ZN7WebCore15getDOMPrototypeINS_37JSSVGComponentTransferFunctionElementEEEPN3JSC8JSObjectEPNS2_9ExecStateEPNS2_14JSGlobalObjectE@Base 2.2.0
 (optional=templinst|arch=s390x)_ZN7WebCore15getDOMPrototypeINS_37JSSVGPathSegCurvetoQuadraticSmoothAbsEEEPN3JSC8JSObjectEPNS2_9ExecStateEPNS2_14JSGlobalObjectE@Base 2.2.0
 (optional=templinst|arch=s390x)_ZN7WebCore15getDOMPrototypeINS_37JSSVGPathSegCurvetoQuadraticSmoothRelEEEPN3JSC8JSObjectEPNS2_9ExecStateEPNS2_14JSGlobalObjectE@Base 2.2.0
 (optional=templinst|arch=s390x)_ZN7WebCore15getDOMPrototypeINS_6JSAttrEEEPN3JSC8JSObjectEPNS2_9ExecStateEPNS2_14JSGlobalObjectE@Base 2.2.0
 (optional=templinst|arch=s390x)_ZN7WebCore15getDOMPrototypeINS_6JSBlobEEEPN3JSC8JSObjectEPNS2_9ExecStateEPNS2_14JSGlobalObjectE@Base 2.2.0
 (optional=templinst|arch=s390x)_ZN7WebCore15getDOMPrototypeINS_6JSFileEEEPN3JSC8JSObjectEPNS2_9ExecStateEPNS2_14JSGlobalObjectE@Base 2.2.0
 (optional=templinst|arch=s390x)_ZN7WebCore15getDOMPrototypeINS_6JSNodeEEEPN3JSC8JSObjectEPNS2_9ExecStateEPNS2_14JSGlobalObjectE@Base 2.2.0
 (optional=templinst|arch=s390x)_ZN7WebCore15getDOMPrototypeINS_6JSRectEEEPN3JSC8JSObjectEPNS2_9ExecStateEPNS2_14JSGlobalObjectE@Base 2.2.0
 (optional=templinst|arch=s390x)_ZN7WebCore15getDOMPrototypeINS_6JSTextEEEPN3JSC8JSObjectEPNS2_9ExecStateEPNS2_14JSGlobalObjectE@Base 2.2.0
 (optional=templinst|arch=s390x)_ZN7WebCore15getDOMPrototypeINS_7JSEventEEEPN3JSC8JSObjectEPNS2_9ExecStateEPNS2_14JSGlobalObjectE@Base 2.2.0
 (optional=templinst|arch=s390x)_ZN7WebCore15getDOMPrototypeINS_7JSRangeEEEPN3JSC8JSObjectEPNS2_9ExecStateEPNS2_14JSGlobalObjectE@Base 2.2.0
 (optional=templinst|arch=s390x)_ZN7WebCore15getDOMPrototypeINS_7JSTouchEEEPN3JSC8JSObjectEPNS2_9ExecStateEPNS2_14JSGlobalObjectE@Base 2.2.0
 (optional=templinst|arch=s390x)_ZN7WebCore15getDOMPrototypeINS_8JSCryptoEEEPN3JSC8JSObjectEPNS2_9ExecStateEPNS2_14JSGlobalObjectE@Base 2.2.0
 (optional=templinst|arch=s390x)_ZN7WebCore15getDOMPrototypeINS_8JSDOMURLEEEPN3JSC8JSObjectEPNS2_9ExecStateEPNS2_14JSGlobalObjectE@Base 2.2.0
 (optional=templinst|arch=s390x)_ZN7WebCore15getDOMPrototypeINS_8JSEntityEEEPN3JSC8JSObjectEPNS2_9ExecStateEPNS2_14JSGlobalObjectE@Base 2.2.0
 (optional=templinst|arch=s390x)_ZN7WebCore15getDOMPrototypeINS_8JSScreenEEEPN3JSC8JSObjectEPNS2_9ExecStateEPNS2_14JSGlobalObjectE@Base 2.2.0
 (optional=templinst|arch=s390x)_ZN7WebCore15getDOMPrototypeINS_8JSWorkerEEEPN3JSC8JSObjectEPNS2_9ExecStateEPNS2_14JSGlobalObjectE@Base 2.2.0
 (optional=templinst|arch=s390x)_ZN7WebCore15getDOMPrototypeINS_9JSBarInfoEEEPN3JSC8JSObjectEPNS2_9ExecStateEPNS2_14JSGlobalObjectE@Base 2.2.0
 (optional=templinst|arch=s390x)_ZN7WebCore15getDOMPrototypeINS_9JSCSSRuleEEEPN3JSC8JSObjectEPNS2_9ExecStateEPNS2_14JSGlobalObjectE@Base 2.2.0
 (optional=templinst|arch=s390x)_ZN7WebCore15getDOMPrototypeINS_9JSCommentEEEPN3JSC8JSObjectEPNS2_9ExecStateEPNS2_14JSGlobalObjectE@Base 2.2.0
 (optional=templinst|arch=s390x)_ZN7WebCore15getDOMPrototypeINS_9JSConsoleEEEPN3JSC8JSObjectEPNS2_9ExecStateEPNS2_14JSGlobalObjectE@Base 2.2.0
 (optional=templinst|arch=s390x)_ZN7WebCore15getDOMPrototypeINS_9JSCounterEEEPN3JSC8JSObjectEPNS2_9ExecStateEPNS2_14JSGlobalObjectE@Base 2.2.0
 (optional=templinst|arch=s390x)_ZN7WebCore15getDOMPrototypeINS_9JSElementEEEPN3JSC8JSObjectEPNS2_9ExecStateEPNS2_14JSGlobalObjectE@Base 2.2.0
 (optional=templinst|arch=s390x)_ZN7WebCore15getDOMPrototypeINS_9JSHistoryEEEPN3JSC8JSObjectEPNS2_9ExecStateEPNS2_14JSGlobalObjectE@Base 2.2.0
 (optional=templinst|arch=s390x)_ZN7WebCore15getDOMPrototypeINS_9JSSVGRectEEEPN3JSC8JSObjectEPNS2_9ExecStateEPNS2_14JSGlobalObjectE@Base 2.2.0
 (optional=templinst|arch=s390x)_ZN7WebCore15getDOMPrototypeINS_9JSStorageEEEPN3JSC8JSObjectEPNS2_9ExecStateEPNS2_14JSGlobalObjectE@Base 2.2.0
 (optional=templinst|arch=s390x)_ZN7WebCore15getDOMPrototypeINS_9JSUIEventEEEPN3JSC8JSObjectEPNS2_9ExecStateEPNS2_14JSGlobalObjectE@Base 2.2.0
 (optional=templinst|arch=s390x)_ZN7WebCore15getDOMStructureINS_10JSDatabaseEEEPN3JSC9StructureEPNS2_9ExecStateEPNS_17JSDOMGlobalObjectE@Base 2.2.0
 (optional=templinst|arch=s390x)_ZN7WebCore15getDOMStructureINS_10JSFileListEEEPN3JSC9StructureEPNS2_9ExecStateEPNS_17JSDOMGlobalObjectE@Base 2.2.0
 (optional=templinst|arch=s390x)_ZN7WebCore15getDOMStructureINS_10JSNodeListEEEPN3JSC9StructureEPNS2_9ExecStateEPNS_17JSDOMGlobalObjectE@Base 2.2.0
 (optional=templinst|arch=s390x)_ZN7WebCore15getDOMStructureINS_10JSRGBColorEEEPN3JSC9StructureEPNS2_9ExecStateEPNS_17JSDOMGlobalObjectE@Base 2.2.0
 (optional=templinst|arch=s390x)_ZN7WebCore15getDOMStructureINS_10JSSQLErrorEEEPN3JSC9StructureEPNS2_9ExecStateEPNS_17JSDOMGlobalObjectE@Base 2.2.0
 (optional=templinst|arch=s390x)_ZN7WebCore15getDOMStructureINS_10JSSVGAngleEEEPN3JSC9StructureEPNS2_9ExecStateEPNS_17JSDOMGlobalObjectE@Base 2.2.0
 (optional=templinst|arch=s390x)_ZN7WebCore15getDOMStructureINS_10JSSVGPointEEEPN3JSC9StructureEPNS2_9ExecStateEPNS_17JSDOMGlobalObjectE@Base 2.2.0
 (optional=templinst|arch=s390x)_ZN7WebCore15getDOMStructureINS_11JSClipboardEEEPN3JSC9StructureEPNS2_9ExecStateEPNS_17JSDOMGlobalObjectE@Base 2.2.0
 (optional=templinst|arch=s390x)_ZN7WebCore15getDOMStructureINS_11JSDOMParserEEEPN3JSC9StructureEPNS2_9ExecStateEPNS_17JSDOMGlobalObjectE@Base 2.2.0
 (optional=templinst|arch=s390x)_ZN7WebCore15getDOMStructureINS_11JSDOMPluginEEEPN3JSC9StructureEPNS2_9ExecStateEPNS_17JSDOMGlobalObjectE@Base 2.2.0
 (optional=templinst|arch=s390x)_ZN7WebCore15getDOMStructureINS_11JSFileErrorEEEPN3JSC9StructureEPNS2_9ExecStateEPNS_17JSDOMGlobalObjectE@Base 2.2.0
 (optional=templinst|arch=s390x)_ZN7WebCore15getDOMStructureINS_11JSInternalsEEEPN3JSC9StructureEPNS2_9ExecStateEPNS_17JSDOMGlobalObjectE@Base 2.2.0
 (optional=templinst|arch=s390x)_ZN7WebCore15getDOMStructureINS_11JSMediaListEEEPN3JSC9StructureEPNS2_9ExecStateEPNS_17JSDOMGlobalObjectE@Base 2.2.0
 (optional=templinst|arch=s390x)_ZN7WebCore15getDOMStructureINS_11JSNavigatorEEEPN3JSC9StructureEPNS2_9ExecStateEPNS_17JSDOMGlobalObjectE@Base 2.2.0
 (optional=templinst|arch=s390x)_ZN7WebCore15getDOMStructureINS_11JSSVGLengthEEEPN3JSC9StructureEPNS2_9ExecStateEPNS_17JSDOMGlobalObjectE@Base 2.2.0
 (optional=templinst|arch=s390x)_ZN7WebCore15getDOMStructureINS_11JSSVGMatrixEEEPN3JSC9StructureEPNS2_9ExecStateEPNS_17JSDOMGlobalObjectE@Base 2.2.0
 (optional=templinst|arch=s390x)_ZN7WebCore15getDOMStructureINS_11JSSVGNumberEEEPN3JSC9StructureEPNS2_9ExecStateEPNS_17JSDOMGlobalObjectE@Base 2.2.0
 (optional=templinst|arch=s390x)_ZN7WebCore15getDOMStructureINS_11JSTouchListEEEPN3JSC9StructureEPNS2_9ExecStateEPNS_17JSDOMGlobalObjectE@Base 2.2.0
 (optional=templinst|arch=s390x)_ZN7WebCore15getDOMStructureINS_12JSClientRectEEEPN3JSC9StructureEPNS2_9ExecStateEPNS_17JSDOMGlobalObjectE@Base 2.2.0
 (optional=templinst|arch=s390x)_ZN7WebCore15getDOMStructureINS_12JSFileReaderEEEPN3JSC9StructureEPNS2_9ExecStateEPNS_17JSDOMGlobalObjectE@Base 2.2.0
 (optional=templinst|arch=s390x)_ZN7WebCore15getDOMStructureINS_12JSMediaErrorEEEPN3JSC9StructureEPNS2_9ExecStateEPNS_17JSDOMGlobalObjectE@Base 2.2.0
 (optional=templinst|arch=s390x)_ZN7WebCore15getDOMStructureINS_12JSMemoryInfoEEEPN3JSC9StructureEPNS2_9ExecStateEPNS_17JSDOMGlobalObjectE@Base 2.2.0
 (optional=templinst|arch=s390x)_ZN7WebCore15getDOMStructureINS_12JSNodeFilterEEEPN3JSC9StructureEPNS2_9ExecStateEPNS_17JSDOMGlobalObjectE@Base 2.2.0
 (optional=templinst|arch=s390x)_ZN7WebCore15getDOMStructureINS_12JSSVGElementEEEPN3JSC9StructureEPNS2_9ExecStateEPNS_17JSDOMGlobalObjectE@Base 2.2.0
 (optional=templinst|arch=s390x)_ZN7WebCore15getDOMStructureINS_12JSStyleMediaEEEPN3JSC9StructureEPNS2_9ExecStateEPNS_17JSDOMGlobalObjectE@Base 2.2.0
 (optional=templinst|arch=s390x)_ZN7WebCore15getDOMStructureINS_12JSTimeRangesEEEPN3JSC9StructureEPNS2_9ExecStateEPNS_17JSDOMGlobalObjectE@Base 2.2.0
 (optional=templinst|arch=s390x)_ZN7WebCore15getDOMStructureINS_12JSTreeWalkerEEEPN3JSC9StructureEPNS2_9ExecStateEPNS_17JSDOMGlobalObjectE@Base 2.2.0
 (optional=templinst|arch=s390x)_ZN7WebCore15getDOMStructureINS_13JSArrayBufferEEEPN3JSC9StructureEPNS2_9ExecStateEPNS_17JSDOMGlobalObjectE@Base 2.2.0
 (optional=templinst|arch=s390x)_ZN7WebCore15getDOMStructureINS_13JSCSSRuleListEEEPN3JSC9StructureEPNS2_9ExecStateEPNS_17JSDOMGlobalObjectE@Base 2.2.0
 (optional=templinst|arch=s390x)_ZN7WebCore15getDOMStructureINS_13JSCoordinatesEEEPN3JSC9StructureEPNS2_9ExecStateEPNS_17JSDOMGlobalObjectE@Base 2.2.0
 (optional=templinst|arch=s390x)_ZN7WebCore15getDOMStructureINS_13JSDOMFormDataEEEPN3JSC9StructureEPNS2_9ExecStateEPNS_17JSDOMGlobalObjectE@Base 2.2.0
 (optional=templinst|arch=s390x)_ZN7WebCore15getDOMStructureINS_13JSDOMMimeTypeEEEPN3JSC9StructureEPNS2_9ExecStateEPNS_17JSDOMGlobalObjectE@Base 2.2.0
 (optional=templinst|arch=s390x)_ZN7WebCore15getDOMStructureINS_13JSEventSourceEEEPN3JSC9StructureEPNS2_9ExecStateEPNS_17JSDOMGlobalObjectE@Base 2.2.0
 (optional=templinst|arch=s390x)_ZN7WebCore15getDOMStructureINS_13JSHTMLElementEEEPN3JSC9StructureEPNS2_9ExecStateEPNS_17JSDOMGlobalObjectE@Base 2.2.0
 (optional=templinst|arch=s390x)_ZN7WebCore15getDOMStructureINS_13JSMessagePortEEEPN3JSC9StructureEPNS2_9ExecStateEPNS_17JSDOMGlobalObjectE@Base 2.2.0
 (optional=templinst|arch=s390x)_ZN7WebCore15getDOMStructureINS_13JSSVGAElementEEEPN3JSC9StructureEPNS2_9ExecStateEPNS_17JSDOMGlobalObjectE@Base 2.2.0
 (optional=templinst|arch=s390x)_ZN7WebCore15getDOMStructureINS_13JSSVGGElementEEEPN3JSC9StructureEPNS2_9ExecStateEPNS_17JSDOMGlobalObjectE@Base 2.2.0
 (optional=templinst|arch=s390x)_ZN7WebCore15getDOMStructureINS_13JSTextMetricsEEEPN3JSC9StructureEPNS2_9ExecStateEPNS_17JSDOMGlobalObjectE@Base 2.2.0
 (optional=templinst|arch=s390x)_ZN7WebCore15getDOMStructureINS_13JSWebKitPointEEEPN3JSC9StructureEPNS2_9ExecStateEPNS_17JSDOMGlobalObjectE@Base 2.2.0
 (optional=templinst|arch=s390x)_ZN7WebCore15getDOMStructureINS_13JSXPathResultEEEPN3JSC9StructureEPNS2_9ExecStateEPNS_17JSDOMGlobalObjectE@Base 2.2.0
 (optional=templinst|arch=s390x)_ZN7WebCore15getDOMStructureINS_14JSDOMSelectionEEEPN3JSC9StructureEPNS2_9ExecStateEPNS_17JSDOMGlobalObjectE@Base 2.2.0
 (optional=templinst|arch=s390x)_ZN7WebCore15getDOMStructureINS_14JSDOMStringMapEEEPN3JSC9StructureEPNS2_9ExecStateEPNS_17JSDOMGlobalObjectE@Base 2.2.0
 (optional=templinst|arch=s390x)_ZN7WebCore15getDOMStructureINS_14JSDOMTokenListEEEPN3JSC9StructureEPNS2_9ExecStateEPNS_17JSDOMGlobalObjectE@Base 2.2.0
 (optional=templinst|arch=s390x)_ZN7WebCore15getDOMStructureINS_14JSDatabaseSyncEEEPN3JSC9StructureEPNS2_9ExecStateEPNS_17JSDOMGlobalObjectE@Base 2.2.0
 (optional=templinst|arch=s390x)_ZN7WebCore15getDOMStructureINS_14JSNamedNodeMapEEEPN3JSC9StructureEPNS2_9ExecStateEPNS_17JSDOMGlobalObjectE@Base 2.2.0
 (optional=templinst|arch=s390x)_ZN7WebCore15getDOMStructureINS_14JSNodeIteratorEEEPN3JSC9StructureEPNS2_9ExecStateEPNS_17JSDOMGlobalObjectE@Base 2.2.0
 (optional=templinst|arch=s390x)_ZN7WebCore15getDOMStructureINS_14JSNotificationEEEPN3JSC9StructureEPNS2_9ExecStateEPNS_17JSDOMGlobalObjectE@Base 2.2.0
 (optional=templinst|arch=s390x)_ZN7WebCore15getDOMStructureINS_14JSSQLExceptionEEEPN3JSC9StructureEPNS2_9ExecStateEPNS_17JSDOMGlobalObjectE@Base 2.2.0
 (optional=templinst|arch=s390x)_ZN7WebCore15getDOMStructureINS_14JSSQLResultSetEEEPN3JSC9StructureEPNS2_9ExecStateEPNS_17JSDOMGlobalObjectE@Base 2.2.0
 (optional=templinst|arch=s390x)_ZN7WebCore15getDOMStructureINS_14JSSVGExceptionEEEPN3JSC9StructureEPNS2_9ExecStateEPNS_17JSDOMGlobalObjectE@Base 2.2.0
 (optional=templinst|arch=s390x)_ZN7WebCore15getDOMStructureINS_14JSSVGPointListEEEPN3JSC9StructureEPNS2_9ExecStateEPNS_17JSDOMGlobalObjectE@Base 2.2.0
 (optional=templinst|arch=s390x)_ZN7WebCore15getDOMStructureINS_14JSSVGTransformEEEPN3JSC9StructureEPNS2_9ExecStateEPNS_17JSDOMGlobalObjectE@Base 2.2.0
 (optional=templinst|arch=s390x)_ZN7WebCore15getDOMStructureINS_14JSSVGUnitTypesEEEPN3JSC9StructureEPNS2_9ExecStateEPNS_17JSDOMGlobalObjectE@Base 2.2.0
 (optional=templinst|arch=s390x)_ZN7WebCore15getDOMStructureINS_14JSSharedWorkerEEEPN3JSC9StructureEPNS2_9ExecStateEPNS_17JSDOMGlobalObjectE@Base 2.2.0
 (optional=templinst|arch=s390x)_ZN7WebCore15getDOMStructureINS_14JSVoidCallbackEEEPN3JSC9StructureEPNS2_9ExecStateEPNS_17JSDOMGlobalObjectE@Base 2.2.0
 (optional=templinst|arch=s390x)_ZN7WebCore15getDOMStructureINS_15JSCanvasPatternEEEPN3JSC9StructureEPNS2_9ExecStateEPNS_17JSDOMGlobalObjectE@Base 2.2.0
 (optional=templinst|arch=s390x)_ZN7WebCore15getDOMStructureINS_15JSCharacterDataEEEPN3JSC9StructureEPNS2_9ExecStateEPNS_17JSDOMGlobalObjectE@Base 2.2.0
 (optional=templinst|arch=s390x)_ZN7WebCore15getDOMStructureINS_15JSDOMStringListEEEPN3JSC9StructureEPNS2_9ExecStateEPNS_17JSDOMGlobalObjectE@Base 2.2.0
 (optional=templinst|arch=s390x)_ZN7WebCore15getDOMStructureINS_15JSFileExceptionEEEPN3JSC9StructureEPNS2_9ExecStateEPNS_17JSDOMGlobalObjectE@Base 2.2.0
 (optional=templinst|arch=s390x)_ZN7WebCore15getDOMStructureINS_15JSHTMLBRElementEEEPN3JSC9StructureEPNS2_9ExecStateEPNS_17JSDOMGlobalObjectE@Base 2.2.0
 (optional=templinst|arch=s390x)_ZN7WebCore15getDOMStructureINS_15JSHTMLHRElementEEEPN3JSC9StructureEPNS2_9ExecStateEPNS_17JSDOMGlobalObjectE@Base 2.2.0
 (optional=templinst|arch=s390x)_ZN7WebCore15getDOMStructureINS_15JSHTMLLIElementEEEPN3JSC9StructureEPNS2_9ExecStateEPNS_17JSDOMGlobalObjectE@Base 2.2.0
 (optional=templinst|arch=s390x)_ZN7WebCore15getDOMStructureINS_15JSSVGLengthListEEEPN3JSC9StructureEPNS2_9ExecStateEPNS_17JSDOMGlobalObjectE@Base 2.2.0
 (optional=templinst|arch=s390x)_ZN7WebCore15getDOMStructureINS_15JSSVGNumberListEEEPN3JSC9StructureEPNS2_9ExecStateEPNS_17JSDOMGlobalObjectE@Base 2.2.0
 (optional=templinst|arch=s390x)_ZN7WebCore15getDOMStructureINS_15JSSVGSVGElementEEEPN3JSC9StructureEPNS2_9ExecStateEPNS_17JSDOMGlobalObjectE@Base 2.2.0
 (optional=templinst|arch=s390x)_ZN7WebCore15getDOMStructureINS_15JSSVGSetElementEEEPN3JSC9StructureEPNS2_9ExecStateEPNS_17JSDOMGlobalObjectE@Base 2.2.0
 (optional=templinst|arch=s390x)_ZN7WebCore15getDOMStructureINS_15JSSVGStringListEEEPN3JSC9StructureEPNS2_9ExecStateEPNS_17JSDOMGlobalObjectE@Base 2.2.0
 (optional=templinst|arch=s390x)_ZN7WebCore15getDOMStructureINS_15JSSVGUseElementEEEPN3JSC9StructureEPNS2_9ExecStateEPNS_17JSDOMGlobalObjectE@Base 2.2.0
 (optional=templinst|arch=s390x)_ZN7WebCore15getDOMStructureINS_15JSScriptProfileEEEPN3JSC9StructureEPNS2_9ExecStateEPNS_17JSDOMGlobalObjectE@Base 2.2.0
 (optional=templinst|arch=s390x)_ZN7WebCore15getDOMStructureINS_15JSValidityStateEEEPN3JSC9StructureEPNS2_9ExecStateEPNS_17JSDOMGlobalObjectE@Base 2.2.0
 (optional=templinst|arch=s390x)_ZN7WebCore15getDOMStructureINS_15JSXMLSerializerEEEPN3JSC9StructureEPNS2_9ExecStateEPNS_17JSDOMGlobalObjectE@Base 2.2.0
 (optional=templinst|arch=s390x)_ZN7WebCore15getDOMStructureINS_16JSAbstractWorkerEEEPN3JSC9StructureEPNS2_9ExecStateEPNS_17JSDOMGlobalObjectE@Base 2.2.0
 (optional=templinst|arch=s390x)_ZN7WebCore15getDOMStructureINS_16JSCanvasGradientEEEPN3JSC9StructureEPNS2_9ExecStateEPNS_17JSDOMGlobalObjectE@Base 2.2.0
 (optional=templinst|arch=s390x)_ZN7WebCore15getDOMStructureINS_16JSClientRectListEEEPN3JSC9StructureEPNS2_9ExecStateEPNS_17JSDOMGlobalObjectE@Base 2.2.0
 (optional=templinst|arch=s390x)_ZN7WebCore15getDOMStructureINS_16JSDOMPluginArrayEEEPN3JSC9StructureEPNS2_9ExecStateEPNS_17JSDOMGlobalObjectE@Base 2.2.0
 (optional=templinst|arch=s390x)_ZN7WebCore15getDOMStructureINS_16JSEventExceptionEEEPN3JSC9StructureEPNS2_9ExecStateEPNS_17JSDOMGlobalObjectE@Base 2.2.0
 (optional=templinst|arch=s390x)_ZN7WebCore15getDOMStructureINS_16JSFileReaderSyncEEEPN3JSC9StructureEPNS2_9ExecStateEPNS_17JSDOMGlobalObjectE@Base 2.2.0
 (optional=templinst|arch=s390x)_ZN7WebCore15getDOMStructureINS_16JSHTMLDivElementEEEPN3JSC9StructureEPNS2_9ExecStateEPNS_17JSDOMGlobalObjectE@Base 2.2.0
 (optional=templinst|arch=s390x)_ZN7WebCore15getDOMStructureINS_16JSHTMLMapElementEEEPN3JSC9StructureEPNS2_9ExecStateEPNS_17JSDOMGlobalObjectE@Base 2.2.0
 (optional=templinst|arch=s390x)_ZN7WebCore15getDOMStructureINS_16JSHTMLModElementEEEPN3JSC9StructureEPNS2_9ExecStateEPNS_17JSDOMGlobalObjectE@Base 2.2.0
 (optional=templinst|arch=s390x)_ZN7WebCore15getDOMStructureINS_16JSHTMLPreElementEEEPN3JSC9StructureEPNS2_9ExecStateEPNS_17JSDOMGlobalObjectE@Base 2.2.0
 (optional=templinst|arch=s390x)_ZN7WebCore15getDOMStructureINS_16JSMediaQueryListEEEPN3JSC9StructureEPNS2_9ExecStateEPNS_17JSDOMGlobalObjectE@Base 2.2.0
 (optional=templinst|arch=s390x)_ZN7WebCore15getDOMStructureINS_16JSMessageChannelEEEPN3JSC9StructureEPNS2_9ExecStateEPNS_17JSDOMGlobalObjectE@Base 2.2.0
 (optional=templinst|arch=s390x)_ZN7WebCore15getDOMStructureINS_16JSRangeExceptionEEEPN3JSC9StructureEPNS2_9ExecStateEPNS_17JSDOMGlobalObjectE@Base 2.2.0
 (optional=templinst|arch=s390x)_ZN7WebCore15getDOMStructureINS_16JSSQLTransactionEEEPN3JSC9StructureEPNS2_9ExecStateEPNS_17JSDOMGlobalObjectE@Base 2.2.0
 (optional=templinst|arch=s390x)_ZN7WebCore15getDOMStructureINS_16JSSVGDefsElementEEEPN3JSC9StructureEPNS2_9ExecStateEPNS_17JSDOMGlobalObjectE@Base 2.2.0
 (optional=templinst|arch=s390x)_ZN7WebCore15getDOMStructureINS_16JSSVGDescElementEEEPN3JSC9StructureEPNS2_9ExecStateEPNS_17JSDOMGlobalObjectE@Base 2.2.0
 (optional=templinst|arch=s390x)_ZN7WebCore15getDOMStructureINS_16JSSVGFontElementEEEPN3JSC9StructureEPNS2_9ExecStateEPNS_17JSDOMGlobalObjectE@Base 2.2.0
 (optional=templinst|arch=s390x)_ZN7WebCore15getDOMStructureINS_16JSSVGLineElementEEEPN3JSC9StructureEPNS2_9ExecStateEPNS_17JSDOMGlobalObjectE@Base 2.2.0
 (optional=templinst|arch=s390x)_ZN7WebCore15getDOMStructureINS_16JSSVGMaskElementEEEPN3JSC9StructureEPNS2_9ExecStateEPNS_17JSDOMGlobalObjectE@Base 2.2.0
 (optional=templinst|arch=s390x)_ZN7WebCore15getDOMStructureINS_16JSSVGPathElementEEEPN3JSC9StructureEPNS2_9ExecStateEPNS_17JSDOMGlobalObjectE@Base 2.2.0
 (optional=templinst|arch=s390x)_ZN7WebCore15getDOMStructureINS_16JSSVGPathSegListEEEPN3JSC9StructureEPNS2_9ExecStateEPNS_17JSDOMGlobalObjectE@Base 2.2.0
 (optional=templinst|arch=s390x)_ZN7WebCore15getDOMStructureINS_16JSSVGRectElementEEEPN3JSC9StructureEPNS2_9ExecStateEPNS_17JSDOMGlobalObjectE@Base 2.2.0
 (optional=templinst|arch=s390x)_ZN7WebCore15getDOMStructureINS_16JSSVGStopElementEEEPN3JSC9StructureEPNS2_9ExecStateEPNS_17JSDOMGlobalObjectE@Base 2.2.0
 (optional=templinst|arch=s390x)_ZN7WebCore15getDOMStructureINS_16JSSVGTRefElementEEEPN3JSC9StructureEPNS2_9ExecStateEPNS_17JSDOMGlobalObjectE@Base 2.2.0
 (optional=templinst|arch=s390x)_ZN7WebCore15getDOMStructureINS_16JSSVGTextElementEEEPN3JSC9StructureEPNS2_9ExecStateEPNS_17JSDOMGlobalObjectE@Base 2.2.0
 (optional=templinst|arch=s390x)_ZN7WebCore15getDOMStructureINS_16JSSVGViewElementEEEPN3JSC9StructureEPNS2_9ExecStateEPNS_17JSDOMGlobalObjectE@Base 2.2.0
 (optional=templinst|arch=s390x)_ZN7WebCore15getDOMStructureINS_16JSStyleSheetListEEEPN3JSC9StructureEPNS2_9ExecStateEPNS_17JSDOMGlobalObjectE@Base 2.2.0
 (optional=templinst|arch=s390x)_ZN7WebCore15getDOMStructureINS_16JSWorkerLocationEEEPN3JSC9StructureEPNS2_9ExecStateEPNS_17JSDOMGlobalObjectE@Base 2.2.0
 (optional=templinst|arch=s390x)_ZN7WebCore15getDOMStructureINS_16JSXPathEvaluatorEEEPN3JSC9StructureEPNS2_9ExecStateEPNS_17JSDOMGlobalObjectE@Base 2.2.0
 (optional=templinst|arch=s390x)_ZN7WebCore15getDOMStructureINS_16JSXPathExceptionEEEPN3JSC9StructureEPNS2_9ExecStateEPNS_17JSDOMGlobalObjectE@Base 2.2.0
 (optional=templinst|arch=s390x)_ZN7WebCore15getDOMStructureINS_17JSArrayBufferViewEEEPN3JSC9StructureEPNS2_9ExecStateEPNS_17JSDOMGlobalObjectE@Base 2.2.0
 (optional=templinst|arch=s390x)_ZN7WebCore15getDOMStructureINS_17JSHTMLAreaElementEEEPN3JSC9StructureEPNS2_9ExecStateEPNS_17JSDOMGlobalObjectE@Base 2.2.0
 (optional=templinst|arch=s390x)_ZN7WebCore15getDOMStructureINS_17JSHTMLBaseElementEEEPN3JSC9StructureEPNS2_9ExecStateEPNS_17JSDOMGlobalObjectE@Base 2.2.0
 (optional=templinst|arch=s390x)_ZN7WebCore15getDOMStructureINS_17JSHTMLBodyElementEEEPN3JSC9StructureEPNS2_9ExecStateEPNS_17JSDOMGlobalObjectE@Base 2.2.0
 (optional=templinst|arch=s390x)_ZN7WebCore15getDOMStructureINS_17JSHTMLFontElementEEEPN3JSC9StructureEPNS2_9ExecStateEPNS_17JSDOMGlobalObjectE@Base 2.2.0
 (optional=templinst|arch=s390x)_ZN7WebCore15getDOMStructureINS_17JSHTMLFormElementEEEPN3JSC9StructureEPNS2_9ExecStateEPNS_17JSDOMGlobalObjectE@Base 2.2.0
 (optional=templinst|arch=s390x)_ZN7WebCore15getDOMStructureINS_17JSHTMLHeadElementEEEPN3JSC9StructureEPNS2_9ExecStateEPNS_17JSDOMGlobalObjectE@Base 2.2.0
 (optional=templinst|arch=s390x)_ZN7WebCore15getDOMStructureINS_17JSHTMLHtmlElementEEEPN3JSC9StructureEPNS2_9ExecStateEPNS_17JSDOMGlobalObjectE@Base 2.2.0
 (optional=templinst|arch=s390x)_ZN7WebCore15getDOMStructureINS_17JSHTMLLinkElementEEEPN3JSC9StructureEPNS2_9ExecStateEPNS_17JSDOMGlobalObjectE@Base 2.2.0
 (optional=templinst|arch=s390x)_ZN7WebCore15getDOMStructureINS_17JSHTMLMenuElementEEEPN3JSC9StructureEPNS2_9ExecStateEPNS_17JSDOMGlobalObjectE@Base 2.2.0
 (optional=templinst|arch=s390x)_ZN7WebCore15getDOMStructureINS_17JSHTMLMetaElementEEEPN3JSC9StructureEPNS2_9ExecStateEPNS_17JSDOMGlobalObjectE@Base 2.2.0
 (optional=templinst|arch=s390x)_ZN7WebCore15getDOMStructureINS_17JSSVGAnimatedRectEEEPN3JSC9StructureEPNS2_9ExecStateEPNS_17JSDOMGlobalObjectE@Base 2.2.0
 (optional=templinst|arch=s390x)_ZN7WebCore15getDOMStructureINS_17JSSVGGlyphElementEEEPN3JSC9StructureEPNS2_9ExecStateEPNS_17JSDOMGlobalObjectE@Base 2.2.0
 (optional=templinst|arch=s390x)_ZN7WebCore15getDOMStructureINS_17JSSVGHKernElementEEEPN3JSC9StructureEPNS2_9ExecStateEPNS_17JSDOMGlobalObjectE@Base 2.2.0
 (optional=templinst|arch=s390x)_ZN7WebCore15getDOMStructureINS_17JSSVGImageElementEEEPN3JSC9StructureEPNS2_9ExecStateEPNS_17JSDOMGlobalObjectE@Base 2.2.0
 (optional=templinst|arch=s390x)_ZN7WebCore15getDOMStructureINS_17JSSVGStyleElementEEEPN3JSC9StructureEPNS2_9ExecStateEPNS_17JSDOMGlobalObjectE@Base 2.2.0
 (optional=templinst|arch=s390x)_ZN7WebCore15getDOMStructureINS_17JSSVGTSpanElementEEEPN3JSC9StructureEPNS2_9ExecStateEPNS_17JSDOMGlobalObjectE@Base 2.2.0
 (optional=templinst|arch=s390x)_ZN7WebCore15getDOMStructureINS_17JSSVGTitleElementEEEPN3JSC9StructureEPNS2_9ExecStateEPNS_17JSDOMGlobalObjectE@Base 2.2.0
 (optional=templinst|arch=s390x)_ZN7WebCore15getDOMStructureINS_17JSSVGVKernElementEEEPN3JSC9StructureEPNS2_9ExecStateEPNS_17JSDOMGlobalObjectE@Base 2.2.0
 (optional=templinst|arch=s390x)_ZN7WebCore15getDOMStructureINS_17JSWebKitAnimationEEEPN3JSC9StructureEPNS2_9ExecStateEPNS_17JSDOMGlobalObjectE@Base 2.2.0
 (optional=templinst|arch=s390x)_ZN7WebCore15getDOMStructureINS_17JSWorkerNavigatorEEEPN3JSC9StructureEPNS2_9ExecStateEPNS_17JSDOMGlobalObjectE@Base 2.2.0
 (optional=templinst|arch=s390x)_ZN7WebCore15getDOMStructureINS_17JSXPathExpressionEEEPN3JSC9StructureEPNS2_9ExecStateEPNS_17JSDOMGlobalObjectE@Base 2.2.0
 (optional=templinst|arch=s390x)_ZN7WebCore15getDOMStructureINS_17JSXPathNSResolverEEEPN3JSC9StructureEPNS2_9ExecStateEPNS_17JSDOMGlobalObjectE@Base 2.2.0
 (optional=templinst|arch=s390x)_ZN7WebCore15getDOMStructureINS_18JSDOMCoreExceptionEEEPN3JSC9StructureEPNS2_9ExecStateEPNS_17JSDOMGlobalObjectE@Base 2.2.0
 (optional=templinst|arch=s390x)_ZN7WebCore15getDOMStructureINS_18JSDOMMimeTypeArrayEEEPN3JSC9StructureEPNS2_9ExecStateEPNS_17JSDOMGlobalObjectE@Base 2.2.0
 (optional=templinst|arch=s390x)_ZN7WebCore15getDOMStructureINS_18JSHTMLAudioElementEEEPN3JSC9StructureEPNS2_9ExecStateEPNS_17JSDOMGlobalObjectE@Base 2.2.0
 (optional=templinst|arch=s390x)_ZN7WebCore15getDOMStructureINS_18JSHTMLDListElementEEEPN3JSC9StructureEPNS2_9ExecStateEPNS_17JSDOMGlobalObjectE@Base 2.2.0
 (optional=templinst|arch=s390x)_ZN7WebCore15getDOMStructureINS_18JSHTMLEmbedElementEEEPN3JSC9StructureEPNS2_9ExecStateEPNS_17JSDOMGlobalObjectE@Base 2.2.0
 (optional=templinst|arch=s390x)_ZN7WebCore15getDOMStructureINS_18JSHTMLFrameElementEEEPN3JSC9StructureEPNS2_9ExecStateEPNS_17JSDOMGlobalObjectE@Base 2.2.0
 (optional=templinst|arch=s390x)_ZN7WebCore15getDOMStructureINS_18JSHTMLImageElementEEEPN3JSC9StructureEPNS2_9ExecStateEPNS_17JSDOMGlobalObjectE@Base 2.2.0
 (optional=templinst|arch=s390x)_ZN7WebCore15getDOMStructureINS_18JSHTMLInputElementEEEPN3JSC9StructureEPNS2_9ExecStateEPNS_17JSDOMGlobalObjectE@Base 2.2.0
 (optional=templinst|arch=s390x)_ZN7WebCore15getDOMStructureINS_18JSHTMLLabelElementEEEPN3JSC9StructureEPNS2_9ExecStateEPNS_17JSDOMGlobalObjectE@Base 2.2.0
 (optional=templinst|arch=s390x)_ZN7WebCore15getDOMStructureINS_18JSHTMLMediaElementEEEPN3JSC9StructureEPNS2_9ExecStateEPNS_17JSDOMGlobalObjectE@Base 2.2.0
 (optional=templinst|arch=s390x)_ZN7WebCore15getDOMStructureINS_18JSHTMLMeterElementEEEPN3JSC9StructureEPNS2_9ExecStateEPNS_17JSDOMGlobalObjectE@Base 2.2.0
 (optional=templinst|arch=s390x)_ZN7WebCore15getDOMStructureINS_18JSHTMLOListElementEEEPN3JSC9StructureEPNS2_9ExecStateEPNS_17JSDOMGlobalObjectE@Base 2.2.0
 (optional=templinst|arch=s390x)_ZN7WebCore15getDOMStructureINS_18JSHTMLParamElementEEEPN3JSC9StructureEPNS2_9ExecStateEPNS_17JSDOMGlobalObjectE@Base 2.2.0
 (optional=templinst|arch=s390x)_ZN7WebCore15getDOMStructureINS_18JSHTMLQuoteElementEEEPN3JSC9StructureEPNS2_9ExecStateEPNS_17JSDOMGlobalObjectE@Base 2.2.0
 (optional=templinst|arch=s390x)_ZN7WebCore15getDOMStructureINS_18JSHTMLStyleElementEEEPN3JSC9StructureEPNS2_9ExecStateEPNS_17JSDOMGlobalObjectE@Base 2.2.0
 (optional=templinst|arch=s390x)_ZN7WebCore15getDOMStructureINS_18JSHTMLTableElementEEEPN3JSC9StructureEPNS2_9ExecStateEPNS_17JSDOMGlobalObjectE@Base 2.2.0
 (optional=templinst|arch=s390x)_ZN7WebCore15getDOMStructureINS_18JSHTMLTitleElementEEEPN3JSC9StructureEPNS2_9ExecStateEPNS_17JSDOMGlobalObjectE@Base 2.2.0
 (optional=templinst|arch=s390x)_ZN7WebCore15getDOMStructureINS_18JSHTMLUListElementEEEPN3JSC9StructureEPNS2_9ExecStateEPNS_17JSDOMGlobalObjectE@Base 2.2.0
 (optional=templinst|arch=s390x)_ZN7WebCore15getDOMStructureINS_18JSHTMLVideoElementEEEPN3JSC9StructureEPNS2_9ExecStateEPNS_17JSDOMGlobalObjectE@Base 2.2.0
 (optional=templinst|arch=s390x)_ZN7WebCore15getDOMStructureINS_18JSSVGAnimatedAngleEEEPN3JSC9StructureEPNS2_9ExecStateEPNS_17JSDOMGlobalObjectE@Base 2.2.0
 (optional=templinst|arch=s390x)_ZN7WebCore15getDOMStructureINS_18JSSVGCircleElementEEEPN3JSC9StructureEPNS2_9ExecStateEPNS_17JSDOMGlobalObjectE@Base 2.2.0
 (optional=templinst|arch=s390x)_ZN7WebCore15getDOMStructureINS_18JSSVGCursorElementEEEPN3JSC9StructureEPNS2_9ExecStateEPNS_17JSDOMGlobalObjectE@Base 2.2.0
 (optional=templinst|arch=s390x)_ZN7WebCore15getDOMStructureINS_18JSSVGFETileElementEEEPN3JSC9StructureEPNS2_9ExecStateEPNS_17JSDOMGlobalObjectE@Base 2.2.0
 (optional=templinst|arch=s390x)_ZN7WebCore15getDOMStructureINS_18JSSVGFilterElementEEEPN3JSC9StructureEPNS2_9ExecStateEPNS_17JSDOMGlobalObjectE@Base 2.2.0
 (optional=templinst|arch=s390x)_ZN7WebCore15getDOMStructureINS_18JSSVGMarkerElementEEEPN3JSC9StructureEPNS2_9ExecStateEPNS_17JSDOMGlobalObjectE@Base 2.2.0
 (optional=templinst|arch=s390x)_ZN7WebCore15getDOMStructureINS_18JSSVGScriptElementEEEPN3JSC9StructureEPNS2_9ExecStateEPNS_17JSDOMGlobalObjectE@Base 2.2.0
 (optional=templinst|arch=s390x)_ZN7WebCore15getDOMStructureINS_18JSSVGSwitchElementEEEPN3JSC9StructureEPNS2_9ExecStateEPNS_17JSDOMGlobalObjectE@Base 2.2.0
 (optional=templinst|arch=s390x)_ZN7WebCore15getDOMStructureINS_18JSSVGSymbolElementEEEPN3JSC9StructureEPNS2_9ExecStateEPNS_17JSDOMGlobalObjectE@Base 2.2.0
 (optional=templinst|arch=s390x)_ZN7WebCore15getDOMStructureINS_18JSSVGTransformListEEEPN3JSC9StructureEPNS2_9ExecStateEPNS_17JSDOMGlobalObjectE@Base 2.2.0
 (optional=templinst|arch=s390x)_ZN7WebCore15getDOMStructureINS_19JSDOMImplementationEEEPN3JSC9StructureEPNS2_9ExecStateEPNS_17JSDOMGlobalObjectE@Base 2.2.0
 (optional=templinst|arch=s390x)_ZN7WebCore15getDOMStructureINS_19JSHTMLAnchorElementEEEPN3JSC9StructureEPNS2_9ExecStateEPNS_17JSDOMGlobalObjectE@Base 2.2.0
 (optional=templinst|arch=s390x)_ZN7WebCore15getDOMStructureINS_19JSHTMLAppletElementEEEPN3JSC9StructureEPNS2_9ExecStateEPNS_17JSDOMGlobalObjectE@Base 2.2.0
 (optional=templinst|arch=s390x)_ZN7WebCore15getDOMStructureINS_19JSHTMLButtonElementEEEPN3JSC9StructureEPNS2_9ExecStateEPNS_17JSDOMGlobalObjectE@Base 2.2.0
 (optional=templinst|arch=s390x)_ZN7WebCore15getDOMStructureINS_19JSHTMLCanvasElementEEEPN3JSC9StructureEPNS2_9ExecStateEPNS_17JSDOMGlobalObjectE@Base 2.2.0
 (optional=templinst|arch=s390x)_ZN7WebCore15getDOMStructureINS_19JSHTMLIFrameElementEEEPN3JSC9StructureEPNS2_9ExecStateEPNS_17JSDOMGlobalObjectE@Base 2.2.0
 (optional=templinst|arch=s390x)_ZN7WebCore15getDOMStructureINS_19JSHTMLKeygenElementEEEPN3JSC9StructureEPNS2_9ExecStateEPNS_17JSDOMGlobalObjectE@Base 2.2.0
 (optional=templinst|arch=s390x)_ZN7WebCore15getDOMStructureINS_19JSHTMLLegendElementEEEPN3JSC9StructureEPNS2_9ExecStateEPNS_17JSDOMGlobalObjectE@Base 2.2.0
 (optional=templinst|arch=s390x)_ZN7WebCore15getDOMStructureINS_19JSHTMLObjectElementEEEPN3JSC9StructureEPNS2_9ExecStateEPNS_17JSDOMGlobalObjectE@Base 2.2.0
 (optional=templinst|arch=s390x)_ZN7WebCore15getDOMStructureINS_19JSHTMLOptionElementEEEPN3JSC9StructureEPNS2_9ExecStateEPNS_17JSDOMGlobalObjectE@Base 2.2.0
 (optional=templinst|arch=s390x)_ZN7WebCore15getDOMStructureINS_19JSHTMLOutputElementEEEPN3JSC9StructureEPNS2_9ExecStateEPNS_17JSDOMGlobalObjectE@Base 2.2.0
 (optional=templinst|arch=s390x)_ZN7WebCore15getDOMStructureINS_19JSHTMLScriptElementEEEPN3JSC9StructureEPNS2_9ExecStateEPNS_17JSDOMGlobalObjectE@Base 2.2.0
 (optional=templinst|arch=s390x)_ZN7WebCore15getDOMStructureINS_19JSHTMLSelectElementEEEPN3JSC9StructureEPNS2_9ExecStateEPNS_17JSDOMGlobalObjectE@Base 2.2.0
 (optional=templinst|arch=s390x)_ZN7WebCore15getDOMStructureINS_19JSHTMLSourceElementEEEPN3JSC9StructureEPNS2_9ExecStateEPNS_17JSDOMGlobalObjectE@Base 2.2.0
 (optional=templinst|arch=s390x)_ZN7WebCore15getDOMStructureINS_19JSSVGAnimateElementEEEPN3JSC9StructureEPNS2_9ExecStateEPNS_17JSDOMGlobalObjectE@Base 2.2.0
 (optional=templinst|arch=s390x)_ZN7WebCore15getDOMStructureINS_19JSSVGAnimatedLengthEEEPN3JSC9StructureEPNS2_9ExecStateEPNS_17JSDOMGlobalObjectE@Base 2.2.0
 (optional=templinst|arch=s390x)_ZN7WebCore15getDOMStructureINS_19JSSVGAnimatedNumberEEEPN3JSC9StructureEPNS2_9ExecStateEPNS_17JSDOMGlobalObjectE@Base 2.2.0
 (optional=templinst|arch=s390x)_ZN7WebCore15getDOMStructureINS_19JSSVGAnimatedStringEEEPN3JSC9StructureEPNS2_9ExecStateEPNS_17JSDOMGlobalObjectE@Base 2.2.0
 (optional=templinst|arch=s390x)_ZN7WebCore15getDOMStructureINS_19JSSVGEllipseElementEEEPN3JSC9StructureEPNS2_9ExecStateEPNS_17JSDOMGlobalObjectE@Base 2.2.0
 (optional=templinst|arch=s390x)_ZN7WebCore15getDOMStructureINS_19JSSVGFEBlendElementEEEPN3JSC9StructureEPNS2_9ExecStateEPNS_17JSDOMGlobalObjectE@Base 2.2.0
 (optional=templinst|arch=s390x)_ZN7WebCore15getDOMStructureINS_19JSSVGFEFloodElementEEEPN3JSC9StructureEPNS2_9ExecStateEPNS_17JSDOMGlobalObjectE@Base 2.2.0
 (optional=templinst|arch=s390x)_ZN7WebCore15getDOMStructureINS_19JSSVGFEFuncAElementEEEPN3JSC9StructureEPNS2_9ExecStateEPNS_17JSDOMGlobalObjectE@Base 2.2.0
 (optional=templinst|arch=s390x)_ZN7WebCore15getDOMStructureINS_19JSSVGFEFuncBElementEEEPN3JSC9StructureEPNS2_9ExecStateEPNS_17JSDOMGlobalObjectE@Base 2.2.0
 (optional=templinst|arch=s390x)_ZN7WebCore15getDOMStructureINS_19JSSVGFEFuncGElementEEEPN3JSC9StructureEPNS2_9ExecStateEPNS_17JSDOMGlobalObjectE@Base 2.2.0
 (optional=templinst|arch=s390x)_ZN7WebCore15getDOMStructureINS_19JSSVGFEFuncRElementEEEPN3JSC9StructureEPNS2_9ExecStateEPNS_17JSDOMGlobalObjectE@Base 2.2.0
 (optional=templinst|arch=s390x)_ZN7WebCore15getDOMStructureINS_19JSSVGFEImageElementEEEPN3JSC9StructureEPNS2_9ExecStateEPNS_17JSDOMGlobalObjectE@Base 2.2.0
 (optional=templinst|arch=s390x)_ZN7WebCore15getDOMStructureINS_19JSSVGFEMergeElementEEEPN3JSC9StructureEPNS2_9ExecStateEPNS_17JSDOMGlobalObjectE@Base 2.2.0
 (optional=templinst|arch=s390x)_ZN7WebCore15getDOMStructureINS_19JSSVGPatternElementEEEPN3JSC9StructureEPNS2_9ExecStateEPNS_17JSDOMGlobalObjectE@Base 2.2.0
 (optional=templinst|arch=s390x)_ZN7WebCore15getDOMStructureINS_19JSSVGPolygonElementEEEPN3JSC9StructureEPNS2_9ExecStateEPNS_17JSDOMGlobalObjectE@Base 2.2.0
 (optional=templinst|arch=s390x)_ZN7WebCore15getDOMStructureINS_19JSScriptProfileNodeEEEPN3JSC9StructureEPNS2_9ExecStateEPNS_17JSDOMGlobalObjectE@Base 2.2.0
 (optional=templinst|arch=s390x)_ZN7WebCore15getDOMStructureINS_19JSWebKitBlobBuilderEEEPN3JSC9StructureEPNS2_9ExecStateEPNS_17JSDOMGlobalObjectE@Base 2.2.0
 (optional=templinst|arch=s390x)_ZN7WebCore15getDOMStructureINS_20JSBeforeProcessEventEEEPN3JSC9StructureEPNS2_9ExecStateEPNS_17JSDOMGlobalObjectE@Base 2.2.0
 (optional=templinst|arch=s390x)_ZN7WebCore15getDOMStructureINS_20JSHTMLDetailsElementEEEPN3JSC9StructureEPNS2_9ExecStateEPNS_17JSDOMGlobalObjectE@Base 2.2.0
 (optional=templinst|arch=s390x)_ZN7WebCore15getDOMStructureINS_20JSHTMLHeadingElementEEEPN3JSC9StructureEPNS2_9ExecStateEPNS_17JSDOMGlobalObjectE@Base 2.2.0
 (optional=templinst|arch=s390x)_ZN7WebCore15getDOMStructureINS_20JSHTMLIsIndexElementEEEPN3JSC9StructureEPNS2_9ExecStateEPNS_17JSDOMGlobalObjectE@Base 2.2.0
 (optional=templinst|arch=s390x)_ZN7WebCore15getDOMStructureINS_20JSHTMLMarqueeElementEEEPN3JSC9StructureEPNS2_9ExecStateEPNS_17JSDOMGlobalObjectE@Base 2.2.0
 (optional=templinst|arch=s390x)_ZN7WebCore15getDOMStructureINS_20JSInjectedScriptHostEEEPN3JSC9StructureEPNS2_9ExecStateEPNS_17JSDOMGlobalObjectE@Base 2.2.0
 (optional=templinst|arch=s390x)_ZN7WebCore15getDOMStructureINS_20JSNotificationCenterEEEPN3JSC9StructureEPNS2_9ExecStateEPNS_17JSDOMGlobalObjectE@Base 2.2.0
 (optional=templinst|arch=s390x)_ZN7WebCore15getDOMStructureINS_20JSSQLTransactionSyncEEEPN3JSC9StructureEPNS2_9ExecStateEPNS_17JSDOMGlobalObjectE@Base 2.2.0
 (optional=templinst|arch=s390x)_ZN7WebCore15getDOMStructureINS_20JSSVGAltGlyphElementEEEPN3JSC9StructureEPNS2_9ExecStateEPNS_17JSDOMGlobalObjectE@Base 2.2.0
 (optional=templinst|arch=s390x)_ZN7WebCore15getDOMStructureINS_20JSSVGAnimatedBooleanEEEPN3JSC9StructureEPNS2_9ExecStateEPNS_17JSDOMGlobalObjectE@Base 2.2.0
 (optional=templinst|arch=s390x)_ZN7WebCore15getDOMStructureINS_20JSSVGAnimatedIntegerEEEPN3JSC9StructureEPNS2_9ExecStateEPNS_17JSDOMGlobalObjectE@Base 2.2.0
 (optional=templinst|arch=s390x)_ZN7WebCore15getDOMStructureINS_20JSSVGClipPathElementEEEPN3JSC9StructureEPNS2_9ExecStateEPNS_17JSDOMGlobalObjectE@Base 2.2.0
 (optional=templinst|arch=s390x)_ZN7WebCore15getDOMStructureINS_20JSSVGElementInstanceEEEPN3JSC9StructureEPNS2_9ExecStateEPNS_17JSDOMGlobalObjectE@Base 2.2.0
 (optional=templinst|arch=s390x)_ZN7WebCore15getDOMStructureINS_20JSSVGFEOffsetElementEEEPN3JSC9StructureEPNS2_9ExecStateEPNS_17JSDOMGlobalObjectE@Base 2.2.0
 (optional=templinst|arch=s390x)_ZN7WebCore15getDOMStructureINS_20JSSVGFontFaceElementEEEPN3JSC9StructureEPNS2_9ExecStateEPNS_17JSDOMGlobalObjectE@Base 2.2.0
 (optional=templinst|arch=s390x)_ZN7WebCore15getDOMStructureINS_20JSSVGGradientElementEEEPN3JSC9StructureEPNS2_9ExecStateEPNS_17JSDOMGlobalObjectE@Base 2.2.0
 (optional=templinst|arch=s390x)_ZN7WebCore15getDOMStructureINS_20JSSVGMetadataElementEEEPN3JSC9StructureEPNS2_9ExecStateEPNS_17JSDOMGlobalObjectE@Base 2.2.0
 (optional=templinst|arch=s390x)_ZN7WebCore15getDOMStructureINS_20JSSVGPolylineElementEEEPN3JSC9StructureEPNS2_9ExecStateEPNS_17JSDOMGlobalObjectE@Base 2.2.0
 (optional=templinst|arch=s390x)_ZN7WebCore15getDOMStructureINS_20JSSVGRenderingIntentEEEPN3JSC9StructureEPNS2_9ExecStateEPNS_17JSDOMGlobalObjectE@Base 2.2.0
 (optional=templinst|arch=s390x)_ZN7WebCore15getDOMStructureINS_20JSSVGTextPathElementEEEPN3JSC9StructureEPNS2_9ExecStateEPNS_17JSDOMGlobalObjectE@Base 2.2.0
 (optional=templinst|arch=s390x)_ZN7WebCore15getDOMStructureINS_21JSCSSStyleDeclarationEEEPN3JSC9StructureEPNS2_9ExecStateEPNS_17JSDOMGlobalObjectE@Base 2.2.0
 (optional=templinst|arch=s390x)_ZN7WebCore15getDOMStructureINS_21JSDOMApplicationCacheEEEPN3JSC9StructureEPNS2_9ExecStateEPNS_17JSDOMGlobalObjectE@Base 2.2.0
 (optional=templinst|arch=s390x)_ZN7WebCore15getDOMStructureINS_21JSHTMLBaseFontElementEEEPN3JSC9StructureEPNS2_9ExecStateEPNS_17JSDOMGlobalObjectE@Base 2.2.0
 (optional=templinst|arch=s390x)_ZN7WebCore15getDOMStructureINS_21JSHTMLDataListElementEEEPN3JSC9StructureEPNS2_9ExecStateEPNS_17JSDOMGlobalObjectE@Base 2.2.0
 (optional=templinst|arch=s390x)_ZN7WebCore15getDOMStructureINS_21JSHTMLFieldSetElementEEEPN3JSC9StructureEPNS2_9ExecStateEPNS_17JSDOMGlobalObjectE@Base 2.2.0
 (optional=templinst|arch=s390x)_ZN7WebCore15getDOMStructureINS_21JSHTMLFrameSetElementEEEPN3JSC9StructureEPNS2_9ExecStateEPNS_17JSDOMGlobalObjectE@Base 2.2.0
 (optional=templinst|arch=s390x)_ZN7WebCore15getDOMStructureINS_21JSHTMLOptGroupElementEEEPN3JSC9StructureEPNS2_9ExecStateEPNS_17JSDOMGlobalObjectE@Base 2.2.0
 (optional=templinst|arch=s390x)_ZN7WebCore15getDOMStructureINS_21JSHTMLProgressElementEEEPN3JSC9StructureEPNS2_9ExecStateEPNS_17JSDOMGlobalObjectE@Base 2.2.0
 (optional=templinst|arch=s390x)_ZN7WebCore15getDOMStructureINS_21JSHTMLTableColElementEEEPN3JSC9StructureEPNS2_9ExecStateEPNS_17JSDOMGlobalObjectE@Base 2.2.0
 (optional=templinst|arch=s390x)_ZN7WebCore15getDOMStructureINS_21JSHTMLTableRowElementEEEPN3JSC9StructureEPNS2_9ExecStateEPNS_17JSDOMGlobalObjectE@Base 2.2.0
 (optional=templinst|arch=s390x)_ZN7WebCore15getDOMStructureINS_21JSHTMLTextAreaElementEEEPN3JSC9StructureEPNS2_9ExecStateEPNS_17JSDOMGlobalObjectE@Base 2.2.0
 (optional=templinst|arch=s390x)_ZN7WebCore15getDOMStructureINS_21JSJavaScriptCallFrameEEEPN3JSC9StructureEPNS2_9ExecStateEPNS_17JSDOMGlobalObjectE@Base 2.2.0
 (optional=templinst|arch=s390x)_ZN7WebCore15getDOMStructureINS_21JSSQLResultSetRowListEEEPN3JSC9StructureEPNS2_9ExecStateEPNS_17JSDOMGlobalObjectE@Base 2.2.0
 (optional=templinst|arch=s390x)_ZN7WebCore15getDOMStructureINS_21JSSVGAnimationElementEEEPN3JSC9StructureEPNS2_9ExecStateEPNS_17JSDOMGlobalObjectE@Base 2.2.0
 (optional=templinst|arch=s390x)_ZN7WebCore15getDOMStructureINS_21JSWebKitAnimationListEEEPN3JSC9StructureEPNS2_9ExecStateEPNS_17JSDOMGlobalObjectE@Base 2.2.0
 (optional=templinst|arch=s390x)_ZN7WebCore15getDOMStructureINS_22JSDOMSettableTokenListEEEPN3JSC9StructureEPNS2_9ExecStateEPNS_17JSDOMGlobalObjectE@Base 2.2.0
 (optional=templinst|arch=s390x)_ZN7WebCore15getDOMStructureINS_22JSHTMLDirectoryElementEEEPN3JSC9StructureEPNS2_9ExecStateEPNS_17JSDOMGlobalObjectE@Base 2.2.0
 (optional=templinst|arch=s390x)_ZN7WebCore15getDOMStructureINS_22JSHTMLParagraphElementEEEPN3JSC9StructureEPNS2_9ExecStateEPNS_17JSDOMGlobalObjectE@Base 2.2.0
 (optional=templinst|arch=s390x)_ZN7WebCore15getDOMStructureINS_22JSHTMLTableCellElementEEEPN3JSC9StructureEPNS2_9ExecStateEPNS_17JSDOMGlobalObjectE@Base 2.2.0
 (optional=templinst|arch=s390x)_ZN7WebCore15getDOMStructureINS_22JSXMLHttpRequestUploadEEEPN3JSC9StructureEPNS2_9ExecStateEPNS_17JSDOMGlobalObjectE@Base 2.2.0
 (optional=templinst|arch=s390x)_ZN7WebCore15getDOMStructureINS_23JSHTMLBlockquoteElementEEEPN3JSC9StructureEPNS2_9ExecStateEPNS_17JSDOMGlobalObjectE@Base 2.2.0
 (optional=templinst|arch=s390x)_ZN7WebCore15getDOMStructureINS_23JSInspectorFrontendHostEEEPN3JSC9StructureEPNS2_9ExecStateEPNS_17JSDOMGlobalObjectE@Base 2.2.0
 (optional=templinst|arch=s390x)_ZN7WebCore15getDOMStructureINS_23JSSVGAnimatedLengthListEEEPN3JSC9StructureEPNS2_9ExecStateEPNS_17JSDOMGlobalObjectE@Base 2.2.0
 (optional=templinst|arch=s390x)_ZN7WebCore15getDOMStructureINS_23JSSVGAnimatedNumberListEEEPN3JSC9StructureEPNS2_9ExecStateEPNS_17JSDOMGlobalObjectE@Base 2.2.0
 (optional=templinst|arch=s390x)_ZN7WebCore15getDOMStructureINS_23JSSVGFECompositeElementEEEPN3JSC9StructureEPNS2_9ExecStateEPNS_17JSDOMGlobalObjectE@Base 2.2.0
 (optional=templinst|arch=s390x)_ZN7WebCore15getDOMStructureINS_23JSSVGFEMergeNodeElementEEEPN3JSC9StructureEPNS2_9ExecStateEPNS_17JSDOMGlobalObjectE@Base 2.2.0
 (optional=templinst|arch=s390x)_ZN7WebCore15getDOMStructureINS_23JSSVGFESpotLightElementEEEPN3JSC9StructureEPNS2_9ExecStateEPNS_17JSDOMGlobalObjectE@Base 2.2.0
 (optional=templinst|arch=s390x)_ZN7WebCore15getDOMStructureINS_23JSSVGFontFaceSrcElementEEEPN3JSC9StructureEPNS2_9ExecStateEPNS_17JSDOMGlobalObjectE@Base 2.2.0
 (optional=templinst|arch=s390x)_ZN7WebCore15getDOMStructureINS_23JSSVGFontFaceUriElementEEEPN3JSC9StructureEPNS2_9ExecStateEPNS_17JSDOMGlobalObjectE@Base 2.2.0
 (optional=templinst|arch=s390x)_ZN7WebCore15getDOMStructureINS_23JSSVGTextContentElementEEEPN3JSC9StructureEPNS2_9ExecStateEPNS_17JSDOMGlobalObjectE@Base 2.2.0
 (optional=templinst|arch=s390x)_ZN7WebCore15getDOMStructureINS_24JSCanvasRenderingContextEEEPN3JSC9StructureEPNS2_9ExecStateEPNS_17JSDOMGlobalObjectE@Base 2.2.0
 (optional=templinst|arch=s390x)_ZN7WebCore15getDOMStructureINS_24JSSVGAnimateColorElementEEEPN3JSC9StructureEPNS2_9ExecStateEPNS_17JSDOMGlobalObjectE@Base 2.2.0
 (optional=templinst|arch=s390x)_ZN7WebCore15getDOMStructureINS_24JSSVGAnimatedEnumerationEEEPN3JSC9StructureEPNS2_9ExecStateEPNS_17JSDOMGlobalObjectE@Base 2.2.0
 (optional=templinst|arch=s390x)_ZN7WebCore15getDOMStructureINS_24JSSVGElementInstanceListEEEPN3JSC9StructureEPNS2_9ExecStateEPNS_17JSDOMGlobalObjectE@Base 2.2.0
 (optional=templinst|arch=s390x)_ZN7WebCore15getDOMStructureINS_24JSSVGFEDropShadowElementEEEPN3JSC9StructureEPNS2_9ExecStateEPNS_17JSDOMGlobalObjectE@Base 2.2.0
 (optional=templinst|arch=s390x)_ZN7WebCore15getDOMStructureINS_24JSSVGFEMorphologyElementEEEPN3JSC9StructureEPNS2_9ExecStateEPNS_17JSDOMGlobalObjectE@Base 2.2.0
 (optional=templinst|arch=s390x)_ZN7WebCore15getDOMStructureINS_24JSSVGFEPointLightElementEEEPN3JSC9StructureEPNS2_9ExecStateEPNS_17JSDOMGlobalObjectE@Base 2.2.0
 (optional=templinst|arch=s390x)_ZN7WebCore15getDOMStructureINS_24JSSVGFETurbulenceElementEEEPN3JSC9StructureEPNS2_9ExecStateEPNS_17JSDOMGlobalObjectE@Base 2.2.0
 (optional=templinst|arch=s390x)_ZN7WebCore15getDOMStructureINS_24JSSVGFontFaceNameElementEEEPN3JSC9StructureEPNS2_9ExecStateEPNS_17JSDOMGlobalObjectE@Base 2.2.0
 (optional=templinst|arch=s390x)_ZN7WebCore15getDOMStructureINS_24JSSVGMissingGlyphElementEEEPN3JSC9StructureEPNS2_9ExecStateEPNS_17JSDOMGlobalObjectE@Base 2.2.0
 (optional=templinst|arch=s390x)_ZN7WebCore15getDOMStructureINS_24JSSVGPreserveAspectRatioEEEPN3JSC9StructureEPNS2_9ExecStateEPNS_17JSDOMGlobalObjectE@Base 2.2.0
 (optional=templinst|arch=s390x)_ZN7WebCore15getDOMStructureINS_25JSHTMLTableCaptionElementEEEPN3JSC9StructureEPNS2_9ExecStateEPNS_17JSDOMGlobalObjectE@Base 2.2.0
 (optional=templinst|arch=s390x)_ZN7WebCore15getDOMStructureINS_25JSHTMLTableSectionElementEEEPN3JSC9StructureEPNS2_9ExecStateEPNS_17JSDOMGlobalObjectE@Base 2.2.0
 (optional=templinst|arch=s390x)_ZN7WebCore15getDOMStructureINS_25JSSVGFEColorMatrixElementEEEPN3JSC9StructureEPNS2_9ExecStateEPNS_17JSDOMGlobalObjectE@Base 2.2.0
 (optional=templinst|arch=s390x)_ZN7WebCore15getDOMStructureINS_25JSSVGForeignObjectElementEEEPN3JSC9StructureEPNS2_9ExecStateEPNS_17JSDOMGlobalObjectE@Base 2.2.0
 (optional=templinst|arch=s390x)_ZN7WebCore15getDOMStructureINS_25JSXMLHttpRequestExceptionEEEPN3JSC9StructureEPNS2_9ExecStateEPNS_17JSDOMGlobalObjectE@Base 2.2.0
 (optional=templinst|arch=s390x)_ZN7WebCore15getDOMStructureINS_26JSSVGAnimatedTransformListEEEPN3JSC9StructureEPNS2_9ExecStateEPNS_17JSDOMGlobalObjectE@Base 2.2.0
 (optional=templinst|arch=s390x)_ZN7WebCore15getDOMStructureINS_26JSSVGFEDistantLightElementEEEPN3JSC9StructureEPNS2_9ExecStateEPNS_17JSDOMGlobalObjectE@Base 2.2.0
 (optional=templinst|arch=s390x)_ZN7WebCore15getDOMStructureINS_26JSSVGFEGaussianBlurElementEEEPN3JSC9StructureEPNS2_9ExecStateEPNS_17JSDOMGlobalObjectE@Base 2.2.0
 (optional=templinst|arch=s390x)_ZN7WebCore15getDOMStructureINS_26JSSVGFontFaceFormatElementEEEPN3JSC9StructureEPNS2_9ExecStateEPNS_17JSDOMGlobalObjectE@Base 2.2.0
 (optional=templinst|arch=s390x)_ZN7WebCore15getDOMStructureINS_26JSSVGLinearGradientElementEEEPN3JSC9StructureEPNS2_9ExecStateEPNS_17JSDOMGlobalObjectE@Base 2.2.0
 (optional=templinst|arch=s390x)_ZN7WebCore15getDOMStructureINS_26JSSVGRadialGradientElementEEEPN3JSC9StructureEPNS2_9ExecStateEPNS_17JSDOMGlobalObjectE@Base 2.2.0
 (optional=templinst|arch=s390x)_ZN7WebCore15getDOMStructureINS_27JSSVGTextPositioningElementEEEPN3JSC9StructureEPNS2_9ExecStateEPNS_17JSDOMGlobalObjectE@Base 2.2.0
 (optional=templinst|arch=s390x)_ZN7WebCore15getDOMStructureINS_28JSSVGAnimateTransformElementEEEPN3JSC9StructureEPNS2_9ExecStateEPNS_17JSDOMGlobalObjectE@Base 2.2.0
 (optional=templinst|arch=s390x)_ZN7WebCore15getDOMStructureINS_28JSSVGFEConvolveMatrixElementEEEPN3JSC9StructureEPNS2_9ExecStateEPNS_17JSDOMGlobalObjectE@Base 2.2.0
 (optional=templinst|arch=s390x)_ZN7WebCore15getDOMStructureINS_29JSSVGFEDiffuseLightingElementEEEPN3JSC9StructureEPNS2_9ExecStateEPNS_17JSDOMGlobalObjectE@Base 2.2.0
 (optional=templinst|arch=s390x)_ZN7WebCore15getDOMStructureINS_29JSSVGFEDisplacementMapElementEEEPN3JSC9StructureEPNS2_9ExecStateEPNS_17JSDOMGlobalObjectE@Base 2.2.0
 (optional=templinst|arch=s390x)_ZN7WebCore15getDOMStructureINS_30JSSVGFESpecularLightingElementEEEPN3JSC9StructureEPNS2_9ExecStateEPNS_17JSDOMGlobalObjectE@Base 2.2.0
 (optional=templinst|arch=s390x)_ZN7WebCore15getDOMStructureINS_31JSSVGFEComponentTransferElementEEEPN3JSC9StructureEPNS2_9ExecStateEPNS_17JSDOMGlobalObjectE@Base 2.2.0
 (optional=templinst|arch=s390x)_ZN7WebCore15getDOMStructureINS_32JSSVGAnimatedPreserveAspectRatioEEEPN3JSC9StructureEPNS2_9ExecStateEPNS_17JSDOMGlobalObjectE@Base 2.2.0
 (optional=templinst|arch=s390x)_ZN7WebCore15getDOMStructureINS_37JSSVGComponentTransferFunctionElementEEEPN3JSC9StructureEPNS2_9ExecStateEPNS_17JSDOMGlobalObjectE@Base 2.2.0
 (optional=templinst|arch=s390x)_ZN7WebCore15getDOMStructureINS_6JSBlobEEEPN3JSC9StructureEPNS2_9ExecStateEPNS_17JSDOMGlobalObjectE@Base 2.2.0
 (optional=templinst|arch=s390x)_ZN7WebCore15getDOMStructureINS_6JSFileEEEPN3JSC9StructureEPNS2_9ExecStateEPNS_17JSDOMGlobalObjectE@Base 2.2.0
 (optional=templinst|arch=s390x)_ZN7WebCore15getDOMStructureINS_6JSRectEEEPN3JSC9StructureEPNS2_9ExecStateEPNS_17JSDOMGlobalObjectE@Base 2.2.0
 (optional=templinst|arch=s390x)_ZN7WebCore15getDOMStructureINS_7JSRangeEEEPN3JSC9StructureEPNS2_9ExecStateEPNS_17JSDOMGlobalObjectE@Base 2.2.0
 (optional=templinst|arch=s390x)_ZN7WebCore15getDOMStructureINS_8JSCryptoEEEPN3JSC9StructureEPNS2_9ExecStateEPNS_17JSDOMGlobalObjectE@Base 2.2.0
 (optional=templinst|arch=s390x)_ZN7WebCore15getDOMStructureINS_8JSDOMURLEEEPN3JSC9StructureEPNS2_9ExecStateEPNS_17JSDOMGlobalObjectE@Base 2.2.0
 (optional=templinst|arch=s390x)_ZN7WebCore15getDOMStructureINS_8JSScreenEEEPN3JSC9StructureEPNS2_9ExecStateEPNS_17JSDOMGlobalObjectE@Base 2.2.0
 (optional=templinst|arch=s390x)_ZN7WebCore15getDOMStructureINS_8JSWorkerEEEPN3JSC9StructureEPNS2_9ExecStateEPNS_17JSDOMGlobalObjectE@Base 2.2.0
 (optional=templinst|arch=s390x)_ZN7WebCore15getDOMStructureINS_9JSBarInfoEEEPN3JSC9StructureEPNS2_9ExecStateEPNS_17JSDOMGlobalObjectE@Base 2.2.0
 (optional=templinst|arch=s390x)_ZN7WebCore15getDOMStructureINS_9JSConsoleEEEPN3JSC9StructureEPNS2_9ExecStateEPNS_17JSDOMGlobalObjectE@Base 2.2.0
 (optional=templinst|arch=s390x)_ZN7WebCore15getDOMStructureINS_9JSCounterEEEPN3JSC9StructureEPNS2_9ExecStateEPNS_17JSDOMGlobalObjectE@Base 2.2.0
 (optional=templinst|arch=s390x)_ZN7WebCore15getDOMStructureINS_9JSSVGRectEEEPN3JSC9StructureEPNS2_9ExecStateEPNS_17JSDOMGlobalObjectE@Base 2.2.0
 (optional=templinst|arch=s390x)_ZN7WebCore15getDOMStructureINS_9JSStorageEEEPN3JSC9StructureEPNS2_9ExecStateEPNS_17JSDOMGlobalObjectE@Base 2.2.0
 (optional=private|arch=s390x)_ZN7WebCore16DOMMimeTypeArray5frameEv@Base 2.2.0
 (optional=private|arch=s390x)_ZN7WebCore16DatabaseCallbackC1Ev@Base 2.2.0
 (optional=private|arch=s390x)_ZN7WebCore16DatabaseCallbackC2Ev@Base 2.2.0
 (optional=private|arch=s390x)_ZN7WebCore16HTMLInputElement6stepUpERi@Base 2.2.0
 (optional=private|arch=s390x)_ZN7WebCore16HTMLInputElement8stepDownERi@Base 2.2.0
 (optional=private|arch=s390x)_ZN7WebCore16HTMLVideoElement20webkitExitFullScreenEv@Base 2.2.0
 (optional=private|arch=s390x)_ZN7WebCore16HTMLVideoElement21webkitEnterFullScreenEbRi@Base 2.2.0
 (optional=private|arch=s390x)_ZN7WebCore16JSAbstractWorker15createStructureERN3JSC12JSGlobalDataENS1_7JSValueE@Base 2.2.0
 (optional=private|arch=s390x)_ZN7WebCore16JSCanvasGradient15createStructureERN3JSC12JSGlobalDataENS1_7JSValueE@Base 2.2.0
 (optional=private|arch=s390x)_ZN7WebCore16JSClientRectList15createStructureERN3JSC12JSGlobalDataENS1_7JSValueE@Base 2.2.0
 (optional=private|arch=s390x)_ZN7WebCore16JSDOMPluginArray15createStructureERN3JSC12JSGlobalDataENS1_7JSValueE@Base 2.2.0
 (optional=private|arch=s390x)_ZN7WebCore16JSEventException15createStructureERN3JSC12JSGlobalDataENS1_7JSValueE@Base 2.2.0
 (optional=private|arch=s390x)_ZN7WebCore16JSEventPrototype15createStructureERN3JSC12JSGlobalDataENS1_7JSValueE@Base 2.2.0
 (optional=private|arch=s390x)_ZN7WebCore16JSEventPrototypeC1ERN3JSC12JSGlobalDataEPNS1_14JSGlobalObjectEPNS1_9StructureE@Base 2.2.0
 (optional=private|arch=s390x)_ZN7WebCore16JSEventPrototypeC2ERN3JSC12JSGlobalDataEPNS1_14JSGlobalObjectEPNS1_9StructureE@Base 2.2.0
 (optional=private|arch=s390x)_ZN7WebCore16JSFileReaderSync15createStructureERN3JSC12JSGlobalDataENS1_7JSValueE@Base 2.2.0
 (optional=private|arch=s390x)_ZN7WebCore16JSHTMLDivElement15createStructureERN3JSC12JSGlobalDataENS1_7JSValueE@Base 2.2.0
 (optional=private|arch=s390x)_ZN7WebCore16JSHTMLMapElement15createStructureERN3JSC12JSGlobalDataENS1_7JSValueE@Base 2.2.0
 (optional=private|arch=s390x)_ZN7WebCore16JSHTMLModElement15createStructureERN3JSC12JSGlobalDataENS1_7JSValueE@Base 2.2.0
 (optional=private|arch=s390x)_ZN7WebCore16JSHTMLPreElement15createStructureERN3JSC12JSGlobalDataENS1_7JSValueE@Base 2.2.0
 (optional=private|arch=s390x)_ZN7WebCore16JSMediaListOwnerC1Ev@Base 2.2.0
 (optional=private|arch=s390x)_ZN7WebCore16JSMediaListOwnerC2Ev@Base 2.2.0
 (optional=private|arch=s390x)_ZN7WebCore16JSMediaQueryList15createStructureERN3JSC12JSGlobalDataENS1_7JSValueE@Base 2.2.0
 (optional=private|arch=s390x)_ZN7WebCore16JSMessageChannel15createStructureERN3JSC12JSGlobalDataENS1_7JSValueE@Base 2.2.0
 (optional=private|arch=s390x)_ZN7WebCore16JSNavigatorOwnerC1Ev@Base 2.2.0
 (optional=private|arch=s390x)_ZN7WebCore16JSNavigatorOwnerC2Ev@Base 2.2.0
 (optional=private|arch=s390x)_ZN7WebCore16JSRangeException15createStructureERN3JSC12JSGlobalDataENS1_7JSValueE@Base 2.2.0
 (optional=private|arch=s390x)_ZN7WebCore16JSRangePrototype15createStructureERN3JSC12JSGlobalDataENS1_7JSValueE@Base 2.2.0
 (optional=private|arch=s390x)_ZN7WebCore16JSRangePrototypeC1ERN3JSC12JSGlobalDataEPNS1_14JSGlobalObjectEPNS1_9StructureE@Base 2.2.0
 (optional=private|arch=s390x)_ZN7WebCore16JSRangePrototypeC2ERN3JSC12JSGlobalDataEPNS1_14JSGlobalObjectEPNS1_9StructureE@Base 2.2.0
 (optional=private|arch=s390x)_ZN7WebCore16JSSQLTransaction15createStructureERN3JSC12JSGlobalDataENS1_7JSValueE@Base 2.2.0
 (optional=private|arch=s390x)_ZN7WebCore16JSSVGDefsElement15createStructureERN3JSC12JSGlobalDataENS1_7JSValueE@Base 2.2.0
 (optional=private|arch=s390x)_ZN7WebCore16JSSVGDescElement15createStructureERN3JSC12JSGlobalDataENS1_7JSValueE@Base 2.2.0
 (optional=private|arch=s390x)_ZN7WebCore16JSSVGFontElement15createStructureERN3JSC12JSGlobalDataENS1_7JSValueE@Base 2.2.0
 (optional=private|arch=s390x)_ZN7WebCore16JSSVGLineElement15createStructureERN3JSC12JSGlobalDataENS1_7JSValueE@Base 2.2.0
 (optional=private|arch=s390x)_ZN7WebCore16JSSVGMaskElement15createStructureERN3JSC12JSGlobalDataENS1_7JSValueE@Base 2.2.0
 (optional=private|arch=s390x)_ZN7WebCore16JSSVGPathElement15createStructureERN3JSC12JSGlobalDataENS1_7JSValueE@Base 2.2.0
 (optional=private|arch=s390x)_ZN7WebCore16JSSVGPathSegList15createStructureERN3JSC12JSGlobalDataENS1_7JSValueE@Base 2.2.0
 (optional=private|arch=s390x)_ZN7WebCore16JSSVGRectElement15createStructureERN3JSC12JSGlobalDataENS1_7JSValueE@Base 2.2.0
 (optional=private|arch=s390x)_ZN7WebCore16JSSVGStopElement15createStructureERN3JSC12JSGlobalDataENS1_7JSValueE@Base 2.2.0
 (optional=private|arch=s390x)_ZN7WebCore16JSSVGTRefElement15createStructureERN3JSC12JSGlobalDataENS1_7JSValueE@Base 2.2.0
 (optional=private|arch=s390x)_ZN7WebCore16JSSVGTextElement15createStructureERN3JSC12JSGlobalDataENS1_7JSValueE@Base 2.2.0
 (optional=private|arch=s390x)_ZN7WebCore16JSSVGViewElement15createStructureERN3JSC12JSGlobalDataENS1_7JSValueE@Base 2.2.0
 (optional=private|arch=s390x)_ZN7WebCore16JSStyleSheetList15createStructureERN3JSC12JSGlobalDataENS1_7JSValueE@Base 2.2.0
 (optional=private|arch=s390x)_ZN7WebCore16JSTouchPrototype15createStructureERN3JSC12JSGlobalDataENS1_7JSValueE@Base 2.2.0
 (optional=private|arch=s390x)_ZN7WebCore16JSTouchPrototypeC1ERN3JSC12JSGlobalDataEPNS1_14JSGlobalObjectEPNS1_9StructureE@Base 2.2.0
 (optional=private|arch=s390x)_ZN7WebCore16JSTouchPrototypeC2ERN3JSC12JSGlobalDataEPNS1_14JSGlobalObjectEPNS1_9StructureE@Base 2.2.0
 (optional=private|arch=s390x)_ZN7WebCore16JSWorkerLocation15createStructureERN3JSC12JSGlobalDataENS1_7JSValueE@Base 2.2.0
 (optional=private|arch=s390x)_ZN7WebCore16JSXPathEvaluator15createStructureERN3JSC12JSGlobalDataENS1_7JSValueE@Base 2.2.0
 (optional=private|arch=s390x)_ZN7WebCore16JSXPathException15createStructureERN3JSC12JSGlobalDataENS1_7JSValueE@Base 2.2.0
 (optional=private|arch=s390x)_ZN7WebCore16QtPlatformPluginC1Ev@Base 2.2.0
 (optional=private|arch=s390x)_ZN7WebCore16QtPlatformPluginC2Ev@Base 2.2.0
 (optional=templinst|arch=s390x)_ZN7WebCore16getCachedWrapperIN3JSC11ProfileNodeEEEPNS_12JSDOMWrapperEPNS_15DOMWrapperWorldEPT_@Base 2.2.0
 (optional=templinst|arch=s390x)_ZN7WebCore16getCachedWrapperINS_10ClientRectEEEPNS_12JSDOMWrapperEPNS_15DOMWrapperWorldEPT_@Base 2.2.0
 (optional=templinst|arch=s390x)_ZN7WebCore16getCachedWrapperINS_10FileReaderEEEPNS_12JSDOMWrapperEPNS_15DOMWrapperWorldEPT_@Base 2.2.0
 (optional=templinst|arch=s390x)_ZN7WebCore16getCachedWrapperINS_10MediaErrorEEEPNS_12JSDOMWrapperEPNS_15DOMWrapperWorldEPT_@Base 2.2.0
 (optional=templinst|arch=s390x)_ZN7WebCore16getCachedWrapperINS_10MemoryInfoEEEPNS_12JSDOMWrapperEPNS_15DOMWrapperWorldEPT_@Base 2.2.0
 (optional=templinst|arch=s390x)_ZN7WebCore16getCachedWrapperINS_10NodeFilterEEEPNS_12JSDOMWrapperEPNS_15DOMWrapperWorldEPT_@Base 2.2.0
 (optional=templinst|arch=s390x)_ZN7WebCore16getCachedWrapperINS_10StyleMediaEEEPNS_12JSDOMWrapperEPNS_15DOMWrapperWorldEPT_@Base 2.2.0
 (optional=templinst|arch=s390x)_ZN7WebCore16getCachedWrapperINS_10TimeRangesEEEPNS_12JSDOMWrapperEPNS_15DOMWrapperWorldEPT_@Base 2.2.0
 (optional=templinst|arch=s390x)_ZN7WebCore16getCachedWrapperINS_10TreeWalkerEEEPNS_12JSDOMWrapperEPNS_15DOMWrapperWorldEPT_@Base 2.2.0
 (optional=templinst|arch=s390x)_ZN7WebCore16getCachedWrapperINS_11ArrayBufferEEEPNS_12JSDOMWrapperEPNS_15DOMWrapperWorldEPT_@Base 2.2.0
 (optional=templinst|arch=s390x)_ZN7WebCore16getCachedWrapperINS_11CSSRuleListEEEPNS_12JSDOMWrapperEPNS_15DOMWrapperWorldEPT_@Base 2.2.0
 (optional=templinst|arch=s390x)_ZN7WebCore16getCachedWrapperINS_11CoordinatesEEEPNS_12JSDOMWrapperEPNS_15DOMWrapperWorldEPT_@Base 2.2.0
 (optional=templinst|arch=s390x)_ZN7WebCore16getCachedWrapperINS_11DOMFormDataEEEPNS_12JSDOMWrapperEPNS_15DOMWrapperWorldEPT_@Base 2.2.0
 (optional=templinst|arch=s390x)_ZN7WebCore16getCachedWrapperINS_11DOMMimeTypeEEEPNS_12JSDOMWrapperEPNS_15DOMWrapperWorldEPT_@Base 2.2.0
 (optional=templinst|arch=s390x)_ZN7WebCore16getCachedWrapperINS_11EventSourceEEEPNS_12JSDOMWrapperEPNS_15DOMWrapperWorldEPT_@Base 2.2.0
 (optional=templinst|arch=s390x)_ZN7WebCore16getCachedWrapperINS_11MessagePortEEEPNS_12JSDOMWrapperEPNS_15DOMWrapperWorldEPT_@Base 2.2.0
 (optional=templinst|arch=s390x)_ZN7WebCore16getCachedWrapperINS_11TextMetricsEEEPNS_12JSDOMWrapperEPNS_15DOMWrapperWorldEPT_@Base 2.2.0
 (optional=templinst|arch=s390x)_ZN7WebCore16getCachedWrapperINS_11WebKitPointEEEPNS_12JSDOMWrapperEPNS_15DOMWrapperWorldEPT_@Base 2.2.0
 (optional=templinst|arch=s390x)_ZN7WebCore16getCachedWrapperINS_11XPathResultEEEPNS_12JSDOMWrapperEPNS_15DOMWrapperWorldEPT_@Base 2.2.0
 (optional=templinst|arch=s390x)_ZN7WebCore16getCachedWrapperINS_12DOMSelectionEEEPNS_12JSDOMWrapperEPNS_15DOMWrapperWorldEPT_@Base 2.2.0
 (optional=templinst|arch=s390x)_ZN7WebCore16getCachedWrapperINS_12DOMStringMapEEEPNS_12JSDOMWrapperEPNS_15DOMWrapperWorldEPT_@Base 2.2.0
 (optional=templinst|arch=s390x)_ZN7WebCore16getCachedWrapperINS_12DOMTokenListEEEPNS_12JSDOMWrapperEPNS_15DOMWrapperWorldEPT_@Base 2.2.0
 (optional=templinst|arch=s390x)_ZN7WebCore16getCachedWrapperINS_12DatabaseSyncEEEPNS_12JSDOMWrapperEPNS_15DOMWrapperWorldEPT_@Base 2.2.0
 (optional=templinst|arch=s390x)_ZN7WebCore16getCachedWrapperINS_12NamedNodeMapEEEPNS_12JSDOMWrapperEPNS_15DOMWrapperWorldEPT_@Base 2.2.0
 (optional=templinst|arch=s390x)_ZN7WebCore16getCachedWrapperINS_12NodeIteratorEEEPNS_12JSDOMWrapperEPNS_15DOMWrapperWorldEPT_@Base 2.2.0
 (optional=templinst|arch=s390x)_ZN7WebCore16getCachedWrapperINS_12NotificationEEEPNS_12JSDOMWrapperEPNS_15DOMWrapperWorldEPT_@Base 2.2.0
 (optional=templinst|arch=s390x)_ZN7WebCore16getCachedWrapperINS_12SQLExceptionEEEPNS_12JSDOMWrapperEPNS_15DOMWrapperWorldEPT_@Base 2.2.0
 (optional=templinst|arch=s390x)_ZN7WebCore16getCachedWrapperINS_12SQLResultSetEEEPNS_12JSDOMWrapperEPNS_15DOMWrapperWorldEPT_@Base 2.2.0
 (optional=templinst|arch=s390x)_ZN7WebCore16getCachedWrapperINS_12SVGExceptionEEEPNS_12JSDOMWrapperEPNS_15DOMWrapperWorldEPT_@Base 2.2.0
 (optional=templinst|arch=s390x)_ZN7WebCore16getCachedWrapperINS_12SVGUnitTypesEEEPNS_12JSDOMWrapperEPNS_15DOMWrapperWorldEPT_@Base 2.2.0
 (optional=templinst|arch=s390x)_ZN7WebCore16getCachedWrapperINS_12SharedWorkerEEEPNS_12JSDOMWrapperEPNS_15DOMWrapperWorldEPT_@Base 2.2.0
 (optional=templinst|arch=s390x)_ZN7WebCore16getCachedWrapperINS_12VoidCallbackEEEPNS_12JSDOMWrapperEPNS_15DOMWrapperWorldEPT_@Base 2.2.0
 (optional=templinst|arch=s390x)_ZN7WebCore16getCachedWrapperINS_13CanvasPatternEEEPNS_12JSDOMWrapperEPNS_15DOMWrapperWorldEPT_@Base 2.2.0
 (optional=templinst|arch=s390x)_ZN7WebCore16getCachedWrapperINS_13DOMStringListEEEPNS_12JSDOMWrapperEPNS_15DOMWrapperWorldEPT_@Base 2.2.0
 (optional=templinst|arch=s390x)_ZN7WebCore16getCachedWrapperINS_13FileExceptionEEEPNS_12JSDOMWrapperEPNS_15DOMWrapperWorldEPT_@Base 2.2.0
 (optional=templinst|arch=s390x)_ZN7WebCore16getCachedWrapperINS_13ScriptProfileEEEPNS_12JSDOMWrapperEPNS_15DOMWrapperWorldEPT_@Base 2.2.0
 (optional=templinst|arch=s390x)_ZN7WebCore16getCachedWrapperINS_13ValidityStateEEEPNS_12JSDOMWrapperEPNS_15DOMWrapperWorldEPT_@Base 2.2.0
 (optional=templinst|arch=s390x)_ZN7WebCore16getCachedWrapperINS_13XMLSerializerEEEPNS_12JSDOMWrapperEPNS_15DOMWrapperWorldEPT_@Base 2.2.0
 (optional=templinst|arch=s390x)_ZN7WebCore16getCachedWrapperINS_14CanvasGradientEEEPNS_12JSDOMWrapperEPNS_15DOMWrapperWorldEPT_@Base 2.2.0
 (optional=templinst|arch=s390x)_ZN7WebCore16getCachedWrapperINS_14ClientRectListEEEPNS_12JSDOMWrapperEPNS_15DOMWrapperWorldEPT_@Base 2.2.0
 (optional=templinst|arch=s390x)_ZN7WebCore16getCachedWrapperINS_14DOMPluginArrayEEEPNS_12JSDOMWrapperEPNS_15DOMWrapperWorldEPT_@Base 2.2.0
 (optional=templinst|arch=s390x)_ZN7WebCore16getCachedWrapperINS_14EventExceptionEEEPNS_12JSDOMWrapperEPNS_15DOMWrapperWorldEPT_@Base 2.2.0
 (optional=templinst|arch=s390x)_ZN7WebCore16getCachedWrapperINS_14FileReaderSyncEEEPNS_12JSDOMWrapperEPNS_15DOMWrapperWorldEPT_@Base 2.2.0
 (optional=templinst|arch=s390x)_ZN7WebCore16getCachedWrapperINS_14MediaQueryListEEEPNS_12JSDOMWrapperEPNS_15DOMWrapperWorldEPT_@Base 2.2.0
 (optional=templinst|arch=s390x)_ZN7WebCore16getCachedWrapperINS_14MessageChannelEEEPNS_12JSDOMWrapperEPNS_15DOMWrapperWorldEPT_@Base 2.2.0
 (optional=templinst|arch=s390x)_ZN7WebCore16getCachedWrapperINS_14RangeExceptionEEEPNS_12JSDOMWrapperEPNS_15DOMWrapperWorldEPT_@Base 2.2.0
 (optional=templinst|arch=s390x)_ZN7WebCore16getCachedWrapperINS_14SQLTransactionEEEPNS_12JSDOMWrapperEPNS_15DOMWrapperWorldEPT_@Base 2.2.0
 (optional=templinst|arch=s390x)_ZN7WebCore16getCachedWrapperINS_14StyleSheetListEEEPNS_12JSDOMWrapperEPNS_15DOMWrapperWorldEPT_@Base 2.2.0
 (optional=templinst|arch=s390x)_ZN7WebCore16getCachedWrapperINS_14WorkerLocationEEEPNS_12JSDOMWrapperEPNS_15DOMWrapperWorldEPT_@Base 2.2.0
 (optional=templinst|arch=s390x)_ZN7WebCore16getCachedWrapperINS_14XMLHttpRequestEEEPNS_12JSDOMWrapperEPNS_15DOMWrapperWorldEPT_@Base 2.2.0
 (optional=templinst|arch=s390x)_ZN7WebCore16getCachedWrapperINS_14XPathEvaluatorEEEPNS_12JSDOMWrapperEPNS_15DOMWrapperWorldEPT_@Base 2.2.0
 (optional=templinst|arch=s390x)_ZN7WebCore16getCachedWrapperINS_14XPathExceptionEEEPNS_12JSDOMWrapperEPNS_15DOMWrapperWorldEPT_@Base 2.2.0
 (optional=templinst|arch=s390x)_ZN7WebCore16getCachedWrapperINS_15WebKitAnimationEEEPNS_12JSDOMWrapperEPNS_15DOMWrapperWorldEPT_@Base 2.2.0
 (optional=templinst|arch=s390x)_ZN7WebCore16getCachedWrapperINS_15WebKitCSSMatrixEEEPNS_12JSDOMWrapperEPNS_15DOMWrapperWorldEPT_@Base 2.2.0
 (optional=templinst|arch=s390x)_ZN7WebCore16getCachedWrapperINS_15WorkerNavigatorEEEPNS_12JSDOMWrapperEPNS_15DOMWrapperWorldEPT_@Base 2.2.0
 (optional=templinst|arch=s390x)_ZN7WebCore16getCachedWrapperINS_15XPathExpressionEEEPNS_12JSDOMWrapperEPNS_15DOMWrapperWorldEPT_@Base 2.2.0
 (optional=templinst|arch=s390x)_ZN7WebCore16getCachedWrapperINS_15XPathNSResolverEEEPNS_12JSDOMWrapperEPNS_15DOMWrapperWorldEPT_@Base 2.2.0
 (optional=templinst|arch=s390x)_ZN7WebCore16getCachedWrapperINS_16DOMCoreExceptionEEEPNS_12JSDOMWrapperEPNS_15DOMWrapperWorldEPT_@Base 2.2.0
 (optional=templinst|arch=s390x)_ZN7WebCore16getCachedWrapperINS_16DOMMimeTypeArrayEEEPNS_12JSDOMWrapperEPNS_15DOMWrapperWorldEPT_@Base 2.2.0
 (optional=templinst|arch=s390x)_ZN7WebCore16getCachedWrapperINS_17DOMImplementationEEEPNS_12JSDOMWrapperEPNS_15DOMWrapperWorldEPT_@Base 2.2.0
 (optional=templinst|arch=s390x)_ZN7WebCore16getCachedWrapperINS_17HTMLAllCollectionEEEPNS_12JSDOMWrapperEPNS_15DOMWrapperWorldEPT_@Base 2.2.0
 (optional=templinst|arch=s390x)_ZN7WebCore16getCachedWrapperINS_17WebKitBlobBuilderEEEPNS_12JSDOMWrapperEPNS_15DOMWrapperWorldEPT_@Base 2.2.0
 (optional=templinst|arch=s390x)_ZN7WebCore16getCachedWrapperINS_18InjectedScriptHostEEEPNS_12JSDOMWrapperEPNS_15DOMWrapperWorldEPT_@Base 2.2.0
 (optional=templinst|arch=s390x)_ZN7WebCore16getCachedWrapperINS_18NotificationCenterEEEPNS_12JSDOMWrapperEPNS_15DOMWrapperWorldEPT_@Base 2.2.0
 (optional=templinst|arch=s390x)_ZN7WebCore16getCachedWrapperINS_18SQLTransactionSyncEEEPNS_12JSDOMWrapperEPNS_15DOMWrapperWorldEPT_@Base 2.2.0
 (optional=templinst|arch=s390x)_ZN7WebCore16getCachedWrapperINS_18SVGElementInstanceEEEPNS_12JSDOMWrapperEPNS_15DOMWrapperWorldEPT_@Base 2.2.0
 (optional=templinst|arch=s390x)_ZN7WebCore16getCachedWrapperINS_18SVGPropertyTearOffINS_10FloatPointEEEEEPNS_12JSDOMWrapperEPNS_15DOMWrapperWorldEPT_@Base 2.2.0
 (optional=templinst|arch=s390x)_ZN7WebCore16getCachedWrapperINS_18SVGPropertyTearOffINS_12SVGTransformEEEEEPNS_12JSDOMWrapperEPNS_15DOMWrapperWorldEPT_@Base 2.2.0
 (optional=templinst|arch=s390x)_ZN7WebCore16getCachedWrapperINS_18SVGPropertyTearOffINS_22SVGPreserveAspectRatioEEEEEPNS_12JSDOMWrapperEPNS_15DOMWrapperWorldEPT_@Base 2.2.0
 (optional=templinst|arch=s390x)_ZN7WebCore16getCachedWrapperINS_18SVGPropertyTearOffINS_8SVGAngleEEEEEPNS_12JSDOMWrapperEPNS_15DOMWrapperWorldEPT_@Base 2.2.0
 (optional=templinst|arch=s390x)_ZN7WebCore16getCachedWrapperINS_18SVGPropertyTearOffINS_9FloatRectEEEEEPNS_12JSDOMWrapperEPNS_15DOMWrapperWorldEPT_@Base 2.2.0
 (optional=templinst|arch=s390x)_ZN7WebCore16getCachedWrapperINS_18SVGPropertyTearOffINS_9SVGLengthEEEEEPNS_12JSDOMWrapperEPNS_15DOMWrapperWorldEPT_@Base 2.2.0
 (optional=templinst|arch=s390x)_ZN7WebCore16getCachedWrapperINS_18SVGPropertyTearOffINS_9SVGMatrixEEEEEPNS_12JSDOMWrapperEPNS_15DOMWrapperWorldEPT_@Base 2.2.0
 (optional=templinst|arch=s390x)_ZN7WebCore16getCachedWrapperINS_18SVGPropertyTearOffIfEEEEPNS_12JSDOMWrapperEPNS_15DOMWrapperWorldEPT_@Base 2.2.0
 (optional=templinst|arch=s390x)_ZN7WebCore16getCachedWrapperINS_18SVGRenderingIntentEEEPNS_12JSDOMWrapperEPNS_15DOMWrapperWorldEPT_@Base 2.2.0
 (optional=templinst|arch=s390x)_ZN7WebCore16getCachedWrapperINS_19CSSStyleDeclarationEEEPNS_12JSDOMWrapperEPNS_15DOMWrapperWorldEPT_@Base 2.2.0
 (optional=templinst|arch=s390x)_ZN7WebCore16getCachedWrapperINS_19DOMApplicationCacheEEEPNS_12JSDOMWrapperEPNS_15DOMWrapperWorldEPT_@Base 2.2.0
 (optional=templinst|arch=s390x)_ZN7WebCore16getCachedWrapperINS_19JavaScriptCallFrameEEEPNS_12JSDOMWrapperEPNS_15DOMWrapperWorldEPT_@Base 2.2.0
 (optional=templinst|arch=s390x)_ZN7WebCore16getCachedWrapperINS_19SQLResultSetRowListEEEPNS_12JSDOMWrapperEPNS_15DOMWrapperWorldEPT_@Base 2.2.0
 (optional=templinst|arch=s390x)_ZN7WebCore16getCachedWrapperINS_19WebKitAnimationListEEEPNS_12JSDOMWrapperEPNS_15DOMWrapperWorldEPT_@Base 2.2.0
 (optional=templinst|arch=s390x)_ZN7WebCore16getCachedWrapperINS_20DOMSettableTokenListEEEPNS_12JSDOMWrapperEPNS_15DOMWrapperWorldEPT_@Base 2.2.0
 (optional=templinst|arch=s390x)_ZN7WebCore16getCachedWrapperINS_20XMLHttpRequestUploadEEEPNS_12JSDOMWrapperEPNS_15DOMWrapperWorldEPT_@Base 2.2.0
 (optional=templinst|arch=s390x)_ZN7WebCore16getCachedWrapperINS_21InspectorFrontendHostEEEPNS_12JSDOMWrapperEPNS_15DOMWrapperWorldEPT_@Base 2.2.0
 (optional=templinst|arch=s390x)_ZN7WebCore16getCachedWrapperINS_22SVGElementInstanceListEEEPNS_12JSDOMWrapperEPNS_15DOMWrapperWorldEPT_@Base 2.2.0
 (optional=templinst|arch=s390x)_ZN7WebCore16getCachedWrapperINS_22SVGListPropertyTearOffINS_12SVGPointListEEEEEPNS_12JSDOMWrapperEPNS_15DOMWrapperWorldEPT_@Base 2.2.0
 (optional=templinst|arch=s390x)_ZN7WebCore16getCachedWrapperINS_22SVGListPropertyTearOffINS_13SVGLengthListEEEEEPNS_12JSDOMWrapperEPNS_15DOMWrapperWorldEPT_@Base 2.2.0
 (optional=templinst|arch=s390x)_ZN7WebCore16getCachedWrapperINS_22SVGListPropertyTearOffINS_13SVGNumberListEEEEEPNS_12JSDOMWrapperEPNS_15DOMWrapperWorldEPT_@Base 2.2.0
 (optional=templinst|arch=s390x)_ZN7WebCore16getCachedWrapperINS_23XMLHttpRequestExceptionEEEPNS_12JSDOMWrapperEPNS_15DOMWrapperWorldEPT_@Base 2.2.0
 (optional=templinst|arch=s390x)_ZN7WebCore16getCachedWrapperINS_26SVGAnimatedPropertyTearOffINS_22SVGPreserveAspectRatioEEEEEPNS_12JSDOMWrapperEPNS_15DOMWrapperWorldEPT_@Base 2.2.0
 (optional=templinst|arch=s390x)_ZN7WebCore16getCachedWrapperINS_26SVGAnimatedPropertyTearOffINS_8SVGAngleEEEEEPNS_12JSDOMWrapperEPNS_15DOMWrapperWorldEPT_@Base 2.2.0
 (optional=templinst|arch=s390x)_ZN7WebCore16getCachedWrapperINS_26SVGAnimatedPropertyTearOffINS_9FloatRectEEEEEPNS_12JSDOMWrapperEPNS_15DOMWrapperWorldEPT_@Base 2.2.0
 (optional=templinst|arch=s390x)_ZN7WebCore16getCachedWrapperINS_26SVGAnimatedPropertyTearOffINS_9SVGLengthEEEEEPNS_12JSDOMWrapperEPNS_15DOMWrapperWorldEPT_@Base 2.2.0
 (optional=templinst|arch=s390x)_ZN7WebCore16getCachedWrapperINS_28SVGStaticListPropertyTearOffINS_13SVGStringListEEEEEPNS_12JSDOMWrapperEPNS_15DOMWrapperWorldEPT_@Base 2.2.0
 (optional=templinst|arch=s390x)_ZN7WebCore16getCachedWrapperINS_29SVGPathSegListPropertyTearOffEEEPNS_12JSDOMWrapperEPNS_15DOMWrapperWorldEPT_@Base 2.2.0
 (optional=templinst|arch=s390x)_ZN7WebCore16getCachedWrapperINS_30SVGAnimatedListPropertyTearOffINS_13SVGLengthListEEEEEPNS_12JSDOMWrapperEPNS_15DOMWrapperWorldEPT_@Base 2.2.0
 (optional=templinst|arch=s390x)_ZN7WebCore16getCachedWrapperINS_30SVGAnimatedListPropertyTearOffINS_13SVGNumberListEEEEEPNS_12JSDOMWrapperEPNS_15DOMWrapperWorldEPT_@Base 2.2.0
 (optional=templinst|arch=s390x)_ZN7WebCore16getCachedWrapperINS_31SVGTransformListPropertyTearOffEEEPNS_12JSDOMWrapperEPNS_15DOMWrapperWorldEPT_@Base 2.2.0
 (optional=templinst|arch=s390x)_ZN7WebCore16getCachedWrapperINS_32SVGAnimatedStaticPropertyTearOffIN3WTF6StringEEEEEPNS_12JSDOMWrapperEPNS_15DOMWrapperWorldEPT_@Base 2.2.0
 (optional=templinst|arch=s390x)_ZN7WebCore16getCachedWrapperINS_32SVGAnimatedStaticPropertyTearOffIbEEEEPNS_12JSDOMWrapperEPNS_15DOMWrapperWorldEPT_@Base 2.2.0
 (optional=templinst|arch=s390x)_ZN7WebCore16getCachedWrapperINS_32SVGAnimatedStaticPropertyTearOffIfEEEEPNS_12JSDOMWrapperEPNS_15DOMWrapperWorldEPT_@Base 2.2.0
 (optional=templinst|arch=s390x)_ZN7WebCore16getCachedWrapperINS_32SVGAnimatedStaticPropertyTearOffIiEEEEPNS_12JSDOMWrapperEPNS_15DOMWrapperWorldEPT_@Base 2.2.0
 (optional=templinst|arch=s390x)_ZN7WebCore16getCachedWrapperINS_32SVGAnimatedStaticPropertyTearOffIlEEEEPNS_12JSDOMWrapperEPNS_15DOMWrapperWorldEPT_@Base 2.2.0
 (optional=templinst|arch=s390x)_ZN7WebCore16getCachedWrapperINS_39SVGAnimatedTransformListPropertyTearOffEEEPNS_12JSDOMWrapperEPNS_15DOMWrapperWorldEPT_@Base 2.2.0
 (optional=templinst|arch=s390x)_ZN7WebCore16getCachedWrapperINS_4BlobEEEPNS_12JSDOMWrapperEPNS_15DOMWrapperWorldEPT_@Base 2.2.0
 (optional=templinst|arch=s390x)_ZN7WebCore16getCachedWrapperINS_4FileEEEPNS_12JSDOMWrapperEPNS_15DOMWrapperWorldEPT_@Base 2.2.0
 (optional=templinst|arch=s390x)_ZN7WebCore16getCachedWrapperINS_4RectEEEPNS_12JSDOMWrapperEPNS_15DOMWrapperWorldEPT_@Base 2.2.0
 (optional=templinst|arch=s390x)_ZN7WebCore16getCachedWrapperINS_5RangeEEEPNS_12JSDOMWrapperEPNS_15DOMWrapperWorldEPT_@Base 2.2.0
 (optional=templinst|arch=s390x)_ZN7WebCore16getCachedWrapperINS_5TouchEEEPNS_12JSDOMWrapperEPNS_15DOMWrapperWorldEPT_@Base 2.2.0
 (optional=templinst|arch=s390x)_ZN7WebCore16getCachedWrapperINS_6CryptoEEEPNS_12JSDOMWrapperEPNS_15DOMWrapperWorldEPT_@Base 2.2.0
 (optional=templinst|arch=s390x)_ZN7WebCore16getCachedWrapperINS_6DOMURLEEEPNS_12JSDOMWrapperEPNS_15DOMWrapperWorldEPT_@Base 2.2.0
 (optional=templinst|arch=s390x)_ZN7WebCore16getCachedWrapperINS_6ScreenEEEPNS_12JSDOMWrapperEPNS_15DOMWrapperWorldEPT_@Base 2.2.0
 (optional=templinst|arch=s390x)_ZN7WebCore16getCachedWrapperINS_6WorkerEEEPNS_12JSDOMWrapperEPNS_15DOMWrapperWorldEPT_@Base 2.2.0
 (optional=templinst|arch=s390x)_ZN7WebCore16getCachedWrapperINS_7BarInfoEEEPNS_12JSDOMWrapperEPNS_15DOMWrapperWorldEPT_@Base 2.2.0
 (optional=templinst|arch=s390x)_ZN7WebCore16getCachedWrapperINS_7ConsoleEEEPNS_12JSDOMWrapperEPNS_15DOMWrapperWorldEPT_@Base 2.2.0
 (optional=templinst|arch=s390x)_ZN7WebCore16getCachedWrapperINS_7CounterEEEPNS_12JSDOMWrapperEPNS_15DOMWrapperWorldEPT_@Base 2.2.0
 (optional=templinst|arch=s390x)_ZN7WebCore16getCachedWrapperINS_7StorageEEEPNS_12JSDOMWrapperEPNS_15DOMWrapperWorldEPT_@Base 2.2.0
 (optional=templinst|arch=s390x)_ZN7WebCore16getCachedWrapperINS_8DatabaseEEEPNS_12JSDOMWrapperEPNS_15DOMWrapperWorldEPT_@Base 2.2.0
 (optional=templinst|arch=s390x)_ZN7WebCore16getCachedWrapperINS_8FileListEEEPNS_12JSDOMWrapperEPNS_15DOMWrapperWorldEPT_@Base 2.2.0
 (optional=templinst|arch=s390x)_ZN7WebCore16getCachedWrapperINS_8NodeListEEEPNS_12JSDOMWrapperEPNS_15DOMWrapperWorldEPT_@Base 2.2.0
 (optional=templinst|arch=s390x)_ZN7WebCore16getCachedWrapperINS_8RGBColorEEEPNS_12JSDOMWrapperEPNS_15DOMWrapperWorldEPT_@Base 2.2.0
 (optional=templinst|arch=s390x)_ZN7WebCore16getCachedWrapperINS_8SQLErrorEEEPNS_12JSDOMWrapperEPNS_15DOMWrapperWorldEPT_@Base 2.2.0
 (optional=templinst|arch=s390x)_ZN7WebCore16getCachedWrapperINS_9ClipboardEEEPNS_12JSDOMWrapperEPNS_15DOMWrapperWorldEPT_@Base 2.2.0
 (optional=templinst|arch=s390x)_ZN7WebCore16getCachedWrapperINS_9DOMParserEEEPNS_12JSDOMWrapperEPNS_15DOMWrapperWorldEPT_@Base 2.2.0
 (optional=templinst|arch=s390x)_ZN7WebCore16getCachedWrapperINS_9DOMPluginEEEPNS_12JSDOMWrapperEPNS_15DOMWrapperWorldEPT_@Base 2.2.0
 (optional=templinst|arch=s390x)_ZN7WebCore16getCachedWrapperINS_9FileErrorEEEPNS_12JSDOMWrapperEPNS_15DOMWrapperWorldEPT_@Base 2.2.0
 (optional=templinst|arch=s390x)_ZN7WebCore16getCachedWrapperINS_9InternalsEEEPNS_12JSDOMWrapperEPNS_15DOMWrapperWorldEPT_@Base 2.2.0
 (optional=templinst|arch=s390x)_ZN7WebCore16getCachedWrapperINS_9MediaListEEEPNS_12JSDOMWrapperEPNS_15DOMWrapperWorldEPT_@Base 2.2.0
 (optional=templinst|arch=s390x)_ZN7WebCore16getCachedWrapperINS_9NavigatorEEEPNS_12JSDOMWrapperEPNS_15DOMWrapperWorldEPT_@Base 2.2.0
 (optional=templinst|arch=s390x)_ZN7WebCore16getCachedWrapperINS_9TouchListEEEPNS_12JSDOMWrapperEPNS_15DOMWrapperWorldEPT_@Base 2.2.0
 (optional=templinst|arch=s390x)_ZN7WebCore16getCachedWrapperINS_9WebSocketEEEPNS_12JSDOMWrapperEPNS_15DOMWrapperWorldEPT_@Base 2.2.0
 (optional=private|arch=s390x)_ZN7WebCore17CSSParserSelector10setForPageEv@Base 2.2.0
 (optional=private|arch=s390x)_ZN7WebCore17CSSParserSelector11setArgumentERKN3WTF12AtomicStringE@Base 2.2.0
 (optional=private|arch=s390x)_ZN7WebCore17CSSParserSelector12setAttributeERKNS_13QualifiedNameE@Base 2.2.0
 (optional=private|arch=s390x)_ZN7WebCore17CSSParserSelector8setMatchENS_11CSSSelector5MatchE@Base 2.2.0
 (optional=private|arch=s390x)_ZN7WebCore17CSSParserSelector8setValueERKN3WTF12AtomicStringE@Base 2.2.0
 (optional=private|arch=s390x)_ZN7WebCore17DOMImplementation3refEv@Base 2.2.0
 (optional=private|arch=s390x)_ZN7WebCore17DOMImplementation5derefEv@Base 2.2.0
 (optional=private|arch=s390x)_ZN7WebCore17DOMImplementation8documentEv@Base 2.2.0
 (optional=private|arch=s390x)_ZN7WebCore17HTMLObjectElement13checkValidityEv@Base 2.2.0
 (optional=private|arch=s390x)_ZN7WebCore17HTMLObjectElement17setCustomValidityERKN3WTF6StringE@Base 2.2.0
 (optional=private|arch=s390x)_ZN7WebCore17HTMLObjectElement17validationMessageEv@Base 2.2.0
 (optional=private|arch=s390x)_ZN7WebCore17InspectorDOMAgent17hideNodeHighlightEPN3WTF6StringE@Base 2.2.0
 (optional=private|arch=s390x)_ZN7WebCore17InspectorDOMAgent18hideFrameHighlightEPN3WTF6StringE@Base 2.2.0
 (optional=private|arch=s390x)_ZN7WebCore17InspectorFrontend10DOMStorageC1EPNS_24InspectorFrontendChannelE@Base 2.2.0
 (optional=private|arch=s390x)_ZN7WebCore17InspectorFrontend10DOMStorageC2EPNS_24InspectorFrontendChannelE@Base 2.2.0
 (optional=private|arch=s390x)_ZN7WebCore17InspectorFrontend16ApplicationCacheC1EPNS_24InspectorFrontendChannelE@Base 2.2.0
 (optional=private|arch=s390x)_ZN7WebCore17InspectorFrontend16ApplicationCacheC2EPNS_24InspectorFrontendChannelE@Base 2.2.0
 (optional=private|arch=s390x)_ZN7WebCore17InspectorFrontend3DOMC1EPNS_24InspectorFrontendChannelE@Base 2.2.0
 (optional=private|arch=s390x)_ZN7WebCore17InspectorFrontend3DOMC2EPNS_24InspectorFrontendChannelE@Base 2.2.0
 (optional=private|arch=s390x)_ZN7WebCore17InspectorFrontend4PageC1EPNS_24InspectorFrontendChannelE@Base 2.2.0
 (optional=private|arch=s390x)_ZN7WebCore17InspectorFrontend4PageC2EPNS_24InspectorFrontendChannelE@Base 2.2.0
 (optional=private|arch=s390x)_ZN7WebCore17InspectorFrontend6WorkerC1EPNS_24InspectorFrontendChannelE@Base 2.2.0
 (optional=private|arch=s390x)_ZN7WebCore17InspectorFrontend6WorkerC2EPNS_24InspectorFrontendChannelE@Base 2.2.0
 (optional=private|arch=s390x)_ZN7WebCore17InspectorFrontend7ConsoleC1EPNS_24InspectorFrontendChannelE@Base 2.2.0
 (optional=private|arch=s390x)_ZN7WebCore17InspectorFrontend7ConsoleC2EPNS_24InspectorFrontendChannelE@Base 2.2.0
 (optional=private|arch=s390x)_ZN7WebCore17InspectorFrontend8DatabaseC1EPNS_24InspectorFrontendChannelE@Base 2.2.0
 (optional=private|arch=s390x)_ZN7WebCore17InspectorFrontend8DatabaseC2EPNS_24InspectorFrontendChannelE@Base 2.2.0
 (optional=private|arch=s390x)_ZN7WebCore17InspectorFrontend8DebuggerC1EPNS_24InspectorFrontendChannelE@Base 2.2.0
 (optional=private|arch=s390x)_ZN7WebCore17InspectorFrontend8DebuggerC2EPNS_24InspectorFrontendChannelE@Base 2.2.0
 (optional=private|arch=s390x)_ZN7WebCore17InspectorFrontend8ProfilerC1EPNS_24InspectorFrontendChannelE@Base 2.2.0
 (optional=private|arch=s390x)_ZN7WebCore17InspectorFrontend8ProfilerC2EPNS_24InspectorFrontendChannelE@Base 2.2.0
 (optional=private|arch=s390x)_ZN7WebCore17InspectorFrontend8TimelineC1EPNS_24InspectorFrontendChannelE@Base 2.2.0
 (optional=private|arch=s390x)_ZN7WebCore17InspectorFrontend8TimelineC2EPNS_24InspectorFrontendChannelE@Base 2.2.0
 (optional=private|arch=s390x)_ZN7WebCore17InspectorFrontend9InspectorC1EPNS_24InspectorFrontendChannelE@Base 2.2.0
 (optional=private|arch=s390x)_ZN7WebCore17InspectorFrontend9InspectorC2EPNS_24InspectorFrontendChannelE@Base 2.2.0
 (optional=private|arch=s390x)_ZN7WebCore17JSArrayBufferView15createStructureERN3JSC12JSGlobalDataENS1_7JSValueE@Base 2.2.0
 (optional=private|arch=s390x)_ZN7WebCore17JSAttrConstructor15createStructureERN3JSC12JSGlobalDataENS1_7JSValueE@Base 2.2.0
 (optional=private|arch=s390x)_ZN7WebCore17JSBlobConstructor15createStructureERN3JSC12JSGlobalDataENS1_7JSValueE@Base 2.2.0
 (optional=private|arch=s390x)_ZN7WebCore17JSCryptoPrototype15createStructureERN3JSC12JSGlobalDataENS1_7JSValueE@Base 2.2.0
 (optional=private|arch=s390x)_ZN7WebCore17JSCryptoPrototypeC1ERN3JSC12JSGlobalDataEPNS1_14JSGlobalObjectEPNS1_9StructureE@Base 2.2.0
 (optional=private|arch=s390x)_ZN7WebCore17JSCryptoPrototypeC2ERN3JSC12JSGlobalDataEPNS1_14JSGlobalObjectEPNS1_9StructureE@Base 2.2.0
 (optional=private|arch=s390x)_ZN7WebCore17JSDOMGlobalObject12globalObjectEv@Base 2.2.0
 (optional=private|arch=s390x)_ZN7WebCore17JSDOMURLPrototype15createStructureERN3JSC12JSGlobalDataENS1_7JSValueE@Base 2.2.0
 (optional=private|arch=s390x)_ZN7WebCore17JSDOMURLPrototypeC1ERN3JSC12JSGlobalDataEPNS1_14JSGlobalObjectEPNS1_9StructureE@Base 2.2.0
 (optional=private|arch=s390x)_ZN7WebCore17JSDOMURLPrototypeC2ERN3JSC12JSGlobalDataEPNS1_14JSGlobalObjectEPNS1_9StructureE@Base 2.2.0
 (optional=private|arch=s390x)_ZN7WebCore17JSEntityPrototype15createStructureERN3JSC12JSGlobalDataENS1_7JSValueE@Base 2.2.0
 (optional=private|arch=s390x)_ZN7WebCore17JSEntityPrototypeC1ERN3JSC12JSGlobalDataEPNS1_14JSGlobalObjectEPNS1_9StructureE@Base 2.2.0
 (optional=private|arch=s390x)_ZN7WebCore17JSEntityPrototypeC2ERN3JSC12JSGlobalDataEPNS1_14JSGlobalObjectEPNS1_9StructureE@Base 2.2.0
 (optional=private|arch=s390x)_ZN7WebCore17JSFileConstructor15createStructureERN3JSC12JSGlobalDataENS1_7JSValueE@Base 2.2.0
 (optional=private|arch=s390x)_ZN7WebCore17JSFileReaderOwnerC1Ev@Base 2.2.0
 (optional=private|arch=s390x)_ZN7WebCore17JSFileReaderOwnerC2Ev@Base 2.2.0
 (optional=private|arch=s390x)_ZN7WebCore17JSHTMLAreaElement15createStructureERN3JSC12JSGlobalDataENS1_7JSValueE@Base 2.2.0
 (optional=private|arch=s390x)_ZN7WebCore17JSHTMLBaseElement15createStructureERN3JSC12JSGlobalDataENS1_7JSValueE@Base 2.2.0
 (optional=private|arch=s390x)_ZN7WebCore17JSHTMLBodyElement15createStructureERN3JSC12JSGlobalDataENS1_7JSValueE@Base 2.2.0
 (optional=private|arch=s390x)_ZN7WebCore17JSHTMLFontElement15createStructureERN3JSC12JSGlobalDataENS1_7JSValueE@Base 2.2.0
 (optional=private|arch=s390x)_ZN7WebCore17JSHTMLFormElement15createStructureERN3JSC12JSGlobalDataENS1_7JSValueE@Base 2.2.0
 (optional=private|arch=s390x)_ZN7WebCore17JSHTMLHeadElement15createStructureERN3JSC12JSGlobalDataENS1_7JSValueE@Base 2.2.0
 (optional=private|arch=s390x)_ZN7WebCore17JSHTMLHtmlElement15createStructureERN3JSC12JSGlobalDataENS1_7JSValueE@Base 2.2.0
 (optional=private|arch=s390x)_ZN7WebCore17JSHTMLLinkElement15createStructureERN3JSC12JSGlobalDataENS1_7JSValueE@Base 2.2.0
 (optional=private|arch=s390x)_ZN7WebCore17JSHTMLMenuElement15createStructureERN3JSC12JSGlobalDataENS1_7JSValueE@Base 2.2.0
 (optional=private|arch=s390x)_ZN7WebCore17JSHTMLMetaElement15createStructureERN3JSC12JSGlobalDataENS1_7JSValueE@Base 2.2.0
 (optional=private|arch=s390x)_ZN7WebCore17JSNodeConstructor15createStructureERN3JSC12JSGlobalDataENS1_7JSValueE@Base 2.2.0
 (optional=private|arch=s390x)_ZN7WebCore17JSRectConstructor15createStructureERN3JSC12JSGlobalDataENS1_7JSValueE@Base 2.2.0
 (optional=private|arch=s390x)_ZN7WebCore17JSSVGAnimatedRect15createStructureERN3JSC12JSGlobalDataENS1_7JSValueE@Base 2.2.0
 (optional=private|arch=s390x)_ZN7WebCore17JSSVGGlyphElement15createStructureERN3JSC12JSGlobalDataENS1_7JSValueE@Base 2.2.0
 (optional=private|arch=s390x)_ZN7WebCore17JSSVGHKernElement15createStructureERN3JSC12JSGlobalDataENS1_7JSValueE@Base 2.2.0
 (optional=private|arch=s390x)_ZN7WebCore17JSSVGImageElement15createStructureERN3JSC12JSGlobalDataENS1_7JSValueE@Base 2.2.0
 (optional=private|arch=s390x)_ZN7WebCore17JSSVGStyleElement15createStructureERN3JSC12JSGlobalDataENS1_7JSValueE@Base 2.2.0
 (optional=private|arch=s390x)_ZN7WebCore17JSSVGTSpanElement15createStructureERN3JSC12JSGlobalDataENS1_7JSValueE@Base 2.2.0
 (optional=private|arch=s390x)_ZN7WebCore17JSSVGTitleElement15createStructureERN3JSC12JSGlobalDataENS1_7JSValueE@Base 2.2.0
 (optional=private|arch=s390x)_ZN7WebCore17JSSVGVKernElement15createStructureERN3JSC12JSGlobalDataENS1_7JSValueE@Base 2.2.0
 (optional=private|arch=s390x)_ZN7WebCore17JSScreenPrototype15createStructureERN3JSC12JSGlobalDataENS1_7JSValueE@Base 2.2.0
 (optional=private|arch=s390x)_ZN7WebCore17JSScreenPrototypeC1ERN3JSC12JSGlobalDataEPNS1_14JSGlobalObjectEPNS1_9StructureE@Base 2.2.0
 (optional=private|arch=s390x)_ZN7WebCore17JSScreenPrototypeC2ERN3JSC12JSGlobalDataEPNS1_14JSGlobalObjectEPNS1_9StructureE@Base 2.2.0
 (optional=private|arch=s390x)_ZN7WebCore17JSStyleMediaOwnerC1Ev@Base 2.2.0
 (optional=private|arch=s390x)_ZN7WebCore17JSStyleMediaOwnerC2Ev@Base 2.2.0
 (optional=private|arch=s390x)_ZN7WebCore17JSTextConstructor15createStructureERN3JSC12JSGlobalDataENS1_7JSValueE@Base 2.2.0
 (optional=private|arch=s390x)_ZN7WebCore17JSWebKitAnimation15createStructureERN3JSC12JSGlobalDataENS1_7JSValueE@Base 2.2.0
 (optional=private|arch=s390x)_ZN7WebCore17JSWorkerNavigator15createStructureERN3JSC12JSGlobalDataENS1_7JSValueE@Base 2.2.0
 (optional=private|arch=s390x)_ZN7WebCore17JSWorkerPrototype15createStructureERN3JSC12JSGlobalDataENS1_7JSValueE@Base 2.2.0
 (optional=private|arch=s390x)_ZN7WebCore17JSWorkerPrototypeC1ERN3JSC12JSGlobalDataEPNS1_14JSGlobalObjectEPNS1_9StructureE@Base 2.2.0
 (optional=private|arch=s390x)_ZN7WebCore17JSWorkerPrototypeC2ERN3JSC12JSGlobalDataEPNS1_14JSGlobalObjectEPNS1_9StructureE@Base 2.2.0
 (optional=private|arch=s390x)_ZN7WebCore17JSXPathExpression15createStructureERN3JSC12JSGlobalDataENS1_7JSValueE@Base 2.2.0
 (optional=private|arch=s390x)_ZN7WebCore17JSXPathNSResolver15createStructureERN3JSC12JSGlobalDataENS1_7JSValueE@Base 2.2.0
 (optional=private|arch=s390x)_ZN7WebCore17NetworkingContextC1Ev@Base 2.2.0
 (optional=private|arch=s390x)_ZN7WebCore17NetworkingContextC2Ev@Base 2.2.0
 (optional=private|arch=s390x)_ZN7WebCore17PageClientQWidgetC1EP7QWidgetP8QWebPage@Base 2.2.0
 (optional=private|arch=s390x)_ZN7WebCore17PageClientQWidgetC2EP7QWidgetP8QWebPage@Base 2.2.0
 (optional=private|arch=s390x)_ZN7WebCore17TiledBackingStore30getKeepAndCoverAreaMultipliersERNS_9FloatSizeES2_@Base 2.2.0
 (optional=private|arch=s390x)_ZN7WebCore17WebKitBlobBuilder6createEv@Base 2.2.0
 (optional=private|arch=s390x)_ZN7WebCore17WebKitBlobBuilderD1Ev@Base 2.2.0
 (optional=private|arch=s390x)_ZN7WebCore17WebKitBlobBuilderD2Ev@Base 2.2.0
 (optional=templinst|arch=s390x)_ZN7WebCore17getDOMConstructorINS_17JSAttrConstructorEEEPN3JSC8JSObjectEPNS2_9ExecStateEPKNS_17JSDOMGlobalObjectE@Base 2.2.0
 (optional=templinst|arch=s390x)_ZN7WebCore17getDOMConstructorINS_17JSBlobConstructorEEEPN3JSC8JSObjectEPNS2_9ExecStateEPKNS_17JSDOMGlobalObjectE@Base 2.2.0
 (optional=templinst|arch=s390x)_ZN7WebCore17getDOMConstructorINS_17JSFileConstructorEEEPN3JSC8JSObjectEPNS2_9ExecStateEPKNS_17JSDOMGlobalObjectE@Base 2.2.0
 (optional=templinst|arch=s390x)_ZN7WebCore17getDOMConstructorINS_17JSNodeConstructorEEEPN3JSC8JSObjectEPNS2_9ExecStateEPKNS_17JSDOMGlobalObjectE@Base 2.2.0
 (optional=templinst|arch=s390x)_ZN7WebCore17getDOMConstructorINS_17JSRectConstructorEEEPN3JSC8JSObjectEPNS2_9ExecStateEPKNS_17JSDOMGlobalObjectE@Base 2.2.0
 (optional=templinst|arch=s390x)_ZN7WebCore17getDOMConstructorINS_17JSTextConstructorEEEPN3JSC8JSObjectEPNS2_9ExecStateEPKNS_17JSDOMGlobalObjectE@Base 2.2.0
 (optional=templinst|arch=s390x)_ZN7WebCore17getDOMConstructorINS_18JSEventConstructorEEEPN3JSC8JSObjectEPNS2_9ExecStateEPKNS_17JSDOMGlobalObjectE@Base 2.2.0
 (optional=templinst|arch=s390x)_ZN7WebCore17getDOMConstructorINS_18JSRangeConstructorEEEPN3JSC8JSObjectEPNS2_9ExecStateEPKNS_17JSDOMGlobalObjectE@Base 2.2.0
 (optional=templinst|arch=s390x)_ZN7WebCore17getDOMConstructorINS_18JSTouchConstructorEEEPN3JSC8JSObjectEPNS2_9ExecStateEPKNS_17JSDOMGlobalObjectE@Base 2.2.0
 (optional=templinst|arch=s390x)_ZN7WebCore17getDOMConstructorINS_19JSEntityConstructorEEEPN3JSC8JSObjectEPNS2_9ExecStateEPKNS_17JSDOMGlobalObjectE@Base 2.2.0
 (optional=templinst|arch=s390x)_ZN7WebCore17getDOMConstructorINS_20JSCSSRuleConstructorEEEPN3JSC8JSObjectEPNS2_9ExecStateEPKNS_17JSDOMGlobalObjectE@Base 2.2.0
 (optional=templinst|arch=s390x)_ZN7WebCore17getDOMConstructorINS_20JSCommentConstructorEEEPN3JSC8JSObjectEPNS2_9ExecStateEPKNS_17JSDOMGlobalObjectE@Base 2.2.0
 (optional=templinst|arch=s390x)_ZN7WebCore17getDOMConstructorINS_20JSCounterConstructorEEEPN3JSC8JSObjectEPNS2_9ExecStateEPKNS_17JSDOMGlobalObjectE@Base 2.2.0
 (optional=templinst|arch=s390x)_ZN7WebCore17getDOMConstructorINS_20JSElementConstructorEEEPN3JSC8JSObjectEPNS2_9ExecStateEPKNS_17JSDOMGlobalObjectE@Base 2.2.0
 (optional=templinst|arch=s390x)_ZN7WebCore17getDOMConstructorINS_20JSSVGRectConstructorEEEPN3JSC8JSObjectEPNS2_9ExecStateEPKNS_17JSDOMGlobalObjectE@Base 2.2.0
 (optional=templinst|arch=s390x)_ZN7WebCore17getDOMConstructorINS_20JSStorageConstructorEEEPN3JSC8JSObjectEPNS2_9ExecStateEPKNS_17JSDOMGlobalObjectE@Base 2.2.0
 (optional=templinst|arch=s390x)_ZN7WebCore17getDOMConstructorINS_20JSUIEventConstructorEEEPN3JSC8JSObjectEPNS2_9ExecStateEPKNS_17JSDOMGlobalObjectE@Base 2.2.0
 (optional=templinst|arch=s390x)_ZN7WebCore17getDOMConstructorINS_21JSCSSValueConstructorEEEPN3JSC8JSObjectEPNS2_9ExecStateEPKNS_17JSDOMGlobalObjectE@Base 2.2.0
 (optional=templinst|arch=s390x)_ZN7WebCore17getDOMConstructorINS_21JSDocumentConstructorEEEPN3JSC8JSObjectEPNS2_9ExecStateEPKNS_17JSDOMGlobalObjectE@Base 2.2.0
 (optional=templinst|arch=s390x)_ZN7WebCore17getDOMConstructorINS_21JSFileListConstructorEEEPN3JSC8JSObjectEPNS2_9ExecStateEPKNS_17JSDOMGlobalObjectE@Base 2.2.0
 (optional=templinst|arch=s390x)_ZN7WebCore17getDOMConstructorINS_21JSNodeListConstructorEEEPN3JSC8JSObjectEPNS2_9ExecStateEPKNS_17JSDOMGlobalObjectE@Base 2.2.0
 (optional=templinst|arch=s390x)_ZN7WebCore17getDOMConstructorINS_21JSNotationConstructorEEEPN3JSC8JSObjectEPNS2_9ExecStateEPKNS_17JSDOMGlobalObjectE@Base 2.2.0
 (optional=templinst|arch=s390x)_ZN7WebCore17getDOMConstructorINS_21JSRGBColorConstructorEEEPN3JSC8JSObjectEPNS2_9ExecStateEPKNS_17JSDOMGlobalObjectE@Base 2.2.0
 (optional=templinst|arch=s390x)_ZN7WebCore17getDOMConstructorINS_21JSSVGAngleConstructorEEEPN3JSC8JSObjectEPNS2_9ExecStateEPKNS_17JSDOMGlobalObjectE@Base 2.2.0
 (optional=templinst|arch=s390x)_ZN7WebCore17getDOMConstructorINS_21JSSVGColorConstructorEEEPN3JSC8JSObjectEPNS2_9ExecStateEPKNS_17JSDOMGlobalObjectE@Base 2.2.0
 (optional=templinst|arch=s390x)_ZN7WebCore17getDOMConstructorINS_21JSSVGPaintConstructorEEEPN3JSC8JSObjectEPNS2_9ExecStateEPKNS_17JSDOMGlobalObjectE@Base 2.2.0
 (optional=templinst|arch=s390x)_ZN7WebCore17getDOMConstructorINS_21JSSVGPointConstructorEEEPN3JSC8JSObjectEPNS2_9ExecStateEPKNS_17JSDOMGlobalObjectE@Base 2.2.0
 (optional=templinst|arch=s390x)_ZN7WebCore17getDOMConstructorINS_22JSClipboardConstructorEEEPN3JSC8JSObjectEPNS2_9ExecStateEPKNS_17JSDOMGlobalObjectE@Base 2.2.0
 (optional=templinst|arch=s390x)_ZN7WebCore17getDOMConstructorINS_22JSDOMParserConstructorEEEPN3JSC8JSObjectEPNS2_9ExecStateEPKNS_17JSDOMGlobalObjectE@Base 2.2.0
 (optional=templinst|arch=s390x)_ZN7WebCore17getDOMConstructorINS_22JSDOMPluginConstructorEEEPN3JSC8JSObjectEPNS2_9ExecStateEPKNS_17JSDOMGlobalObjectE@Base 2.2.0
 (optional=templinst|arch=s390x)_ZN7WebCore17getDOMConstructorINS_22JSDOMWindowConstructorEEEPN3JSC8JSObjectEPNS2_9ExecStateEPKNS_17JSDOMGlobalObjectE@Base 2.2.0
 (optional=templinst|arch=s390x)_ZN7WebCore17getDOMConstructorINS_22JSFileErrorConstructorEEEPN3JSC8JSObjectEPNS2_9ExecStateEPKNS_17JSDOMGlobalObjectE@Base 2.2.0
 (optional=templinst|arch=s390x)_ZN7WebCore17getDOMConstructorINS_22JSImageDataConstructorEEEPN3JSC8JSObjectEPNS2_9ExecStateEPKNS_17JSDOMGlobalObjectE@Base 2.2.0
 (optional=templinst|arch=s390x)_ZN7WebCore17getDOMConstructorINS_22JSMediaListConstructorEEEPN3JSC8JSObjectEPNS2_9ExecStateEPKNS_17JSDOMGlobalObjectE@Base 2.2.0
 (optional=templinst|arch=s390x)_ZN7WebCore17getDOMConstructorINS_22JSSVGLengthConstructorEEEPN3JSC8JSObjectEPNS2_9ExecStateEPKNS_17JSDOMGlobalObjectE@Base 2.2.0
 (optional=templinst|arch=s390x)_ZN7WebCore17getDOMConstructorINS_22JSSVGMatrixConstructorEEEPN3JSC8JSObjectEPNS2_9ExecStateEPKNS_17JSDOMGlobalObjectE@Base 2.2.0
 (optional=templinst|arch=s390x)_ZN7WebCore17getDOMConstructorINS_22JSSVGNumberConstructorEEEPN3JSC8JSObjectEPNS2_9ExecStateEPKNS_17JSDOMGlobalObjectE@Base 2.2.0
 (optional=templinst|arch=s390x)_ZN7WebCore17getDOMConstructorINS_22JSTextEventConstructorEEEPN3JSC8JSObjectEPNS2_9ExecStateEPKNS_17JSDOMGlobalObjectE@Base 2.2.0
 (optional=templinst|arch=s390x)_ZN7WebCore17getDOMConstructorINS_22JSTouchListConstructorEEEPN3JSC8JSObjectEPNS2_9ExecStateEPKNS_17JSDOMGlobalObjectE@Base 2.2.0
 (optional=templinst|arch=s390x)_ZN7WebCore17getDOMConstructorINS_23JSClientRectConstructorEEEPN3JSC8JSObjectEPNS2_9ExecStateEPKNS_17JSDOMGlobalObjectE@Base 2.2.0
 (optional=templinst|arch=s390x)_ZN7WebCore17getDOMConstructorINS_23JSErrorEventConstructorEEEPN3JSC8JSObjectEPNS2_9ExecStateEPKNS_17JSDOMGlobalObjectE@Base 2.2.0
 (optional=templinst|arch=s390x)_ZN7WebCore17getDOMConstructorINS_23JSFileReaderConstructorEEEPN3JSC8JSObjectEPNS2_9ExecStateEPKNS_17JSDOMGlobalObjectE@Base 2.2.0
 (optional=templinst|arch=s390x)_ZN7WebCore17getDOMConstructorINS_23JSMediaErrorConstructorEEEPN3JSC8JSObjectEPNS2_9ExecStateEPKNS_17JSDOMGlobalObjectE@Base 2.2.0
 (optional=templinst|arch=s390x)_ZN7WebCore17getDOMConstructorINS_23JSMouseEventConstructorEEEPN3JSC8JSObjectEPNS2_9ExecStateEPKNS_17JSDOMGlobalObjectE@Base 2.2.0
 (optional=templinst|arch=s390x)_ZN7WebCore17getDOMConstructorINS_23JSNodeFilterConstructorEEEPN3JSC8JSObjectEPNS2_9ExecStateEPKNS_17JSDOMGlobalObjectE@Base 2.2.0
 (optional=templinst|arch=s390x)_ZN7WebCore17getDOMConstructorINS_23JSSVGElementConstructorEEEPN3JSC8JSObjectEPNS2_9ExecStateEPKNS_17JSDOMGlobalObjectE@Base 2.2.0
 (optional=templinst|arch=s390x)_ZN7WebCore17getDOMConstructorINS_23JSSVGPathSegConstructorEEEPN3JSC8JSObjectEPNS2_9ExecStateEPKNS_17JSDOMGlobalObjectE@Base 2.2.0
 (optional=templinst|arch=s390x)_ZN7WebCore17getDOMConstructorINS_23JSStyleMediaConstructorEEEPN3JSC8JSObjectEPNS2_9ExecStateEPKNS_17JSDOMGlobalObjectE@Base 2.2.0
 (optional=templinst|arch=s390x)_ZN7WebCore17getDOMConstructorINS_23JSStyleSheetConstructorEEEPN3JSC8JSObjectEPNS2_9ExecStateEPKNS_17JSDOMGlobalObjectE@Base 2.2.0
 (optional=templinst|arch=s390x)_ZN7WebCore17getDOMConstructorINS_23JSTimeRangesConstructorEEEPN3JSC8JSObjectEPNS2_9ExecStateEPKNS_17JSDOMGlobalObjectE@Base 2.2.0
 (optional=templinst|arch=s390x)_ZN7WebCore17getDOMConstructorINS_23JSTouchEventConstructorEEEPN3JSC8JSObjectEPNS2_9ExecStateEPKNS_17JSDOMGlobalObjectE@Base 2.2.0
 (optional=templinst|arch=s390x)_ZN7WebCore17getDOMConstructorINS_23JSTreeWalkerConstructorEEEPN3JSC8JSObjectEPNS2_9ExecStateEPKNS_17JSDOMGlobalObjectE@Base 2.2.0
 (optional=templinst|arch=s390x)_ZN7WebCore17getDOMConstructorINS_23JSWheelEventConstructorEEEPN3JSC8JSObjectEPNS2_9ExecStateEPKNS_17JSDOMGlobalObjectE@Base 2.2.0
 (optional=templinst|arch=s390x)_ZN7WebCore17getDOMConstructorINS_24JSCSSPageRuleConstructorEEEPN3JSC8JSObjectEPNS2_9ExecStateEPKNS_17JSDOMGlobalObjectE@Base 2.2.0
 (optional=templinst|arch=s390x)_ZN7WebCore17getDOMConstructorINS_24JSCSSRuleListConstructorEEEPN3JSC8JSObjectEPNS2_9ExecStateEPKNS_17JSDOMGlobalObjectE@Base 2.2.0
 (optional=templinst|arch=s390x)_ZN7WebCore17getDOMConstructorINS_24JSCustomEventConstructorEEEPN3JSC8JSObjectEPNS2_9ExecStateEPKNS_17JSDOMGlobalObjectE@Base 2.2.0
 (optional=templinst|arch=s390x)_ZN7WebCore17getDOMConstructorINS_24JSDOMFormDataConstructorEEEPN3JSC8JSObjectEPNS2_9ExecStateEPKNS_17JSDOMGlobalObjectE@Base 2.2.0
 (optional=templinst|arch=s390x)_ZN7WebCore17getDOMConstructorINS_24JSDOMMimeTypeConstructorEEEPN3JSC8JSObjectEPNS2_9ExecStateEPKNS_17JSDOMGlobalObjectE@Base 2.2.0
 (optional=templinst|arch=s390x)_ZN7WebCore17getDOMConstructorINS_24JSHTMLElementConstructorEEEPN3JSC8JSObjectEPNS2_9ExecStateEPKNS_17JSDOMGlobalObjectE@Base 2.2.0
 (optional=templinst|arch=s390x)_ZN7WebCore17getDOMConstructorINS_24JSMessagePortConstructorEEEPN3JSC8JSObjectEPNS2_9ExecStateEPKNS_17JSDOMGlobalObjectE@Base 2.2.0
 (optional=templinst|arch=s390x)_ZN7WebCore17getDOMConstructorINS_24JSSVGAElementConstructorEEEPN3JSC8JSObjectEPNS2_9ExecStateEPKNS_17JSDOMGlobalObjectE@Base 2.2.0
 (optional=templinst|arch=s390x)_ZN7WebCore17getDOMConstructorINS_24JSSVGDocumentConstructorEEEPN3JSC8JSObjectEPNS2_9ExecStateEPKNS_17JSDOMGlobalObjectE@Base 2.2.0
 (optional=templinst|arch=s390x)_ZN7WebCore17getDOMConstructorINS_24JSSVGGElementConstructorEEEPN3JSC8JSObjectEPNS2_9ExecStateEPKNS_17JSDOMGlobalObjectE@Base 2.2.0
 (optional=templinst|arch=s390x)_ZN7WebCore17getDOMConstructorINS_24JSTextMetricsConstructorEEEPN3JSC8JSObjectEPNS2_9ExecStateEPKNS_17JSDOMGlobalObjectE@Base 2.2.0
 (optional=templinst|arch=s390x)_ZN7WebCore17getDOMConstructorINS_24JSXPathResultConstructorEEEPN3JSC8JSObjectEPNS2_9ExecStateEPKNS_17JSDOMGlobalObjectE@Base 2.2.0
 (optional=templinst|arch=s390x)_ZN7WebCore17getDOMConstructorINS_25JSCDATASectionConstructorEEEPN3JSC8JSObjectEPNS2_9ExecStateEPKNS_17JSDOMGlobalObjectE@Base 2.2.0
 (optional=templinst|arch=s390x)_ZN7WebCore17getDOMConstructorINS_25JSCSSMediaRuleConstructorEEEPN3JSC8JSObjectEPNS2_9ExecStateEPKNS_17JSDOMGlobalObjectE@Base 2.2.0
 (optional=templinst|arch=s390x)_ZN7WebCore17getDOMConstructorINS_25JSCSSStyleRuleConstructorEEEPN3JSC8JSObjectEPNS2_9ExecStateEPKNS_17JSDOMGlobalObjectE@Base 2.2.0
 (optional=templinst|arch=s390x)_ZN7WebCore17getDOMConstructorINS_25JSCSSValueListConstructorEEEPN3JSC8JSObjectEPNS2_9ExecStateEPKNS_17JSDOMGlobalObjectE@Base 2.2.0
 (optional=templinst|arch=s390x)_ZN7WebCore17getDOMConstructorINS_25JSDOMStringMapConstructorEEEPN3JSC8JSObjectEPNS2_9ExecStateEPKNS_17JSDOMGlobalObjectE@Base 2.2.0
 (optional=templinst|arch=s390x)_ZN7WebCore17getDOMConstructorINS_25JSDOMTokenListConstructorEEEPN3JSC8JSObjectEPNS2_9ExecStateEPKNS_17JSDOMGlobalObjectE@Base 2.2.0
 (optional=templinst|arch=s390x)_ZN7WebCore17getDOMConstructorINS_25JSDocumentTypeConstructorEEEPN3JSC8JSObjectEPNS2_9ExecStateEPKNS_17JSDOMGlobalObjectE@Base 2.2.0
 (optional=templinst|arch=s390x)_ZN7WebCore17getDOMConstructorINS_25JSHTMLDocumentConstructorEEEPN3JSC8JSObjectEPNS2_9ExecStateEPKNS_17JSDOMGlobalObjectE@Base 2.2.0
 (optional=templinst|arch=s390x)_ZN7WebCore17getDOMConstructorINS_25JSMessageEventConstructorEEEPN3JSC8JSObjectEPNS2_9ExecStateEPKNS_17JSDOMGlobalObjectE@Base 2.2.0
 (optional=templinst|arch=s390x)_ZN7WebCore17getDOMConstructorINS_25JSNamedNodeMapConstructorEEEPN3JSC8JSObjectEPNS2_9ExecStateEPKNS_17JSDOMGlobalObjectE@Base 2.2.0
 (optional=templinst|arch=s390x)_ZN7WebCore17getDOMConstructorINS_25JSNodeIteratorConstructorEEEPN3JSC8JSObjectEPNS2_9ExecStateEPKNS_17JSDOMGlobalObjectE@Base 2.2.0
 (optional=templinst|arch=s390x)_ZN7WebCore17getDOMConstructorINS_25JSSQLExceptionConstructorEEEPN3JSC8JSObjectEPNS2_9ExecStateEPKNS_17JSDOMGlobalObjectE@Base 2.2.0
 (optional=templinst|arch=s390x)_ZN7WebCore17getDOMConstructorINS_25JSSVGExceptionConstructorEEEPN3JSC8JSObjectEPNS2_9ExecStateEPKNS_17JSDOMGlobalObjectE@Base 2.2.0
 (optional=templinst|arch=s390x)_ZN7WebCore17getDOMConstructorINS_25JSSVGPointListConstructorEEEPN3JSC8JSObjectEPNS2_9ExecStateEPKNS_17JSDOMGlobalObjectE@Base 2.2.0
 (optional=templinst|arch=s390x)_ZN7WebCore17getDOMConstructorINS_25JSSVGTransformConstructorEEEPN3JSC8JSObjectEPNS2_9ExecStateEPKNS_17JSDOMGlobalObjectE@Base 2.2.0
 (optional=templinst|arch=s390x)_ZN7WebCore17getDOMConstructorINS_25JSSVGUnitTypesConstructorEEEPN3JSC8JSObjectEPNS2_9ExecStateEPKNS_17JSDOMGlobalObjectE@Base 2.2.0
 (optional=templinst|arch=s390x)_ZN7WebCore17getDOMConstructorINS_25JSSVGZoomEventConstructorEEEPN3JSC8JSObjectEPNS2_9ExecStateEPKNS_17JSDOMGlobalObjectE@Base 2.2.0
 (optional=templinst|arch=s390x)_ZN7WebCore17getDOMConstructorINS_25JSStorageEventConstructorEEEPN3JSC8JSObjectEPNS2_9ExecStateEPKNS_17JSDOMGlobalObjectE@Base 2.2.0
 (optional=templinst|arch=s390x)_ZN7WebCore17getDOMConstructorINS_26JSCSSImportRuleConstructorEEEPN3JSC8JSObjectEPNS2_9ExecStateEPKNS_17JSDOMGlobalObjectE@Base 2.2.0
 (optional=templinst|arch=s390x)_ZN7WebCore17getDOMConstructorINS_26JSCSSStyleSheetConstructorEEEPN3JSC8JSObjectEPNS2_9ExecStateEPKNS_17JSDOMGlobalObjectE@Base 2.2.0
 (optional=templinst|arch=s390x)_ZN7WebCore17getDOMConstructorINS_26JSCanvasPatternConstructorEEEPN3JSC8JSObjectEPNS2_9ExecStateEPKNS_17JSDOMGlobalObjectE@Base 2.2.0
 (optional=templinst|arch=s390x)_ZN7WebCore17getDOMConstructorINS_26JSCharacterDataConstructorEEEPN3JSC8JSObjectEPNS2_9ExecStateEPKNS_17JSDOMGlobalObjectE@Base 2.2.0
 (optional=templinst|arch=s390x)_ZN7WebCore17getDOMConstructorINS_26JSDOMStringListConstructorEEEPN3JSC8JSObjectEPNS2_9ExecStateEPKNS_17JSDOMGlobalObjectE@Base 2.2.0
 (optional=templinst|arch=s390x)_ZN7WebCore17getDOMConstructorINS_26JSFileExceptionConstructorEEEPN3JSC8JSObjectEPNS2_9ExecStateEPKNS_17JSDOMGlobalObjectE@Base 2.2.0
 (optional=templinst|arch=s390x)_ZN7WebCore17getDOMConstructorINS_26JSHTMLBRElementConstructorEEEPN3JSC8JSObjectEPNS2_9ExecStateEPKNS_17JSDOMGlobalObjectE@Base 2.2.0
 (optional=templinst|arch=s390x)_ZN7WebCore17getDOMConstructorINS_26JSHTMLHRElementConstructorEEEPN3JSC8JSObjectEPNS2_9ExecStateEPKNS_17JSDOMGlobalObjectE@Base 2.2.0
 (optional=templinst|arch=s390x)_ZN7WebCore17getDOMConstructorINS_26JSHTMLLIElementConstructorEEEPN3JSC8JSObjectEPNS2_9ExecStateEPKNS_17JSDOMGlobalObjectE@Base 2.2.0
 (optional=templinst|arch=s390x)_ZN7WebCore17getDOMConstructorINS_26JSKeyboardEventConstructorEEEPN3JSC8JSObjectEPNS2_9ExecStateEPKNS_17JSDOMGlobalObjectE@Base 2.2.0
 (optional=templinst|arch=s390x)_ZN7WebCore17getDOMConstructorINS_26JSMutationEventConstructorEEEPN3JSC8JSObjectEPNS2_9ExecStateEPKNS_17JSDOMGlobalObjectE@Base 2.2.0
 (optional=templinst|arch=s390x)_ZN7WebCore17getDOMConstructorINS_26JSOverflowEventConstructorEEEPN3JSC8JSObjectEPNS2_9ExecStateEPKNS_17JSDOMGlobalObjectE@Base 2.2.0
 (optional=templinst|arch=s390x)_ZN7WebCore17getDOMConstructorINS_26JSPopStateEventConstructorEEEPN3JSC8JSObjectEPNS2_9ExecStateEPKNS_17JSDOMGlobalObjectE@Base 2.2.0
 (optional=templinst|arch=s390x)_ZN7WebCore17getDOMConstructorINS_26JSProgressEventConstructorEEEPN3JSC8JSObjectEPNS2_9ExecStateEPKNS_17JSDOMGlobalObjectE@Base 2.2.0
 (optional=templinst|arch=s390x)_ZN7WebCore17getDOMConstructorINS_26JSSVGLengthListConstructorEEEPN3JSC8JSObjectEPNS2_9ExecStateEPKNS_17JSDOMGlobalObjectE@Base 2.2.0
 (optional=templinst|arch=s390x)_ZN7WebCore17getDOMConstructorINS_26JSSVGNumberListConstructorEEEPN3JSC8JSObjectEPNS2_9ExecStateEPKNS_17JSDOMGlobalObjectE@Base 2.2.0
 (optional=templinst|arch=s390x)_ZN7WebCore17getDOMConstructorINS_26JSSVGSVGElementConstructorEEEPN3JSC8JSObjectEPNS2_9ExecStateEPKNS_17JSDOMGlobalObjectE@Base 2.2.0
 (optional=templinst|arch=s390x)_ZN7WebCore17getDOMConstructorINS_26JSSVGSetElementConstructorEEEPN3JSC8JSObjectEPNS2_9ExecStateEPKNS_17JSDOMGlobalObjectE@Base 2.2.0
 (optional=templinst|arch=s390x)_ZN7WebCore17getDOMConstructorINS_26JSSVGStringListConstructorEEEPN3JSC8JSObjectEPNS2_9ExecStateEPKNS_17JSDOMGlobalObjectE@Base 2.2.0
 (optional=templinst|arch=s390x)_ZN7WebCore17getDOMConstructorINS_26JSSVGUseElementConstructorEEEPN3JSC8JSObjectEPNS2_9ExecStateEPKNS_17JSDOMGlobalObjectE@Base 2.2.0
 (optional=templinst|arch=s390x)_ZN7WebCore17getDOMConstructorINS_26JSXMLSerializerConstructorEEEPN3JSC8JSObjectEPNS2_9ExecStateEPKNS_17JSDOMGlobalObjectE@Base 2.2.0
 (optional=templinst|arch=s390x)_ZN7WebCore17getDOMConstructorINS_27JSAbstractWorkerConstructorEEEPN3JSC8JSObjectEPNS2_9ExecStateEPKNS_17JSDOMGlobalObjectE@Base 2.2.0
 (optional=templinst|arch=s390x)_ZN7WebCore17getDOMConstructorINS_27JSCSSCharsetRuleConstructorEEEPN3JSC8JSObjectEPNS2_9ExecStateEPKNS_17JSDOMGlobalObjectE@Base 2.2.0
 (optional=templinst|arch=s390x)_ZN7WebCore17getDOMConstructorINS_27JSCanvasGradientConstructorEEEPN3JSC8JSObjectEPNS2_9ExecStateEPKNS_17JSDOMGlobalObjectE@Base 2.2.0
 (optional=templinst|arch=s390x)_ZN7WebCore17getDOMConstructorINS_27JSClientRectListConstructorEEEPN3JSC8JSObjectEPNS2_9ExecStateEPKNS_17JSDOMGlobalObjectE@Base 2.2.0
 (optional=templinst|arch=s390x)_ZN7WebCore17getDOMConstructorINS_27JSDOMPluginArrayConstructorEEEPN3JSC8JSObjectEPNS2_9ExecStateEPKNS_17JSDOMGlobalObjectE@Base 2.2.0
 (optional=templinst|arch=s390x)_ZN7WebCore17getDOMConstructorINS_27JSEventExceptionConstructorEEEPN3JSC8JSObjectEPNS2_9ExecStateEPKNS_17JSDOMGlobalObjectE@Base 2.2.0
 (optional=templinst|arch=s390x)_ZN7WebCore17getDOMConstructorINS_27JSFileReaderSyncConstructorEEEPN3JSC8JSObjectEPNS2_9ExecStateEPKNS_17JSDOMGlobalObjectE@Base 2.2.0
 (optional=templinst|arch=s390x)_ZN7WebCore17getDOMConstructorINS_27JSHTMLCollectionConstructorEEEPN3JSC8JSObjectEPNS2_9ExecStateEPKNS_17JSDOMGlobalObjectE@Base 2.2.0
 (optional=templinst|arch=s390x)_ZN7WebCore17getDOMConstructorINS_27JSHTMLDivElementConstructorEEEPN3JSC8JSObjectEPNS2_9ExecStateEPKNS_17JSDOMGlobalObjectE@Base 2.2.0
 (optional=templinst|arch=s390x)_ZN7WebCore17getDOMConstructorINS_27JSHTMLMapElementConstructorEEEPN3JSC8JSObjectEPNS2_9ExecStateEPKNS_17JSDOMGlobalObjectE@Base 2.2.0
 (optional=templinst|arch=s390x)_ZN7WebCore17getDOMConstructorINS_27JSHTMLModElementConstructorEEEPN3JSC8JSObjectEPNS2_9ExecStateEPKNS_17JSDOMGlobalObjectE@Base 2.2.0
 (optional=templinst|arch=s390x)_ZN7WebCore17getDOMConstructorINS_27JSHTMLPreElementConstructorEEEPN3JSC8JSObjectEPNS2_9ExecStateEPKNS_17JSDOMGlobalObjectE@Base 2.2.0
 (optional=templinst|arch=s390x)_ZN7WebCore17getDOMConstructorINS_27JSMediaQueryListConstructorEEEPN3JSC8JSObjectEPNS2_9ExecStateEPKNS_17JSDOMGlobalObjectE@Base 2.2.0
 (optional=templinst|arch=s390x)_ZN7WebCore17getDOMConstructorINS_27JSRangeExceptionConstructorEEEPN3JSC8JSObjectEPNS2_9ExecStateEPKNS_17JSDOMGlobalObjectE@Base 2.2.0
 (optional=templinst|arch=s390x)_ZN7WebCore17getDOMConstructorINS_27JSSVGDefsElementConstructorEEEPN3JSC8JSObjectEPNS2_9ExecStateEPKNS_17JSDOMGlobalObjectE@Base 2.2.0
 (optional=templinst|arch=s390x)_ZN7WebCore17getDOMConstructorINS_27JSSVGDescElementConstructorEEEPN3JSC8JSObjectEPNS2_9ExecStateEPKNS_17JSDOMGlobalObjectE@Base 2.2.0
 (optional=templinst|arch=s390x)_ZN7WebCore17getDOMConstructorINS_27JSSVGFontElementConstructorEEEPN3JSC8JSObjectEPNS2_9ExecStateEPKNS_17JSDOMGlobalObjectE@Base 2.2.0
 (optional=templinst|arch=s390x)_ZN7WebCore17getDOMConstructorINS_27JSSVGLineElementConstructorEEEPN3JSC8JSObjectEPNS2_9ExecStateEPKNS_17JSDOMGlobalObjectE@Base 2.2.0
 (optional=templinst|arch=s390x)_ZN7WebCore17getDOMConstructorINS_27JSSVGMaskElementConstructorEEEPN3JSC8JSObjectEPNS2_9ExecStateEPKNS_17JSDOMGlobalObjectE@Base 2.2.0
 (optional=templinst|arch=s390x)_ZN7WebCore17getDOMConstructorINS_27JSSVGPathElementConstructorEEEPN3JSC8JSObjectEPNS2_9ExecStateEPKNS_17JSDOMGlobalObjectE@Base 2.2.0
 (optional=templinst|arch=s390x)_ZN7WebCore17getDOMConstructorINS_27JSSVGPathSegListConstructorEEEPN3JSC8JSObjectEPNS2_9ExecStateEPKNS_17JSDOMGlobalObjectE@Base 2.2.0
 (optional=templinst|arch=s390x)_ZN7WebCore17getDOMConstructorINS_27JSSVGRectElementConstructorEEEPN3JSC8JSObjectEPNS2_9ExecStateEPKNS_17JSDOMGlobalObjectE@Base 2.2.0
 (optional=templinst|arch=s390x)_ZN7WebCore17getDOMConstructorINS_27JSSVGStopElementConstructorEEEPN3JSC8JSObjectEPNS2_9ExecStateEPKNS_17JSDOMGlobalObjectE@Base 2.2.0
 (optional=templinst|arch=s390x)_ZN7WebCore17getDOMConstructorINS_27JSSVGTRefElementConstructorEEEPN3JSC8JSObjectEPNS2_9ExecStateEPKNS_17JSDOMGlobalObjectE@Base 2.2.0
 (optional=templinst|arch=s390x)_ZN7WebCore17getDOMConstructorINS_27JSSVGTextElementConstructorEEEPN3JSC8JSObjectEPNS2_9ExecStateEPKNS_17JSDOMGlobalObjectE@Base 2.2.0
 (optional=templinst|arch=s390x)_ZN7WebCore17getDOMConstructorINS_27JSSVGViewElementConstructorEEEPN3JSC8JSObjectEPNS2_9ExecStateEPKNS_17JSDOMGlobalObjectE@Base 2.2.0
 (optional=templinst|arch=s390x)_ZN7WebCore17getDOMConstructorINS_27JSStyleSheetListConstructorEEEPN3JSC8JSObjectEPNS2_9ExecStateEPKNS_17JSDOMGlobalObjectE@Base 2.2.0
 (optional=templinst|arch=s390x)_ZN7WebCore17getDOMConstructorINS_27JSWorkerLocationConstructorEEEPN3JSC8JSObjectEPNS2_9ExecStateEPKNS_17JSDOMGlobalObjectE@Base 2.2.0
 (optional=templinst|arch=s390x)_ZN7WebCore17getDOMConstructorINS_27JSXPathEvaluatorConstructorEEEPN3JSC8JSObjectEPNS2_9ExecStateEPKNS_17JSDOMGlobalObjectE@Base 2.2.0
 (optional=templinst|arch=s390x)_ZN7WebCore17getDOMConstructorINS_27JSXPathExceptionConstructorEEEPN3JSC8JSObjectEPNS2_9ExecStateEPKNS_17JSDOMGlobalObjectE@Base 2.2.0
 (optional=templinst|arch=s390x)_ZN7WebCore17getDOMConstructorINS_28JSBeforeLoadEventConstructorEEEPN3JSC8JSObjectEPNS2_9ExecStateEPKNS_17JSDOMGlobalObjectE@Base 2.2.0
 (optional=templinst|arch=s390x)_ZN7WebCore17getDOMConstructorINS_28JSCSSFontFaceRuleConstructorEEEPN3JSC8JSObjectEPNS2_9ExecStateEPKNS_17JSDOMGlobalObjectE@Base 2.2.0
 (optional=templinst|arch=s390x)_ZN7WebCore17getDOMConstructorINS_28JSEntityReferenceConstructorEEEPN3JSC8JSObjectEPNS2_9ExecStateEPKNS_17JSDOMGlobalObjectE@Base 2.2.0
 (optional=templinst|arch=s390x)_ZN7WebCore17getDOMConstructorINS_28JSHTMLAreaElementConstructorEEEPN3JSC8JSObjectEPNS2_9ExecStateEPKNS_17JSDOMGlobalObjectE@Base 2.2.0
 (optional=templinst|arch=s390x)_ZN7WebCore17getDOMConstructorINS_28JSHTMLBaseElementConstructorEEEPN3JSC8JSObjectEPNS2_9ExecStateEPKNS_17JSDOMGlobalObjectE@Base 2.2.0
 (optional=templinst|arch=s390x)_ZN7WebCore17getDOMConstructorINS_28JSHTMLBodyElementConstructorEEEPN3JSC8JSObjectEPNS2_9ExecStateEPKNS_17JSDOMGlobalObjectE@Base 2.2.0
 (optional=templinst|arch=s390x)_ZN7WebCore17getDOMConstructorINS_28JSHTMLFontElementConstructorEEEPN3JSC8JSObjectEPNS2_9ExecStateEPKNS_17JSDOMGlobalObjectE@Base 2.2.0
 (optional=templinst|arch=s390x)_ZN7WebCore17getDOMConstructorINS_28JSHTMLFormElementConstructorEEEPN3JSC8JSObjectEPNS2_9ExecStateEPKNS_17JSDOMGlobalObjectE@Base 2.2.0
 (optional=templinst|arch=s390x)_ZN7WebCore17getDOMConstructorINS_28JSHTMLHeadElementConstructorEEEPN3JSC8JSObjectEPNS2_9ExecStateEPKNS_17JSDOMGlobalObjectE@Base 2.2.0
 (optional=templinst|arch=s390x)_ZN7WebCore17getDOMConstructorINS_28JSHTMLHtmlElementConstructorEEEPN3JSC8JSObjectEPNS2_9ExecStateEPKNS_17JSDOMGlobalObjectE@Base 2.2.0
 (optional=templinst|arch=s390x)_ZN7WebCore17getDOMConstructorINS_28JSHTMLLinkElementConstructorEEEPN3JSC8JSObjectEPNS2_9ExecStateEPKNS_17JSDOMGlobalObjectE@Base 2.2.0
 (optional=templinst|arch=s390x)_ZN7WebCore17getDOMConstructorINS_28JSHTMLMenuElementConstructorEEEPN3JSC8JSObjectEPNS2_9ExecStateEPKNS_17JSDOMGlobalObjectE@Base 2.2.0
 (optional=templinst|arch=s390x)_ZN7WebCore17getDOMConstructorINS_28JSHTMLMetaElementConstructorEEEPN3JSC8JSObjectEPNS2_9ExecStateEPKNS_17JSDOMGlobalObjectE@Base 2.2.0
 (optional=templinst|arch=s390x)_ZN7WebCore17getDOMConstructorINS_28JSHashChangeEventConstructorEEEPN3JSC8JSObjectEPNS2_9ExecStateEPKNS_17JSDOMGlobalObjectE@Base 2.2.0
 (optional=templinst|arch=s390x)_ZN7WebCore17getDOMConstructorINS_28JSSVGAnimatedRectConstructorEEEPN3JSC8JSObjectEPNS2_9ExecStateEPKNS_17JSDOMGlobalObjectE@Base 2.2.0
 (optional=templinst|arch=s390x)_ZN7WebCore17getDOMConstructorINS_28JSSVGGlyphElementConstructorEEEPN3JSC8JSObjectEPNS2_9ExecStateEPKNS_17JSDOMGlobalObjectE@Base 2.2.0
 (optional=templinst|arch=s390x)_ZN7WebCore17getDOMConstructorINS_28JSSVGHKernElementConstructorEEEPN3JSC8JSObjectEPNS2_9ExecStateEPKNS_17JSDOMGlobalObjectE@Base 2.2.0
 (optional=templinst|arch=s390x)_ZN7WebCore17getDOMConstructorINS_28JSSVGImageElementConstructorEEEPN3JSC8JSObjectEPNS2_9ExecStateEPKNS_17JSDOMGlobalObjectE@Base 2.2.0
 (optional=templinst|arch=s390x)_ZN7WebCore17getDOMConstructorINS_28JSSVGStyleElementConstructorEEEPN3JSC8JSObjectEPNS2_9ExecStateEPKNS_17JSDOMGlobalObjectE@Base 2.2.0
 (optional=templinst|arch=s390x)_ZN7WebCore17getDOMConstructorINS_28JSSVGTSpanElementConstructorEEEPN3JSC8JSObjectEPNS2_9ExecStateEPKNS_17JSDOMGlobalObjectE@Base 2.2.0
 (optional=templinst|arch=s390x)_ZN7WebCore17getDOMConstructorINS_28JSSVGTitleElementConstructorEEEPN3JSC8JSObjectEPNS2_9ExecStateEPKNS_17JSDOMGlobalObjectE@Base 2.2.0
 (optional=templinst|arch=s390x)_ZN7WebCore17getDOMConstructorINS_28JSSVGVKernElementConstructorEEEPN3JSC8JSObjectEPNS2_9ExecStateEPKNS_17JSDOMGlobalObjectE@Base 2.2.0
 (optional=templinst|arch=s390x)_ZN7WebCore17getDOMConstructorINS_28JSWebKitAnimationConstructorEEEPN3JSC8JSObjectEPNS2_9ExecStateEPKNS_17JSDOMGlobalObjectE@Base 2.2.0
 (optional=templinst|arch=s390x)_ZN7WebCore17getDOMConstructorINS_28JSXPathExpressionConstructorEEEPN3JSC8JSObjectEPNS2_9ExecStateEPKNS_17JSDOMGlobalObjectE@Base 2.2.0
 (optional=templinst|arch=s390x)_ZN7WebCore17getDOMConstructorINS_29JSCompositionEventConstructorEEEPN3JSC8JSObjectEPNS2_9ExecStateEPKNS_17JSDOMGlobalObjectE@Base 2.2.0
 (optional=templinst|arch=s390x)_ZN7WebCore17getDOMConstructorINS_29JSDOMCoreExceptionConstructorEEEPN3JSC8JSObjectEPNS2_9ExecStateEPKNS_17JSDOMGlobalObjectE@Base 2.2.0
 (optional=templinst|arch=s390x)_ZN7WebCore17getDOMConstructorINS_29JSDOMMimeTypeArrayConstructorEEEPN3JSC8JSObjectEPNS2_9ExecStateEPKNS_17JSDOMGlobalObjectE@Base 2.2.0
 (optional=templinst|arch=s390x)_ZN7WebCore17getDOMConstructorINS_29JSDocumentFragmentConstructorEEEPN3JSC8JSObjectEPNS2_9ExecStateEPKNS_17JSDOMGlobalObjectE@Base 2.2.0
 (optional=templinst|arch=s390x)_ZN7WebCore17getDOMConstructorINS_29JSHTMLAudioElementConstructorEEEPN3JSC8JSObjectEPNS2_9ExecStateEPKNS_17JSDOMGlobalObjectE@Base 2.2.0
 (optional=templinst|arch=s390x)_ZN7WebCore17getDOMConstructorINS_29JSHTMLDListElementConstructorEEEPN3JSC8JSObjectEPNS2_9ExecStateEPKNS_17JSDOMGlobalObjectE@Base 2.2.0
 (optional=templinst|arch=s390x)_ZN7WebCore17getDOMConstructorINS_29JSHTMLEmbedElementConstructorEEEPN3JSC8JSObjectEPNS2_9ExecStateEPKNS_17JSDOMGlobalObjectE@Base 2.2.0
 (optional=templinst|arch=s390x)_ZN7WebCore17getDOMConstructorINS_29JSHTMLFrameElementConstructorEEEPN3JSC8JSObjectEPNS2_9ExecStateEPKNS_17JSDOMGlobalObjectE@Base 2.2.0
 (optional=templinst|arch=s390x)_ZN7WebCore17getDOMConstructorINS_29JSHTMLImageElementConstructorEEEPN3JSC8JSObjectEPNS2_9ExecStateEPKNS_17JSDOMGlobalObjectE@Base 2.2.0
 (optional=templinst|arch=s390x)_ZN7WebCore17getDOMConstructorINS_29JSHTMLInputElementConstructorEEEPN3JSC8JSObjectEPNS2_9ExecStateEPKNS_17JSDOMGlobalObjectE@Base 2.2.0
 (optional=templinst|arch=s390x)_ZN7WebCore17getDOMConstructorINS_29JSHTMLLabelElementConstructorEEEPN3JSC8JSObjectEPNS2_9ExecStateEPKNS_17JSDOMGlobalObjectE@Base 2.2.0
 (optional=templinst|arch=s390x)_ZN7WebCore17getDOMConstructorINS_29JSHTMLMediaElementConstructorEEEPN3JSC8JSObjectEPNS2_9ExecStateEPKNS_17JSDOMGlobalObjectE@Base 2.2.0
 (optional=templinst|arch=s390x)_ZN7WebCore17getDOMConstructorINS_29JSHTMLMeterElementConstructorEEEPN3JSC8JSObjectEPNS2_9ExecStateEPKNS_17JSDOMGlobalObjectE@Base 2.2.0
 (optional=templinst|arch=s390x)_ZN7WebCore17getDOMConstructorINS_29JSHTMLOListElementConstructorEEEPN3JSC8JSObjectEPNS2_9ExecStateEPKNS_17JSDOMGlobalObjectE@Base 2.2.0
 (optional=templinst|arch=s390x)_ZN7WebCore17getDOMConstructorINS_29JSHTMLParamElementConstructorEEEPN3JSC8JSObjectEPNS2_9ExecStateEPKNS_17JSDOMGlobalObjectE@Base 2.2.0
 (optional=templinst|arch=s390x)_ZN7WebCore17getDOMConstructorINS_29JSHTMLQuoteElementConstructorEEEPN3JSC8JSObjectEPNS2_9ExecStateEPKNS_17JSDOMGlobalObjectE@Base 2.2.0
 (optional=templinst|arch=s390x)_ZN7WebCore17getDOMConstructorINS_29JSHTMLStyleElementConstructorEEEPN3JSC8JSObjectEPNS2_9ExecStateEPKNS_17JSDOMGlobalObjectE@Base 2.2.0
 (optional=templinst|arch=s390x)_ZN7WebCore17getDOMConstructorINS_29JSHTMLTableElementConstructorEEEPN3JSC8JSObjectEPNS2_9ExecStateEPKNS_17JSDOMGlobalObjectE@Base 2.2.0
 (optional=templinst|arch=s390x)_ZN7WebCore17getDOMConstructorINS_29JSHTMLTitleElementConstructorEEEPN3JSC8JSObjectEPNS2_9ExecStateEPKNS_17JSDOMGlobalObjectE@Base 2.2.0
 (optional=templinst|arch=s390x)_ZN7WebCore17getDOMConstructorINS_29JSHTMLUListElementConstructorEEEPN3JSC8JSObjectEPNS2_9ExecStateEPKNS_17JSDOMGlobalObjectE@Base 2.2.0
 (optional=templinst|arch=s390x)_ZN7WebCore17getDOMConstructorINS_29JSHTMLVideoElementConstructorEEEPN3JSC8JSObjectEPNS2_9ExecStateEPKNS_17JSDOMGlobalObjectE@Base 2.2.0
 (optional=templinst|arch=s390x)_ZN7WebCore17getDOMConstructorINS_29JSSVGAnimatedAngleConstructorEEEPN3JSC8JSObjectEPNS2_9ExecStateEPKNS_17JSDOMGlobalObjectE@Base 2.2.0
 (optional=templinst|arch=s390x)_ZN7WebCore17getDOMConstructorINS_29JSSVGCircleElementConstructorEEEPN3JSC8JSObjectEPNS2_9ExecStateEPKNS_17JSDOMGlobalObjectE@Base 2.2.0
 (optional=templinst|arch=s390x)_ZN7WebCore17getDOMConstructorINS_29JSSVGCursorElementConstructorEEEPN3JSC8JSObjectEPNS2_9ExecStateEPKNS_17JSDOMGlobalObjectE@Base 2.2.0
 (optional=templinst|arch=s390x)_ZN7WebCore17getDOMConstructorINS_29JSSVGFETileElementConstructorEEEPN3JSC8JSObjectEPNS2_9ExecStateEPKNS_17JSDOMGlobalObjectE@Base 2.2.0
 (optional=templinst|arch=s390x)_ZN7WebCore17getDOMConstructorINS_29JSSVGFilterElementConstructorEEEPN3JSC8JSObjectEPNS2_9ExecStateEPKNS_17JSDOMGlobalObjectE@Base 2.2.0
 (optional=templinst|arch=s390x)_ZN7WebCore17getDOMConstructorINS_29JSSVGMarkerElementConstructorEEEPN3JSC8JSObjectEPNS2_9ExecStateEPKNS_17JSDOMGlobalObjectE@Base 2.2.0
 (optional=templinst|arch=s390x)_ZN7WebCore17getDOMConstructorINS_29JSSVGPathSegArcAbsConstructorEEEPN3JSC8JSObjectEPNS2_9ExecStateEPKNS_17JSDOMGlobalObjectE@Base 2.2.0
 (optional=templinst|arch=s390x)_ZN7WebCore17getDOMConstructorINS_29JSSVGPathSegArcRelConstructorEEEPN3JSC8JSObjectEPNS2_9ExecStateEPKNS_17JSDOMGlobalObjectE@Base 2.2.0
 (optional=templinst|arch=s390x)_ZN7WebCore17getDOMConstructorINS_29JSSVGScriptElementConstructorEEEPN3JSC8JSObjectEPNS2_9ExecStateEPKNS_17JSDOMGlobalObjectE@Base 2.2.0
 (optional=templinst|arch=s390x)_ZN7WebCore17getDOMConstructorINS_29JSSVGSwitchElementConstructorEEEPN3JSC8JSObjectEPNS2_9ExecStateEPKNS_17JSDOMGlobalObjectE@Base 2.2.0
 (optional=templinst|arch=s390x)_ZN7WebCore17getDOMConstructorINS_29JSSVGSymbolElementConstructorEEEPN3JSC8JSObjectEPNS2_9ExecStateEPKNS_17JSDOMGlobalObjectE@Base 2.2.0
 (optional=templinst|arch=s390x)_ZN7WebCore17getDOMConstructorINS_29JSSVGTransformListConstructorEEEPN3JSC8JSObjectEPNS2_9ExecStateEPKNS_17JSDOMGlobalObjectE@Base 2.2.0
 (optional=templinst|arch=s390x)_ZN7WebCore17getDOMConstructorINS_30JSCSSPrimitiveValueConstructorEEEPN3JSC8JSObjectEPNS2_9ExecStateEPKNS_17JSDOMGlobalObjectE@Base 2.2.0
 (optional=templinst|arch=s390x)_ZN7WebCore17getDOMConstructorINS_30JSDOMImplementationConstructorEEEPN3JSC8JSObjectEPNS2_9ExecStateEPKNS_17JSDOMGlobalObjectE@Base 2.2.0
 (optional=templinst|arch=s390x)_ZN7WebCore17getDOMConstructorINS_30JSHTMLAllCollectionConstructorEEEPN3JSC8JSObjectEPNS2_9ExecStateEPKNS_17JSDOMGlobalObjectE@Base 2.2.0
 (optional=templinst|arch=s390x)_ZN7WebCore17getDOMConstructorINS_30JSHTMLAnchorElementConstructorEEEPN3JSC8JSObjectEPNS2_9ExecStateEPKNS_17JSDOMGlobalObjectE@Base 2.2.0
 (optional=templinst|arch=s390x)_ZN7WebCore17getDOMConstructorINS_30JSHTMLAppletElementConstructorEEEPN3JSC8JSObjectEPNS2_9ExecStateEPKNS_17JSDOMGlobalObjectE@Base 2.2.0
 (optional=templinst|arch=s390x)_ZN7WebCore17getDOMConstructorINS_30JSHTMLButtonElementConstructorEEEPN3JSC8JSObjectEPNS2_9ExecStateEPKNS_17JSDOMGlobalObjectE@Base 2.2.0
 (optional=templinst|arch=s390x)_ZN7WebCore17getDOMConstructorINS_30JSHTMLCanvasElementConstructorEEEPN3JSC8JSObjectEPNS2_9ExecStateEPKNS_17JSDOMGlobalObjectE@Base 2.2.0
 (optional=templinst|arch=s390x)_ZN7WebCore17getDOMConstructorINS_30JSHTMLIFrameElementConstructorEEEPN3JSC8JSObjectEPNS2_9ExecStateEPKNS_17JSDOMGlobalObjectE@Base 2.2.0
 (optional=templinst|arch=s390x)_ZN7WebCore17getDOMConstructorINS_30JSHTMLKeygenElementConstructorEEEPN3JSC8JSObjectEPNS2_9ExecStateEPKNS_17JSDOMGlobalObjectE@Base 2.2.0
 (optional=templinst|arch=s390x)_ZN7WebCore17getDOMConstructorINS_30JSHTMLLegendElementConstructorEEEPN3JSC8JSObjectEPNS2_9ExecStateEPKNS_17JSDOMGlobalObjectE@Base 2.2.0
 (optional=templinst|arch=s390x)_ZN7WebCore17getDOMConstructorINS_30JSHTMLObjectElementConstructorEEEPN3JSC8JSObjectEPNS2_9ExecStateEPKNS_17JSDOMGlobalObjectE@Base 2.2.0
 (optional=templinst|arch=s390x)_ZN7WebCore17getDOMConstructorINS_30JSHTMLOptionElementConstructorEEEPN3JSC8JSObjectEPNS2_9ExecStateEPKNS_17JSDOMGlobalObjectE@Base 2.2.0
 (optional=templinst|arch=s390x)_ZN7WebCore17getDOMConstructorINS_30JSHTMLOutputElementConstructorEEEPN3JSC8JSObjectEPNS2_9ExecStateEPKNS_17JSDOMGlobalObjectE@Base 2.2.0
 (optional=templinst|arch=s390x)_ZN7WebCore17getDOMConstructorINS_30JSHTMLScriptElementConstructorEEEPN3JSC8JSObjectEPNS2_9ExecStateEPKNS_17JSDOMGlobalObjectE@Base 2.2.0
 (optional=templinst|arch=s390x)_ZN7WebCore17getDOMConstructorINS_30JSHTMLSelectElementConstructorEEEPN3JSC8JSObjectEPNS2_9ExecStateEPKNS_17JSDOMGlobalObjectE@Base 2.2.0
 (optional=templinst|arch=s390x)_ZN7WebCore17getDOMConstructorINS_30JSHTMLSourceElementConstructorEEEPN3JSC8JSObjectEPNS2_9ExecStateEPKNS_17JSDOMGlobalObjectE@Base 2.2.0
 (optional=templinst|arch=s390x)_ZN7WebCore17getDOMConstructorINS_30JSSVGAnimateElementConstructorEEEPN3JSC8JSObjectEPNS2_9ExecStateEPKNS_17JSDOMGlobalObjectE@Base 2.2.0
 (optional=templinst|arch=s390x)_ZN7WebCore17getDOMConstructorINS_30JSSVGAnimatedLengthConstructorEEEPN3JSC8JSObjectEPNS2_9ExecStateEPKNS_17JSDOMGlobalObjectE@Base 2.2.0
 (optional=templinst|arch=s390x)_ZN7WebCore17getDOMConstructorINS_30JSSVGAnimatedNumberConstructorEEEPN3JSC8JSObjectEPNS2_9ExecStateEPKNS_17JSDOMGlobalObjectE@Base 2.2.0
 (optional=templinst|arch=s390x)_ZN7WebCore17getDOMConstructorINS_30JSSVGAnimatedStringConstructorEEEPN3JSC8JSObjectEPNS2_9ExecStateEPKNS_17JSDOMGlobalObjectE@Base 2.2.0
 (optional=templinst|arch=s390x)_ZN7WebCore17getDOMConstructorINS_30JSSVGEllipseElementConstructorEEEPN3JSC8JSObjectEPNS2_9ExecStateEPKNS_17JSDOMGlobalObjectE@Base 2.2.0
 (optional=templinst|arch=s390x)_ZN7WebCore17getDOMConstructorINS_30JSSVGFEBlendElementConstructorEEEPN3JSC8JSObjectEPNS2_9ExecStateEPKNS_17JSDOMGlobalObjectE@Base 2.2.0
 (optional=templinst|arch=s390x)_ZN7WebCore17getDOMConstructorINS_30JSSVGFEFloodElementConstructorEEEPN3JSC8JSObjectEPNS2_9ExecStateEPKNS_17JSDOMGlobalObjectE@Base 2.2.0
 (optional=templinst|arch=s390x)_ZN7WebCore17getDOMConstructorINS_30JSSVGFEFuncAElementConstructorEEEPN3JSC8JSObjectEPNS2_9ExecStateEPKNS_17JSDOMGlobalObjectE@Base 2.2.0
 (optional=templinst|arch=s390x)_ZN7WebCore17getDOMConstructorINS_30JSSVGFEFuncBElementConstructorEEEPN3JSC8JSObjectEPNS2_9ExecStateEPKNS_17JSDOMGlobalObjectE@Base 2.2.0
 (optional=templinst|arch=s390x)_ZN7WebCore17getDOMConstructorINS_30JSSVGFEFuncGElementConstructorEEEPN3JSC8JSObjectEPNS2_9ExecStateEPKNS_17JSDOMGlobalObjectE@Base 2.2.0
 (optional=templinst|arch=s390x)_ZN7WebCore17getDOMConstructorINS_30JSSVGFEFuncRElementConstructorEEEPN3JSC8JSObjectEPNS2_9ExecStateEPKNS_17JSDOMGlobalObjectE@Base 2.2.0
 (optional=templinst|arch=s390x)_ZN7WebCore17getDOMConstructorINS_30JSSVGFEImageElementConstructorEEEPN3JSC8JSObjectEPNS2_9ExecStateEPKNS_17JSDOMGlobalObjectE@Base 2.2.0
 (optional=templinst|arch=s390x)_ZN7WebCore17getDOMConstructorINS_30JSSVGFEMergeElementConstructorEEEPN3JSC8JSObjectEPNS2_9ExecStateEPKNS_17JSDOMGlobalObjectE@Base 2.2.0
 (optional=templinst|arch=s390x)_ZN7WebCore17getDOMConstructorINS_30JSSVGPatternElementConstructorEEEPN3JSC8JSObjectEPNS2_9ExecStateEPKNS_17JSDOMGlobalObjectE@Base 2.2.0
 (optional=templinst|arch=s390x)_ZN7WebCore17getDOMConstructorINS_30JSSVGPolygonElementConstructorEEEPN3JSC8JSObjectEPNS2_9ExecStateEPKNS_17JSDOMGlobalObjectE@Base 2.2.0
 (optional=templinst|arch=s390x)_ZN7WebCore17getDOMConstructorINS_30JSWebKitBlobBuilderConstructorEEEPN3JSC8JSObjectEPNS2_9ExecStateEPKNS_17JSDOMGlobalObjectE@Base 2.2.0
 (optional=templinst|arch=s390x)_ZN7WebCore17getDOMConstructorINS_31JSBeforeProcessEventConstructorEEEPN3JSC8JSObjectEPNS2_9ExecStateEPKNS_17JSDOMGlobalObjectE@Base 2.2.0
 (optional=templinst|arch=s390x)_ZN7WebCore17getDOMConstructorINS_31JSHTMLDetailsElementConstructorEEEPN3JSC8JSObjectEPNS2_9ExecStateEPKNS_17JSDOMGlobalObjectE@Base 2.2.0
 (optional=templinst|arch=s390x)_ZN7WebCore17getDOMConstructorINS_31JSHTMLHeadingElementConstructorEEEPN3JSC8JSObjectEPNS2_9ExecStateEPKNS_17JSDOMGlobalObjectE@Base 2.2.0
 (optional=templinst|arch=s390x)_ZN7WebCore17getDOMConstructorINS_31JSHTMLIsIndexElementConstructorEEEPN3JSC8JSObjectEPNS2_9ExecStateEPKNS_17JSDOMGlobalObjectE@Base 2.2.0
 (optional=templinst|arch=s390x)_ZN7WebCore17getDOMConstructorINS_31JSHTMLMarqueeElementConstructorEEEPN3JSC8JSObjectEPNS2_9ExecStateEPKNS_17JSDOMGlobalObjectE@Base 2.2.0
 (optional=templinst|arch=s390x)_ZN7WebCore17getDOMConstructorINS_31JSInjectedScriptHostConstructorEEEPN3JSC8JSObjectEPNS2_9ExecStateEPKNS_17JSDOMGlobalObjectE@Base 2.2.0
 (optional=templinst|arch=s390x)_ZN7WebCore17getDOMConstructorINS_31JSSVGAltGlyphElementConstructorEEEPN3JSC8JSObjectEPNS2_9ExecStateEPKNS_17JSDOMGlobalObjectE@Base 2.2.0
 (optional=templinst|arch=s390x)_ZN7WebCore17getDOMConstructorINS_31JSSVGAnimatedBooleanConstructorEEEPN3JSC8JSObjectEPNS2_9ExecStateEPKNS_17JSDOMGlobalObjectE@Base 2.2.0
 (optional=templinst|arch=s390x)_ZN7WebCore17getDOMConstructorINS_31JSSVGAnimatedIntegerConstructorEEEPN3JSC8JSObjectEPNS2_9ExecStateEPKNS_17JSDOMGlobalObjectE@Base 2.2.0
 (optional=templinst|arch=s390x)_ZN7WebCore17getDOMConstructorINS_31JSSVGClipPathElementConstructorEEEPN3JSC8JSObjectEPNS2_9ExecStateEPKNS_17JSDOMGlobalObjectE@Base 2.2.0
 (optional=templinst|arch=s390x)_ZN7WebCore17getDOMConstructorINS_31JSSVGElementInstanceConstructorEEEPN3JSC8JSObjectEPNS2_9ExecStateEPKNS_17JSDOMGlobalObjectE@Base 2.2.0
 (optional=templinst|arch=s390x)_ZN7WebCore17getDOMConstructorINS_31JSSVGFEOffsetElementConstructorEEEPN3JSC8JSObjectEPNS2_9ExecStateEPKNS_17JSDOMGlobalObjectE@Base 2.2.0
 (optional=templinst|arch=s390x)_ZN7WebCore17getDOMConstructorINS_31JSSVGFontFaceElementConstructorEEEPN3JSC8JSObjectEPNS2_9ExecStateEPKNS_17JSDOMGlobalObjectE@Base 2.2.0
 (optional=templinst|arch=s390x)_ZN7WebCore17getDOMConstructorINS_31JSSVGGradientElementConstructorEEEPN3JSC8JSObjectEPNS2_9ExecStateEPKNS_17JSDOMGlobalObjectE@Base 2.2.0
 (optional=templinst|arch=s390x)_ZN7WebCore17getDOMConstructorINS_31JSSVGMetadataElementConstructorEEEPN3JSC8JSObjectEPNS2_9ExecStateEPKNS_17JSDOMGlobalObjectE@Base 2.2.0
 (optional=templinst|arch=s390x)_ZN7WebCore17getDOMConstructorINS_31JSSVGPolylineElementConstructorEEEPN3JSC8JSObjectEPNS2_9ExecStateEPKNS_17JSDOMGlobalObjectE@Base 2.2.0
 (optional=templinst|arch=s390x)_ZN7WebCore17getDOMConstructorINS_31JSSVGRenderingIntentConstructorEEEPN3JSC8JSObjectEPNS2_9ExecStateEPKNS_17JSDOMGlobalObjectE@Base 2.2.0
 (optional=templinst|arch=s390x)_ZN7WebCore17getDOMConstructorINS_31JSSVGTextPathElementConstructorEEEPN3JSC8JSObjectEPNS2_9ExecStateEPKNS_17JSDOMGlobalObjectE@Base 2.2.0
 (optional=templinst|arch=s390x)_ZN7WebCore17getDOMConstructorINS_32JSCSSStyleDeclarationConstructorEEEPN3JSC8JSObjectEPNS2_9ExecStateEPKNS_17JSDOMGlobalObjectE@Base 2.2.0
 (optional=templinst|arch=s390x)_ZN7WebCore17getDOMConstructorINS_32JSHTMLBaseFontElementConstructorEEEPN3JSC8JSObjectEPNS2_9ExecStateEPKNS_17JSDOMGlobalObjectE@Base 2.2.0
 (optional=templinst|arch=s390x)_ZN7WebCore17getDOMConstructorINS_32JSHTMLDataListElementConstructorEEEPN3JSC8JSObjectEPNS2_9ExecStateEPKNS_17JSDOMGlobalObjectE@Base 2.2.0
 (optional=templinst|arch=s390x)_ZN7WebCore17getDOMConstructorINS_32JSHTMLFieldSetElementConstructorEEEPN3JSC8JSObjectEPNS2_9ExecStateEPKNS_17JSDOMGlobalObjectE@Base 2.2.0
 (optional=templinst|arch=s390x)_ZN7WebCore17getDOMConstructorINS_32JSHTMLFrameSetElementConstructorEEEPN3JSC8JSObjectEPNS2_9ExecStateEPKNS_17JSDOMGlobalObjectE@Base 2.2.0
 (optional=templinst|arch=s390x)_ZN7WebCore17getDOMConstructorINS_32JSHTMLOptGroupElementConstructorEEEPN3JSC8JSObjectEPNS2_9ExecStateEPKNS_17JSDOMGlobalObjectE@Base 2.2.0
 (optional=templinst|arch=s390x)_ZN7WebCore17getDOMConstructorINS_32JSHTMLProgressElementConstructorEEEPN3JSC8JSObjectEPNS2_9ExecStateEPKNS_17JSDOMGlobalObjectE@Base 2.2.0
 (optional=templinst|arch=s390x)_ZN7WebCore17getDOMConstructorINS_32JSHTMLTableColElementConstructorEEEPN3JSC8JSObjectEPNS2_9ExecStateEPKNS_17JSDOMGlobalObjectE@Base 2.2.0
 (optional=templinst|arch=s390x)_ZN7WebCore17getDOMConstructorINS_32JSHTMLTableRowElementConstructorEEEPN3JSC8JSObjectEPNS2_9ExecStateEPKNS_17JSDOMGlobalObjectE@Base 2.2.0
 (optional=templinst|arch=s390x)_ZN7WebCore17getDOMConstructorINS_32JSHTMLTextAreaElementConstructorEEEPN3JSC8JSObjectEPNS2_9ExecStateEPKNS_17JSDOMGlobalObjectE@Base 2.2.0
 (optional=templinst|arch=s390x)_ZN7WebCore17getDOMConstructorINS_32JSPageTransitionEventConstructorEEEPN3JSC8JSObjectEPNS2_9ExecStateEPKNS_17JSDOMGlobalObjectE@Base 2.2.0
 (optional=templinst|arch=s390x)_ZN7WebCore17getDOMConstructorINS_32JSSVGPathSegClosePathConstructorEEEPN3JSC8JSObjectEPNS2_9ExecStateEPKNS_17JSDOMGlobalObjectE@Base 2.2.0
 (optional=templinst|arch=s390x)_ZN7WebCore17getDOMConstructorINS_32JSSVGPathSegLinetoAbsConstructorEEEPN3JSC8JSObjectEPNS2_9ExecStateEPKNS_17JSDOMGlobalObjectE@Base 2.2.0
 (optional=templinst|arch=s390x)_ZN7WebCore17getDOMConstructorINS_32JSSVGPathSegLinetoRelConstructorEEEPN3JSC8JSObjectEPNS2_9ExecStateEPKNS_17JSDOMGlobalObjectE@Base 2.2.0
 (optional=templinst|arch=s390x)_ZN7WebCore17getDOMConstructorINS_32JSSVGPathSegMovetoAbsConstructorEEEPN3JSC8JSObjectEPNS2_9ExecStateEPKNS_17JSDOMGlobalObjectE@Base 2.2.0
 (optional=templinst|arch=s390x)_ZN7WebCore17getDOMConstructorINS_32JSSVGPathSegMovetoRelConstructorEEEPN3JSC8JSObjectEPNS2_9ExecStateEPKNS_17JSDOMGlobalObjectE@Base 2.2.0
 (optional=templinst|arch=s390x)_ZN7WebCore17getDOMConstructorINS_32JSWebKitAnimationListConstructorEEEPN3JSC8JSObjectEPNS2_9ExecStateEPKNS_17JSDOMGlobalObjectE@Base 2.2.0
 (optional=templinst|arch=s390x)_ZN7WebCore17getDOMConstructorINS_33JSDOMSettableTokenListConstructorEEEPN3JSC8JSObjectEPNS2_9ExecStateEPKNS_17JSDOMGlobalObjectE@Base 2.2.0
 (optional=templinst|arch=s390x)_ZN7WebCore17getDOMConstructorINS_33JSHTMLDirectoryElementConstructorEEEPN3JSC8JSObjectEPNS2_9ExecStateEPKNS_17JSDOMGlobalObjectE@Base 2.2.0
 (optional=templinst|arch=s390x)_ZN7WebCore17getDOMConstructorINS_33JSHTMLParagraphElementConstructorEEEPN3JSC8JSObjectEPNS2_9ExecStateEPKNS_17JSDOMGlobalObjectE@Base 2.2.0
 (optional=templinst|arch=s390x)_ZN7WebCore17getDOMConstructorINS_33JSHTMLTableCellElementConstructorEEEPN3JSC8JSObjectEPNS2_9ExecStateEPKNS_17JSDOMGlobalObjectE@Base 2.2.0
 (optional=templinst|arch=s390x)_ZN7WebCore17getDOMConstructorINS_33JSWebKitAnimationEventConstructorEEEPN3JSC8JSObjectEPNS2_9ExecStateEPKNS_17JSDOMGlobalObjectE@Base 2.2.0
 (optional=templinst|arch=s390x)_ZN7WebCore17getDOMConstructorINS_33JSXMLHttpRequestUploadConstructorEEEPN3JSC8JSObjectEPNS2_9ExecStateEPKNS_17JSDOMGlobalObjectE@Base 2.2.0
 (optional=templinst|arch=s390x)_ZN7WebCore17getDOMConstructorINS_34JSHTMLBlockquoteElementConstructorEEEPN3JSC8JSObjectEPNS2_9ExecStateEPKNS_17JSDOMGlobalObjectE@Base 2.2.0
 (optional=templinst|arch=s390x)_ZN7WebCore17getDOMConstructorINS_34JSHTMLOptionsCollectionConstructorEEEPN3JSC8JSObjectEPNS2_9ExecStateEPKNS_17JSDOMGlobalObjectE@Base 2.2.0
 (optional=templinst|arch=s390x)_ZN7WebCore17getDOMConstructorINS_34JSInspectorFrontendHostConstructorEEEPN3JSC8JSObjectEPNS2_9ExecStateEPKNS_17JSDOMGlobalObjectE@Base 2.2.0
 (optional=templinst|arch=s390x)_ZN7WebCore17getDOMConstructorINS_34JSProcessingInstructionConstructorEEEPN3JSC8JSObjectEPNS2_9ExecStateEPKNS_17JSDOMGlobalObjectE@Base 2.2.0
 (optional=templinst|arch=s390x)_ZN7WebCore17getDOMConstructorINS_34JSSVGAnimatedLengthListConstructorEEEPN3JSC8JSObjectEPNS2_9ExecStateEPKNS_17JSDOMGlobalObjectE@Base 2.2.0
 (optional=templinst|arch=s390x)_ZN7WebCore17getDOMConstructorINS_34JSSVGAnimatedNumberListConstructorEEEPN3JSC8JSObjectEPNS2_9ExecStateEPKNS_17JSDOMGlobalObjectE@Base 2.2.0
 (optional=templinst|arch=s390x)_ZN7WebCore17getDOMConstructorINS_34JSSVGFECompositeElementConstructorEEEPN3JSC8JSObjectEPNS2_9ExecStateEPKNS_17JSDOMGlobalObjectE@Base 2.2.0
 (optional=templinst|arch=s390x)_ZN7WebCore17getDOMConstructorINS_34JSSVGFEMergeNodeElementConstructorEEEPN3JSC8JSObjectEPNS2_9ExecStateEPKNS_17JSDOMGlobalObjectE@Base 2.2.0
 (optional=templinst|arch=s390x)_ZN7WebCore17getDOMConstructorINS_34JSSVGFESpotLightElementConstructorEEEPN3JSC8JSObjectEPNS2_9ExecStateEPKNS_17JSDOMGlobalObjectE@Base 2.2.0
 (optional=templinst|arch=s390x)_ZN7WebCore17getDOMConstructorINS_34JSSVGFontFaceSrcElementConstructorEEEPN3JSC8JSObjectEPNS2_9ExecStateEPKNS_17JSDOMGlobalObjectE@Base 2.2.0
 (optional=templinst|arch=s390x)_ZN7WebCore17getDOMConstructorINS_34JSSVGFontFaceUriElementConstructorEEEPN3JSC8JSObjectEPNS2_9ExecStateEPKNS_17JSDOMGlobalObjectE@Base 2.2.0
 (optional=templinst|arch=s390x)_ZN7WebCore17getDOMConstructorINS_34JSSVGTextContentElementConstructorEEEPN3JSC8JSObjectEPNS2_9ExecStateEPKNS_17JSDOMGlobalObjectE@Base 2.2.0
 (optional=templinst|arch=s390x)_ZN7WebCore17getDOMConstructorINS_34JSWebKitCSSKeyframeRuleConstructorEEEPN3JSC8JSObjectEPNS2_9ExecStateEPKNS_17JSDOMGlobalObjectE@Base 2.2.0
 (optional=templinst|arch=s390x)_ZN7WebCore17getDOMConstructorINS_34JSWebKitTransitionEventConstructorEEEPN3JSC8JSObjectEPNS2_9ExecStateEPKNS_17JSDOMGlobalObjectE@Base 2.2.0
 (optional=templinst|arch=s390x)_ZN7WebCore17getDOMConstructorINS_35JSCanvasRenderingContextConstructorEEEPN3JSC8JSObjectEPNS2_9ExecStateEPKNS_17JSDOMGlobalObjectE@Base 2.2.0
 (optional=templinst|arch=s390x)_ZN7WebCore17getDOMConstructorINS_35JSSVGAnimateColorElementConstructorEEEPN3JSC8JSObjectEPNS2_9ExecStateEPKNS_17JSDOMGlobalObjectE@Base 2.2.0
 (optional=templinst|arch=s390x)_ZN7WebCore17getDOMConstructorINS_35JSSVGAnimatedEnumerationConstructorEEEPN3JSC8JSObjectEPNS2_9ExecStateEPKNS_17JSDOMGlobalObjectE@Base 2.2.0
 (optional=templinst|arch=s390x)_ZN7WebCore17getDOMConstructorINS_35JSSVGElementInstanceListConstructorEEEPN3JSC8JSObjectEPNS2_9ExecStateEPKNS_17JSDOMGlobalObjectE@Base 2.2.0
 (optional=templinst|arch=s390x)_ZN7WebCore17getDOMConstructorINS_35JSSVGFEDropShadowElementConstructorEEEPN3JSC8JSObjectEPNS2_9ExecStateEPKNS_17JSDOMGlobalObjectE@Base 2.2.0
 (optional=templinst|arch=s390x)_ZN7WebCore17getDOMConstructorINS_35JSSVGFEMorphologyElementConstructorEEEPN3JSC8JSObjectEPNS2_9ExecStateEPKNS_17JSDOMGlobalObjectE@Base 2.2.0
 (optional=templinst|arch=s390x)_ZN7WebCore17getDOMConstructorINS_35JSSVGFEPointLightElementConstructorEEEPN3JSC8JSObjectEPNS2_9ExecStateEPKNS_17JSDOMGlobalObjectE@Base 2.2.0
 (optional=templinst|arch=s390x)_ZN7WebCore17getDOMConstructorINS_35JSSVGFETurbulenceElementConstructorEEEPN3JSC8JSObjectEPNS2_9ExecStateEPKNS_17JSDOMGlobalObjectE@Base 2.2.0
 (optional=templinst|arch=s390x)_ZN7WebCore17getDOMConstructorINS_35JSSVGFontFaceNameElementConstructorEEEPN3JSC8JSObjectEPNS2_9ExecStateEPKNS_17JSDOMGlobalObjectE@Base 2.2.0
 (optional=templinst|arch=s390x)_ZN7WebCore17getDOMConstructorINS_35JSSVGMissingGlyphElementConstructorEEEPN3JSC8JSObjectEPNS2_9ExecStateEPKNS_17JSDOMGlobalObjectE@Base 2.2.0
 (optional=templinst|arch=s390x)_ZN7WebCore17getDOMConstructorINS_35JSSVGPreserveAspectRatioConstructorEEEPN3JSC8JSObjectEPNS2_9ExecStateEPKNS_17JSDOMGlobalObjectE@Base 2.2.0
 (optional=templinst|arch=s390x)_ZN7WebCore17getDOMConstructorINS_35JSWebKitCSSKeyframesRuleConstructorEEEPN3JSC8JSObjectEPNS2_9ExecStateEPKNS_17JSDOMGlobalObjectE@Base 2.2.0
 (optional=templinst|arch=s390x)_ZN7WebCore17getDOMConstructorINS_36JSHTMLTableCaptionElementConstructorEEEPN3JSC8JSObjectEPNS2_9ExecStateEPKNS_17JSDOMGlobalObjectE@Base 2.2.0
 (optional=templinst|arch=s390x)_ZN7WebCore17getDOMConstructorINS_36JSHTMLTableSectionElementConstructorEEEPN3JSC8JSObjectEPNS2_9ExecStateEPKNS_17JSDOMGlobalObjectE@Base 2.2.0
 (optional=templinst|arch=s390x)_ZN7WebCore17getDOMConstructorINS_36JSSVGFEColorMatrixElementConstructorEEEPN3JSC8JSObjectEPNS2_9ExecStateEPKNS_17JSDOMGlobalObjectE@Base 2.2.0
 (optional=templinst|arch=s390x)_ZN7WebCore17getDOMConstructorINS_36JSSVGForeignObjectElementConstructorEEEPN3JSC8JSObjectEPNS2_9ExecStateEPKNS_17JSDOMGlobalObjectE@Base 2.2.0
 (optional=templinst|arch=s390x)_ZN7WebCore17getDOMConstructorINS_36JSWebKitCSSTransformValueConstructorEEEPN3JSC8JSObjectEPNS2_9ExecStateEPKNS_17JSDOMGlobalObjectE@Base 2.2.0
 (optional=templinst|arch=s390x)_ZN7WebCore17getDOMConstructorINS_36JSXMLHttpRequestExceptionConstructorEEEPN3JSC8JSObjectEPNS2_9ExecStateEPKNS_17JSDOMGlobalObjectE@Base 2.2.0
 (optional=templinst|arch=s390x)_ZN7WebCore17getDOMConstructorINS_37JSCanvasRenderingContext2DConstructorEEEPN3JSC8JSObjectEPNS2_9ExecStateEPKNS_17JSDOMGlobalObjectE@Base 2.2.0
 (optional=templinst|arch=s390x)_ZN7WebCore17getDOMConstructorINS_37JSSVGAnimatedTransformListConstructorEEEPN3JSC8JSObjectEPNS2_9ExecStateEPKNS_17JSDOMGlobalObjectE@Base 2.2.0
 (optional=templinst|arch=s390x)_ZN7WebCore17getDOMConstructorINS_37JSSVGFEDistantLightElementConstructorEEEPN3JSC8JSObjectEPNS2_9ExecStateEPKNS_17JSDOMGlobalObjectE@Base 2.2.0
 (optional=templinst|arch=s390x)_ZN7WebCore17getDOMConstructorINS_37JSSVGFEGaussianBlurElementConstructorEEEPN3JSC8JSObjectEPNS2_9ExecStateEPKNS_17JSDOMGlobalObjectE@Base 2.2.0
 (optional=templinst|arch=s390x)_ZN7WebCore17getDOMConstructorINS_37JSSVGFontFaceFormatElementConstructorEEEPN3JSC8JSObjectEPNS2_9ExecStateEPKNS_17JSDOMGlobalObjectE@Base 2.2.0
 (optional=templinst|arch=s390x)_ZN7WebCore17getDOMConstructorINS_37JSSVGLinearGradientElementConstructorEEEPN3JSC8JSObjectEPNS2_9ExecStateEPKNS_17JSDOMGlobalObjectE@Base 2.2.0
 (optional=templinst|arch=s390x)_ZN7WebCore17getDOMConstructorINS_37JSSVGRadialGradientElementConstructorEEEPN3JSC8JSObjectEPNS2_9ExecStateEPKNS_17JSDOMGlobalObjectE@Base 2.2.0
 (optional=templinst|arch=s390x)_ZN7WebCore17getDOMConstructorINS_38JSSVGPathSegCurvetoCubicAbsConstructorEEEPN3JSC8JSObjectEPNS2_9ExecStateEPKNS_17JSDOMGlobalObjectE@Base 2.2.0
 (optional=templinst|arch=s390x)_ZN7WebCore17getDOMConstructorINS_38JSSVGPathSegCurvetoCubicRelConstructorEEEPN3JSC8JSObjectEPNS2_9ExecStateEPKNS_17JSDOMGlobalObjectE@Base 2.2.0
 (optional=templinst|arch=s390x)_ZN7WebCore17getDOMConstructorINS_38JSSVGTextPositioningElementConstructorEEEPN3JSC8JSObjectEPNS2_9ExecStateEPKNS_17JSDOMGlobalObjectE@Base 2.2.0
 (optional=templinst|arch=s390x)_ZN7WebCore17getDOMConstructorINS_39JSSVGAnimateTransformElementConstructorEEEPN3JSC8JSObjectEPNS2_9ExecStateEPKNS_17JSDOMGlobalObjectE@Base 2.2.0
 (optional=templinst|arch=s390x)_ZN7WebCore17getDOMConstructorINS_39JSSVGFEConvolveMatrixElementConstructorEEEPN3JSC8JSObjectEPNS2_9ExecStateEPKNS_17JSDOMGlobalObjectE@Base 2.2.0
 (optional=templinst|arch=s390x)_ZN7WebCore17getDOMConstructorINS_40JSSVGFEDiffuseLightingElementConstructorEEEPN3JSC8JSObjectEPNS2_9ExecStateEPKNS_17JSDOMGlobalObjectE@Base 2.2.0
 (optional=templinst|arch=s390x)_ZN7WebCore17getDOMConstructorINS_40JSSVGFEDisplacementMapElementConstructorEEEPN3JSC8JSObjectEPNS2_9ExecStateEPKNS_17JSDOMGlobalObjectE@Base 2.2.0
 (optional=templinst|arch=s390x)_ZN7WebCore17getDOMConstructorINS_40JSSVGPathSegLinetoVerticalAbsConstructorEEEPN3JSC8JSObjectEPNS2_9ExecStateEPKNS_17JSDOMGlobalObjectE@Base 2.2.0
 (optional=templinst|arch=s390x)_ZN7WebCore17getDOMConstructorINS_40JSSVGPathSegLinetoVerticalRelConstructorEEEPN3JSC8JSObjectEPNS2_9ExecStateEPKNS_17JSDOMGlobalObjectE@Base 2.2.0
 (optional=templinst|arch=s390x)_ZN7WebCore17getDOMConstructorINS_40JSXMLHttpRequestProgressEventConstructorEEEPN3JSC8JSObjectEPNS2_9ExecStateEPKNS_17JSDOMGlobalObjectE@Base 2.2.0
 (optional=templinst|arch=s390x)_ZN7WebCore17getDOMConstructorINS_41JSSVGFESpecularLightingElementConstructorEEEPN3JSC8JSObjectEPNS2_9ExecStateEPKNS_17JSDOMGlobalObjectE@Base 2.2.0
 (optional=templinst|arch=s390x)_ZN7WebCore17getDOMConstructorINS_42JSSVGFEComponentTransferElementConstructorEEEPN3JSC8JSObjectEPNS2_9ExecStateEPKNS_17JSDOMGlobalObjectE@Base 2.2.0
 (optional=templinst|arch=s390x)_ZN7WebCore17getDOMConstructorINS_42JSSVGPathSegCurvetoQuadraticAbsConstructorEEEPN3JSC8JSObjectEPNS2_9ExecStateEPKNS_17JSDOMGlobalObjectE@Base 2.2.0
 (optional=templinst|arch=s390x)_ZN7WebCore17getDOMConstructorINS_42JSSVGPathSegCurvetoQuadraticRelConstructorEEEPN3JSC8JSObjectEPNS2_9ExecStateEPKNS_17JSDOMGlobalObjectE@Base 2.2.0
 (optional=templinst|arch=s390x)_ZN7WebCore17getDOMConstructorINS_42JSSVGPathSegLinetoHorizontalAbsConstructorEEEPN3JSC8JSObjectEPNS2_9ExecStateEPKNS_17JSDOMGlobalObjectE@Base 2.2.0
 (optional=templinst|arch=s390x)_ZN7WebCore17getDOMConstructorINS_42JSSVGPathSegLinetoHorizontalRelConstructorEEEPN3JSC8JSObjectEPNS2_9ExecStateEPKNS_17JSDOMGlobalObjectE@Base 2.2.0
 (optional=templinst|arch=s390x)_ZN7WebCore17getDOMConstructorINS_43JSSVGAnimatedPreserveAspectRatioConstructorEEEPN3JSC8JSObjectEPNS2_9ExecStateEPKNS_17JSDOMGlobalObjectE@Base 2.2.0
 (optional=templinst|arch=s390x)_ZN7WebCore17getDOMConstructorINS_44JSSVGPathSegCurvetoCubicSmoothAbsConstructorEEEPN3JSC8JSObjectEPNS2_9ExecStateEPKNS_17JSDOMGlobalObjectE@Base 2.2.0
 (optional=templinst|arch=s390x)_ZN7WebCore17getDOMConstructorINS_44JSSVGPathSegCurvetoCubicSmoothRelConstructorEEEPN3JSC8JSObjectEPNS2_9ExecStateEPKNS_17JSDOMGlobalObjectE@Base 2.2.0
 (optional=templinst|arch=s390x)_ZN7WebCore17getDOMConstructorINS_48JSSVGComponentTransferFunctionElementConstructorEEEPN3JSC8JSObjectEPNS2_9ExecStateEPKNS_17JSDOMGlobalObjectE@Base 2.2.0
 (optional=templinst|arch=s390x)_ZN7WebCore17getDOMConstructorINS_48JSSVGPathSegCurvetoQuadraticSmoothAbsConstructorEEEPN3JSC8JSObjectEPNS2_9ExecStateEPKNS_17JSDOMGlobalObjectE@Base 2.2.0
 (optional=templinst|arch=s390x)_ZN7WebCore17getDOMConstructorINS_48JSSVGPathSegCurvetoQuadraticSmoothRelConstructorEEEPN3JSC8JSObjectEPNS2_9ExecStateEPKNS_17JSDOMGlobalObjectE@Base 2.2.0
 (optional=private|arch=s390x)_ZN7WebCore18BeforeProcessEvent22initBeforeProcessEventERKN3WTF12AtomicStringEbb@Base 2.2.0
 (optional=private|arch=s390x)_ZN7WebCore18JSArrayBufferOwnerC1Ev@Base 2.2.0
 (optional=private|arch=s390x)_ZN7WebCore18JSArrayBufferOwnerC2Ev@Base 2.2.0
 (optional=private|arch=s390x)_ZN7WebCore18JSBarInfoPrototype15createStructureERN3JSC12JSGlobalDataENS1_7JSValueE@Base 2.2.0
 (optional=private|arch=s390x)_ZN7WebCore18JSBarInfoPrototypeC1ERN3JSC12JSGlobalDataEPNS1_14JSGlobalObjectEPNS1_9StructureE@Base 2.2.0
 (optional=private|arch=s390x)_ZN7WebCore18JSBarInfoPrototypeC2ERN3JSC12JSGlobalDataEPNS1_14JSGlobalObjectEPNS1_9StructureE@Base 2.2.0
 (optional=private|arch=s390x)_ZN7WebCore18JSCSSRuleListOwnerC1Ev@Base 2.2.0
 (optional=private|arch=s390x)_ZN7WebCore18JSCSSRuleListOwnerC2Ev@Base 2.2.0
 (optional=private|arch=s390x)_ZN7WebCore18JSCSSRulePrototype15createStructureERN3JSC12JSGlobalDataENS1_7JSValueE@Base 2.2.0
 (optional=private|arch=s390x)_ZN7WebCore18JSCSSRulePrototypeC1ERN3JSC12JSGlobalDataEPNS1_14JSGlobalObjectEPNS1_9StructureE@Base 2.2.0
 (optional=private|arch=s390x)_ZN7WebCore18JSCSSRulePrototypeC2ERN3JSC12JSGlobalDataEPNS1_14JSGlobalObjectEPNS1_9StructureE@Base 2.2.0
 (optional=private|arch=s390x)_ZN7WebCore18JSCommentPrototype15createStructureERN3JSC12JSGlobalDataENS1_7JSValueE@Base 2.2.0
 (optional=private|arch=s390x)_ZN7WebCore18JSCommentPrototypeC1ERN3JSC12JSGlobalDataEPNS1_14JSGlobalObjectEPNS1_9StructureE@Base 2.2.0
 (optional=private|arch=s390x)_ZN7WebCore18JSCommentPrototypeC2ERN3JSC12JSGlobalDataEPNS1_14JSGlobalObjectEPNS1_9StructureE@Base 2.2.0
 (optional=private|arch=s390x)_ZN7WebCore18JSConsolePrototype15createStructureERN3JSC12JSGlobalDataENS1_7JSValueE@Base 2.2.0
 (optional=private|arch=s390x)_ZN7WebCore18JSConsolePrototypeC1ERN3JSC12JSGlobalDataEPNS1_14JSGlobalObjectEPNS1_9StructureE@Base 2.2.0
 (optional=private|arch=s390x)_ZN7WebCore18JSConsolePrototypeC2ERN3JSC12JSGlobalDataEPNS1_14JSGlobalObjectEPNS1_9StructureE@Base 2.2.0
 (optional=private|arch=s390x)_ZN7WebCore18JSCounterPrototype15createStructureERN3JSC12JSGlobalDataENS1_7JSValueE@Base 2.2.0
 (optional=private|arch=s390x)_ZN7WebCore18JSCounterPrototypeC1ERN3JSC12JSGlobalDataEPNS1_14JSGlobalObjectEPNS1_9StructureE@Base 2.2.0
 (optional=private|arch=s390x)_ZN7WebCore18JSCounterPrototypeC2ERN3JSC12JSGlobalDataEPNS1_14JSGlobalObjectEPNS1_9StructureE@Base 2.2.0
 (optional=private|arch=s390x)_ZN7WebCore18JSDOMCoreException15createStructureERN3JSC12JSGlobalDataENS1_7JSValueE@Base 2.2.0
 (optional=private|arch=s390x)_ZN7WebCore18JSDOMMimeTypeArray15createStructureERN3JSC12JSGlobalDataENS1_7JSValueE@Base 2.2.0
 (optional=private|arch=!alpha !amd64 !ia64 !kfreebsd-amd64 !ppc64 !sparc64)_ZN7WebCore18JSDatabaseCallback6createEPN3JSC8JSObjectEPNS_17JSDOMGlobalObjectE@Base 2.2.0
 (optional=private|arch=s390x)_ZN7WebCore18JSElementPrototype15createStructureERN3JSC12JSGlobalDataENS1_7JSValueE@Base 2.2.0
 (optional=private|arch=s390x)_ZN7WebCore18JSElementPrototypeC1ERN3JSC12JSGlobalDataEPNS1_14JSGlobalObjectEPNS1_9StructureE@Base 2.2.0
 (optional=private|arch=s390x)_ZN7WebCore18JSElementPrototypeC2ERN3JSC12JSGlobalDataEPNS1_14JSGlobalObjectEPNS1_9StructureE@Base 2.2.0
 (optional=private|arch=s390x)_ZN7WebCore18JSEventConstructor15createStructureERN3JSC12JSGlobalDataENS1_7JSValueE@Base 2.2.0
 (optional=private|arch=s390x)_ZN7WebCore18JSEventSourceOwnerC1Ev@Base 2.2.0
 (optional=private|arch=s390x)_ZN7WebCore18JSEventSourceOwnerC2Ev@Base 2.2.0
 (optional=private|arch=s390x)_ZN7WebCore18JSHTMLAudioElement15createStructureERN3JSC12JSGlobalDataENS1_7JSValueE@Base 2.2.0
 (optional=private|arch=s390x)_ZN7WebCore18JSHTMLDListElement15createStructureERN3JSC12JSGlobalDataENS1_7JSValueE@Base 2.2.0
 (optional=private|arch=s390x)_ZN7WebCore18JSHTMLEmbedElement15createStructureERN3JSC12JSGlobalDataENS1_7JSValueE@Base 2.2.0
 (optional=private|arch=s390x)_ZN7WebCore18JSHTMLFrameElement15createStructureERN3JSC12JSGlobalDataENS1_7JSValueE@Base 2.2.0
 (optional=private|arch=s390x)_ZN7WebCore18JSHTMLImageElement15createStructureERN3JSC12JSGlobalDataENS1_7JSValueE@Base 2.2.0
 (optional=private|arch=s390x)_ZN7WebCore18JSHTMLInputElement15createStructureERN3JSC12JSGlobalDataENS1_7JSValueE@Base 2.2.0
 (optional=private|arch=s390x)_ZN7WebCore18JSHTMLLabelElement15createStructureERN3JSC12JSGlobalDataENS1_7JSValueE@Base 2.2.0
 (optional=private|arch=s390x)_ZN7WebCore18JSHTMLMediaElement15createStructureERN3JSC12JSGlobalDataENS1_7JSValueE@Base 2.2.0
 (optional=private|arch=s390x)_ZN7WebCore18JSHTMLMeterElement15createStructureERN3JSC12JSGlobalDataENS1_7JSValueE@Base 2.2.0
 (optional=private|arch=s390x)_ZN7WebCore18JSHTMLOListElement15createStructureERN3JSC12JSGlobalDataENS1_7JSValueE@Base 2.2.0
 (optional=private|arch=s390x)_ZN7WebCore18JSHTMLParamElement15createStructureERN3JSC12JSGlobalDataENS1_7JSValueE@Base 2.2.0
 (optional=private|arch=s390x)_ZN7WebCore18JSHTMLQuoteElement15createStructureERN3JSC12JSGlobalDataENS1_7JSValueE@Base 2.2.0
 (optional=private|arch=s390x)_ZN7WebCore18JSHTMLStyleElement15createStructureERN3JSC12JSGlobalDataENS1_7JSValueE@Base 2.2.0
 (optional=private|arch=s390x)_ZN7WebCore18JSHTMLTableElement15createStructureERN3JSC12JSGlobalDataENS1_7JSValueE@Base 2.2.0
 (optional=private|arch=s390x)_ZN7WebCore18JSHTMLTitleElement15createStructureERN3JSC12JSGlobalDataENS1_7JSValueE@Base 2.2.0
 (optional=private|arch=s390x)_ZN7WebCore18JSHTMLUListElement15createStructureERN3JSC12JSGlobalDataENS1_7JSValueE@Base 2.2.0
 (optional=private|arch=s390x)_ZN7WebCore18JSHTMLVideoElement15createStructureERN3JSC12JSGlobalDataENS1_7JSValueE@Base 2.2.0
 (optional=private|arch=s390x)_ZN7WebCore18JSHistoryPrototype15createStructureERN3JSC12JSGlobalDataENS1_7JSValueE@Base 2.2.0
 (optional=private|arch=s390x)_ZN7WebCore18JSHistoryPrototypeC1ERN3JSC12JSGlobalDataEPNS1_14JSGlobalObjectEPNS1_9StructureE@Base 2.2.0
 (optional=private|arch=s390x)_ZN7WebCore18JSHistoryPrototypeC2ERN3JSC12JSGlobalDataEPNS1_14JSGlobalObjectEPNS1_9StructureE@Base 2.2.0
 (optional=private|arch=s390x)_ZN7WebCore18JSMessagePortOwnerC1Ev@Base 2.2.0
 (optional=private|arch=s390x)_ZN7WebCore18JSMessagePortOwnerC2Ev@Base 2.2.0
 (optional=private|arch=s390x)_ZN7WebCore18JSRangeConstructor15createStructureERN3JSC12JSGlobalDataENS1_7JSValueE@Base 2.2.0
 (optional=private|arch=s390x)_ZN7WebCore18JSSVGAnimatedAngle15createStructureERN3JSC12JSGlobalDataENS1_7JSValueE@Base 2.2.0
 (optional=private|arch=s390x)_ZN7WebCore18JSSVGCircleElement15createStructureERN3JSC12JSGlobalDataENS1_7JSValueE@Base 2.2.0
 (optional=private|arch=s390x)_ZN7WebCore18JSSVGCursorElement15createStructureERN3JSC12JSGlobalDataENS1_7JSValueE@Base 2.2.0
 (optional=private|arch=s390x)_ZN7WebCore18JSSVGFETileElement15createStructureERN3JSC12JSGlobalDataENS1_7JSValueE@Base 2.2.0
 (optional=private|arch=s390x)_ZN7WebCore18JSSVGFilterElement15createStructureERN3JSC12JSGlobalDataENS1_7JSValueE@Base 2.2.0
 (optional=private|arch=s390x)_ZN7WebCore18JSSVGMarkerElement15createStructureERN3JSC12JSGlobalDataENS1_7JSValueE@Base 2.2.0
 (optional=private|arch=s390x)_ZN7WebCore18JSSVGRectPrototype15createStructureERN3JSC12JSGlobalDataENS1_7JSValueE@Base 2.2.0
 (optional=private|arch=s390x)_ZN7WebCore18JSSVGRectPrototypeC1ERN3JSC12JSGlobalDataEPNS1_14JSGlobalObjectEPNS1_9StructureE@Base 2.2.0
 (optional=private|arch=s390x)_ZN7WebCore18JSSVGRectPrototypeC2ERN3JSC12JSGlobalDataEPNS1_14JSGlobalObjectEPNS1_9StructureE@Base 2.2.0
 (optional=private|arch=s390x)_ZN7WebCore18JSSVGScriptElement15createStructureERN3JSC12JSGlobalDataENS1_7JSValueE@Base 2.2.0
 (optional=private|arch=s390x)_ZN7WebCore18JSSVGSwitchElement15createStructureERN3JSC12JSGlobalDataENS1_7JSValueE@Base 2.2.0
 (optional=private|arch=s390x)_ZN7WebCore18JSSVGSymbolElement15createStructureERN3JSC12JSGlobalDataENS1_7JSValueE@Base 2.2.0
 (optional=private|arch=s390x)_ZN7WebCore18JSSVGTransformList15createStructureERN3JSC12JSGlobalDataENS1_7JSValueE@Base 2.2.0
 (optional=private|arch=s390x)_ZN7WebCore18JSStoragePrototype15createStructureERN3JSC12JSGlobalDataENS1_7JSValueE@Base 2.2.0
 (optional=private|arch=s390x)_ZN7WebCore18JSStoragePrototypeC1ERN3JSC12JSGlobalDataEPNS1_14JSGlobalObjectEPNS1_9StructureE@Base 2.2.0
 (optional=private|arch=s390x)_ZN7WebCore18JSStoragePrototypeC2ERN3JSC12JSGlobalDataEPNS1_14JSGlobalObjectEPNS1_9StructureE@Base 2.2.0
 (optional=private|arch=s390x)_ZN7WebCore18JSTouchConstructor15createStructureERN3JSC12JSGlobalDataENS1_7JSValueE@Base 2.2.0
 (optional=private|arch=s390x)_ZN7WebCore18JSUIEventPrototype15createStructureERN3JSC12JSGlobalDataENS1_7JSValueE@Base 2.2.0
 (optional=private|arch=s390x)_ZN7WebCore18JSUIEventPrototypeC1ERN3JSC12JSGlobalDataEPNS1_14JSGlobalObjectEPNS1_9StructureE@Base 2.2.0
 (optional=private|arch=s390x)_ZN7WebCore18JSUIEventPrototypeC2ERN3JSC12JSGlobalDataEPNS1_14JSGlobalObjectEPNS1_9StructureE@Base 2.2.0
 (optional=private|arch=s390x)_ZN7WebCore18NotificationCenter18createNotificationERKN3WTF6StringES4_S4_Ri@Base 2.2.0
 (optional=private|arch=s390x)_ZN7WebCore18NotificationCenter22createHTMLNotificationERKN3WTF6StringERi@Base 2.2.0
 (optional=private|arch=s390x)_ZN7WebCore18PlatformStrategiesC1Ev@Base 2.2.0
 (optional=private|arch=s390x)_ZN7WebCore18PlatformStrategiesC2Ev@Base 2.2.0
 (optional=private|arch=s390x)_ZN7WebCore18PlatformTouchEventD1Ev@Base 2.2.0
 (optional=private|arch=s390x)_ZN7WebCore18PlatformTouchEventD2Ev@Base 2.2.0
 (optional=private|arch=s390x)_ZN7WebCore18QtFallbackWebPopup11setGeometryERK5QRect@Base 2.2.0
 (optional=private|arch=s390x)_ZN7WebCore18QtFallbackWebPopup7setFontERK5QFont@Base 2.2.0
 (optional=private|arch=s390x)_ZN7WebCore18SVGElementInstance10ondblclickEv@Base 2.2.0
 (optional=private|arch=s390x)_ZN7WebCore18SVGElementInstance10ondragoverEv@Base 2.2.0
 (optional=private|arch=s390x)_ZN7WebCore18SVGElementInstance10onkeypressEv@Base 2.2.0
 (optional=private|arch=s390x)_ZN7WebCore18SVGElementInstance10onmouseoutEv@Base 2.2.0
 (optional=private|arch=s390x)_ZN7WebCore18SVGElementInstance10setOnabortEN3WTF10PassRefPtrINS_13EventListenerEEE@Base 2.2.0
 (optional=private|arch=s390x)_ZN7WebCore18SVGElementInstance10setOnclickEN3WTF10PassRefPtrINS_13EventListenerEEE@Base 2.2.0
 (optional=private|arch=s390x)_ZN7WebCore18SVGElementInstance10setOnerrorEN3WTF10PassRefPtrINS_13EventListenerEEE@Base 2.2.0
 (optional=private|arch=s390x)_ZN7WebCore18SVGElementInstance10setOnfocusEN3WTF10PassRefPtrINS_13EventListenerEEE@Base 2.2.0
 (optional=private|arch=s390x)_ZN7WebCore18SVGElementInstance10setOninputEN3WTF10PassRefPtrINS_13EventListenerEEE@Base 2.2.0
 (optional=private|arch=s390x)_ZN7WebCore18SVGElementInstance10setOnkeyupEN3WTF10PassRefPtrINS_13EventListenerEEE@Base 2.2.0
 (optional=private|arch=s390x)_ZN7WebCore18SVGElementInstance10setOnpasteEN3WTF10PassRefPtrINS_13EventListenerEEE@Base 2.2.0
 (optional=private|arch=s390x)_ZN7WebCore18SVGElementInstance10setOnresetEN3WTF10PassRefPtrINS_13EventListenerEEE@Base 2.2.0
 (optional=private|arch=s390x)_ZN7WebCore18SVGElementInstance11onbeforecutEv@Base 2.2.0
 (optional=private|arch=s390x)_ZN7WebCore18SVGElementInstance11ondragenterEv@Base 2.2.0
 (optional=private|arch=s390x)_ZN7WebCore18SVGElementInstance11ondragleaveEv@Base 2.2.0
 (optional=private|arch=s390x)_ZN7WebCore18SVGElementInstance11ondragstartEv@Base 2.2.0
 (optional=private|arch=s390x)_ZN7WebCore18SVGElementInstance11onmousedownEv@Base 2.2.0
 (optional=private|arch=s390x)_ZN7WebCore18SVGElementInstance11onmousemoveEv@Base 2.2.0
 (optional=private|arch=s390x)_ZN7WebCore18SVGElementInstance11onmouseoverEv@Base 2.2.0
 (optional=private|arch=s390x)_ZN7WebCore18SVGElementInstance11setOnchangeEN3WTF10PassRefPtrINS_13EventListenerEEE@Base 2.2.0
 (optional=private|arch=s390x)_ZN7WebCore18SVGElementInstance11setOnresizeEN3WTF10PassRefPtrINS_13EventListenerEEE@Base 2.2.0
 (optional=private|arch=s390x)_ZN7WebCore18SVGElementInstance11setOnscrollEN3WTF10PassRefPtrINS_13EventListenerEEE@Base 2.2.0
 (optional=private|arch=s390x)_ZN7WebCore18SVGElementInstance11setOnsearchEN3WTF10PassRefPtrINS_13EventListenerEEE@Base 2.2.0
 (optional=private|arch=s390x)_ZN7WebCore18SVGElementInstance11setOnselectEN3WTF10PassRefPtrINS_13EventListenerEEE@Base 2.2.0
 (optional=private|arch=s390x)_ZN7WebCore18SVGElementInstance11setOnsubmitEN3WTF10PassRefPtrINS_13EventListenerEEE@Base 2.2.0
 (optional=private|arch=s390x)_ZN7WebCore18SVGElementInstance11setOnunloadEN3WTF10PassRefPtrINS_13EventListenerEEE@Base 2.2.0
 (optional=private|arch=s390x)_ZN7WebCore18SVGElementInstance12onbeforecopyEv@Base 2.2.0
 (optional=private|arch=s390x)_ZN7WebCore18SVGElementInstance12onmousewheelEv@Base 2.2.0
 (optional=private|arch=s390x)_ZN7WebCore18SVGElementInstance12setOndragendEN3WTF10PassRefPtrINS_13EventListenerEEE@Base 2.2.0
 (optional=private|arch=s390x)_ZN7WebCore18SVGElementInstance12setOnkeydownEN3WTF10PassRefPtrINS_13EventListenerEEE@Base 2.2.0
 (optional=private|arch=s390x)_ZN7WebCore18SVGElementInstance12setOnmouseupEN3WTF10PassRefPtrINS_13EventListenerEEE@Base 2.2.0
 (optional=private|arch=s390x)_ZN7WebCore18SVGElementInstance13onbeforepasteEv@Base 2.2.0
 (optional=private|arch=s390x)_ZN7WebCore18SVGElementInstance13oncontextmenuEv@Base 2.2.0
 (optional=private|arch=s390x)_ZN7WebCore18SVGElementInstance13onselectstartEv@Base 2.2.0
 (optional=private|arch=s390x)_ZN7WebCore18SVGElementInstance13setOndblclickEN3WTF10PassRefPtrINS_13EventListenerEEE@Base 2.2.0
 (optional=private|arch=s390x)_ZN7WebCore18SVGElementInstance13setOndragoverEN3WTF10PassRefPtrINS_13EventListenerEEE@Base 2.2.0
 (optional=private|arch=s390x)_ZN7WebCore18SVGElementInstance13setOnkeypressEN3WTF10PassRefPtrINS_13EventListenerEEE@Base 2.2.0
 (optional=private|arch=s390x)_ZN7WebCore18SVGElementInstance13setOnmouseoutEN3WTF10PassRefPtrINS_13EventListenerEEE@Base 2.2.0
 (optional=private|arch=s390x)_ZN7WebCore18SVGElementInstance14setOnbeforecutEN3WTF10PassRefPtrINS_13EventListenerEEE@Base 2.2.0
 (optional=private|arch=s390x)_ZN7WebCore18SVGElementInstance14setOndragenterEN3WTF10PassRefPtrINS_13EventListenerEEE@Base 2.2.0
 (optional=private|arch=s390x)_ZN7WebCore18SVGElementInstance14setOndragleaveEN3WTF10PassRefPtrINS_13EventListenerEEE@Base 2.2.0
 (optional=private|arch=s390x)_ZN7WebCore18SVGElementInstance14setOndragstartEN3WTF10PassRefPtrINS_13EventListenerEEE@Base 2.2.0
 (optional=private|arch=s390x)_ZN7WebCore18SVGElementInstance14setOnmousedownEN3WTF10PassRefPtrINS_13EventListenerEEE@Base 2.2.0
 (optional=private|arch=s390x)_ZN7WebCore18SVGElementInstance14setOnmousemoveEN3WTF10PassRefPtrINS_13EventListenerEEE@Base 2.2.0
 (optional=private|arch=s390x)_ZN7WebCore18SVGElementInstance14setOnmouseoverEN3WTF10PassRefPtrINS_13EventListenerEEE@Base 2.2.0
 (optional=private|arch=s390x)_ZN7WebCore18SVGElementInstance15setOnbeforecopyEN3WTF10PassRefPtrINS_13EventListenerEEE@Base 2.2.0
 (optional=private|arch=s390x)_ZN7WebCore18SVGElementInstance15setOnmousewheelEN3WTF10PassRefPtrINS_13EventListenerEEE@Base 2.2.0
 (optional=private|arch=s390x)_ZN7WebCore18SVGElementInstance16setOnbeforepasteEN3WTF10PassRefPtrINS_13EventListenerEEE@Base 2.2.0
 (optional=private|arch=s390x)_ZN7WebCore18SVGElementInstance16setOncontextmenuEN3WTF10PassRefPtrINS_13EventListenerEEE@Base 2.2.0
 (optional=private|arch=s390x)_ZN7WebCore18SVGElementInstance16setOnselectstartEN3WTF10PassRefPtrINS_13EventListenerEEE@Base 2.2.0
 (optional=private|arch=s390x)_ZN7WebCore18SVGElementInstance5oncutEv@Base 2.2.0
 (optional=private|arch=s390x)_ZN7WebCore18SVGElementInstance6onblurEv@Base 2.2.0
 (optional=private|arch=s390x)_ZN7WebCore18SVGElementInstance6oncopyEv@Base 2.2.0
 (optional=private|arch=s390x)_ZN7WebCore18SVGElementInstance6ondragEv@Base 2.2.0
 (optional=private|arch=s390x)_ZN7WebCore18SVGElementInstance6ondropEv@Base 2.2.0
 (optional=private|arch=s390x)_ZN7WebCore18SVGElementInstance6onloadEv@Base 2.2.0
 (optional=private|arch=s390x)_ZN7WebCore18SVGElementInstance7onabortEv@Base 2.2.0
 (optional=private|arch=s390x)_ZN7WebCore18SVGElementInstance7onclickEv@Base 2.2.0
 (optional=private|arch=s390x)_ZN7WebCore18SVGElementInstance7onerrorEv@Base 2.2.0
 (optional=private|arch=s390x)_ZN7WebCore18SVGElementInstance7onfocusEv@Base 2.2.0
 (optional=private|arch=s390x)_ZN7WebCore18SVGElementInstance7oninputEv@Base 2.2.0
 (optional=private|arch=s390x)_ZN7WebCore18SVGElementInstance7onkeyupEv@Base 2.2.0
 (optional=private|arch=s390x)_ZN7WebCore18SVGElementInstance7onpasteEv@Base 2.2.0
 (optional=private|arch=s390x)_ZN7WebCore18SVGElementInstance7onresetEv@Base 2.2.0
 (optional=private|arch=s390x)_ZN7WebCore18SVGElementInstance8onchangeEv@Base 2.2.0
 (optional=private|arch=s390x)_ZN7WebCore18SVGElementInstance8onresizeEv@Base 2.2.0
 (optional=private|arch=s390x)_ZN7WebCore18SVGElementInstance8onscrollEv@Base 2.2.0
 (optional=private|arch=s390x)_ZN7WebCore18SVGElementInstance8onsearchEv@Base 2.2.0
 (optional=private|arch=s390x)_ZN7WebCore18SVGElementInstance8onselectEv@Base 2.2.0
 (optional=private|arch=s390x)_ZN7WebCore18SVGElementInstance8onsubmitEv@Base 2.2.0
 (optional=private|arch=s390x)_ZN7WebCore18SVGElementInstance8onunloadEv@Base 2.2.0
 (optional=private|arch=s390x)_ZN7WebCore18SVGElementInstance8setOncutEN3WTF10PassRefPtrINS_13EventListenerEEE@Base 2.2.0
 (optional=private|arch=s390x)_ZN7WebCore18SVGElementInstance9ondragendEv@Base 2.2.0
 (optional=private|arch=s390x)_ZN7WebCore18SVGElementInstance9onkeydownEv@Base 2.2.0
 (optional=private|arch=s390x)_ZN7WebCore18SVGElementInstance9onmouseupEv@Base 2.2.0
 (optional=private|arch=s390x)_ZN7WebCore18SVGElementInstance9setOnblurEN3WTF10PassRefPtrINS_13EventListenerEEE@Base 2.2.0
 (optional=private|arch=s390x)_ZN7WebCore18SVGElementInstance9setOncopyEN3WTF10PassRefPtrINS_13EventListenerEEE@Base 2.2.0
 (optional=private|arch=s390x)_ZN7WebCore18SVGElementInstance9setOndragEN3WTF10PassRefPtrINS_13EventListenerEEE@Base 2.2.0
 (optional=private|arch=s390x)_ZN7WebCore18SVGElementInstance9setOndropEN3WTF10PassRefPtrINS_13EventListenerEEE@Base 2.2.0
 (optional=private|arch=s390x)_ZN7WebCore18SVGElementInstance9setOnloadEN3WTF10PassRefPtrINS_13EventListenerEEE@Base 2.2.0
 (optional=templinst|arch=s390x)_ZN7WebCore18SVGPropertyTearOffINS_10FloatPointEE6createEPNS_19SVGAnimatedPropertyENS_15SVGPropertyRoleERS1_@Base 2.2.0
 (optional=templinst|arch=s390x)_ZN7WebCore18SVGPropertyTearOffINS_10FloatPointEEC1EPNS_19SVGAnimatedPropertyENS_15SVGPropertyRoleERS1_@Base 2.2.0
 (optional=templinst|arch=s390x)_ZN7WebCore18SVGPropertyTearOffINS_10FloatPointEEC2EPNS_19SVGAnimatedPropertyENS_15SVGPropertyRoleERS1_@Base 2.2.0
 (optional=templinst|arch=s390x)_ZN7WebCore18SVGPropertyTearOffINS_12SVGTransformEE17propertyReferenceEv@Base 2.2.0
 (optional=templinst|arch=s390x)_ZN7WebCore18SVGPropertyTearOffINS_12SVGTransformEE19setAnimatedPropertyEPNS_19SVGAnimatedPropertyE@Base 2.2.0
 (optional=templinst|arch=s390x)_ZN7WebCore18SVGPropertyTearOffINS_12SVGTransformEE6createEPNS_19SVGAnimatedPropertyENS_15SVGPropertyRoleERS1_@Base 2.2.0
 (optional=templinst|arch=hurd-i386 i386 kfreebsd-i386 s390x)_ZN7WebCore18SVGPropertyTearOffINS_12SVGTransformEE6createERKS1_@Base 2.2.0
 (optional=templinst|arch=s390x)_ZN7WebCore18SVGPropertyTearOffINS_12SVGTransformEE8setValueERS1_@Base 2.2.0
 (optional=templinst|arch=s390x)_ZN7WebCore18SVGPropertyTearOffINS_12SVGTransformEEC1EPNS_19SVGAnimatedPropertyENS_15SVGPropertyRoleERS1_@Base 2.2.0
 (optional=templinst|arch=s390x)_ZN7WebCore18SVGPropertyTearOffINS_12SVGTransformEEC1ERKS1_@Base 2.2.0
 (optional=templinst|arch=s390x)_ZN7WebCore18SVGPropertyTearOffINS_12SVGTransformEEC2EPNS_19SVGAnimatedPropertyENS_15SVGPropertyRoleERS1_@Base 2.2.0
 (optional=templinst|arch=s390x)_ZN7WebCore18SVGPropertyTearOffINS_12SVGTransformEEC2ERKS1_@Base 2.2.0
 (optional=templinst|arch=s390x)_ZN7WebCore18SVGPropertyTearOffINS_22SVGPreserveAspectRatioEE17propertyReferenceEv@Base 2.2.0
 (optional=templinst|arch=s390x)_ZN7WebCore18SVGPropertyTearOffINS_22SVGPreserveAspectRatioEE6createEPNS_19SVGAnimatedPropertyENS_15SVGPropertyRoleERS1_@Base 2.2.0
 (optional=templinst|arch=s390x)_ZN7WebCore18SVGPropertyTearOffINS_22SVGPreserveAspectRatioEEC1EPNS_19SVGAnimatedPropertyENS_15SVGPropertyRoleERS1_@Base 2.2.0
 (optional=templinst|arch=s390x)_ZN7WebCore18SVGPropertyTearOffINS_22SVGPreserveAspectRatioEEC2EPNS_19SVGAnimatedPropertyENS_15SVGPropertyRoleERS1_@Base 2.2.0
 (optional=templinst|arch=s390x)_ZN7WebCore18SVGPropertyTearOffINS_8SVGAngleEE17propertyReferenceEv@Base 2.2.0
 (optional=templinst|arch=s390x)_ZN7WebCore18SVGPropertyTearOffINS_8SVGAngleEE6createEPNS_19SVGAnimatedPropertyENS_15SVGPropertyRoleERS1_@Base 2.2.0
 (optional=templinst|arch=s390x)_ZN7WebCore18SVGPropertyTearOffINS_8SVGAngleEE6createERKS1_@Base 2.2.0
 (optional=templinst|arch=s390x)_ZN7WebCore18SVGPropertyTearOffINS_8SVGAngleEEC1EPNS_19SVGAnimatedPropertyENS_15SVGPropertyRoleERS1_@Base 2.2.0
 (optional=templinst|arch=s390x)_ZN7WebCore18SVGPropertyTearOffINS_8SVGAngleEEC1ERKS1_@Base 2.2.0
 (optional=templinst|arch=s390x)_ZN7WebCore18SVGPropertyTearOffINS_8SVGAngleEEC2EPNS_19SVGAnimatedPropertyENS_15SVGPropertyRoleERS1_@Base 2.2.0
 (optional=templinst|arch=s390x)_ZN7WebCore18SVGPropertyTearOffINS_8SVGAngleEEC2ERKS1_@Base 2.2.0
 (optional=templinst|arch=s390x)_ZN7WebCore18SVGPropertyTearOffINS_9FloatRectEE17propertyReferenceEv@Base 2.2.0
 (optional=templinst|arch=s390x)_ZN7WebCore18SVGPropertyTearOffINS_9FloatRectEE6createEPNS_19SVGAnimatedPropertyENS_15SVGPropertyRoleERS1_@Base 2.2.0
 (optional=templinst|arch=s390x)_ZN7WebCore18SVGPropertyTearOffINS_9FloatRectEE6createERKS1_@Base 2.2.0
 (optional=templinst|arch=s390x)_ZN7WebCore18SVGPropertyTearOffINS_9FloatRectEEC1EPNS_19SVGAnimatedPropertyENS_15SVGPropertyRoleERS1_@Base 2.2.0
 (optional=templinst|arch=s390x)_ZN7WebCore18SVGPropertyTearOffINS_9FloatRectEEC1ERKS1_@Base 2.2.0
 (optional=templinst|arch=s390x)_ZN7WebCore18SVGPropertyTearOffINS_9FloatRectEEC2EPNS_19SVGAnimatedPropertyENS_15SVGPropertyRoleERS1_@Base 2.2.0
 (optional=templinst|arch=s390x)_ZN7WebCore18SVGPropertyTearOffINS_9FloatRectEEC2ERKS1_@Base 2.2.0
 (optional=templinst|arch=s390x)_ZN7WebCore18SVGPropertyTearOffINS_9SVGLengthEE19setAnimatedPropertyEPNS_19SVGAnimatedPropertyE@Base 2.2.0
 (optional=templinst|arch=s390x)_ZN7WebCore18SVGPropertyTearOffINS_9SVGLengthEE6createEPNS_19SVGAnimatedPropertyENS_15SVGPropertyRoleERS1_@Base 2.2.0
 (optional=templinst|arch=s390x)_ZN7WebCore18SVGPropertyTearOffINS_9SVGLengthEE6createERKS1_@Base 2.2.0
 (optional=templinst|arch=s390x)_ZN7WebCore18SVGPropertyTearOffINS_9SVGLengthEE8setValueERS1_@Base 2.2.0
 (optional=templinst|arch=s390x)_ZN7WebCore18SVGPropertyTearOffINS_9SVGLengthEEC1EPNS_19SVGAnimatedPropertyENS_15SVGPropertyRoleERS1_@Base 2.2.0
 (optional=templinst|arch=s390x)_ZN7WebCore18SVGPropertyTearOffINS_9SVGLengthEEC1ERKS1_@Base 2.2.0
 (optional=templinst|arch=s390x)_ZN7WebCore18SVGPropertyTearOffINS_9SVGLengthEEC2EPNS_19SVGAnimatedPropertyENS_15SVGPropertyRoleERS1_@Base 2.2.0
 (optional=templinst|arch=s390x)_ZN7WebCore18SVGPropertyTearOffINS_9SVGLengthEEC2ERKS1_@Base 2.2.0
 (optional=templinst|arch=s390x)_ZN7WebCore18SVGPropertyTearOffINS_9SVGMatrixEE17propertyReferenceEv@Base 2.2.0
 (optional=templinst|arch=!alpha !amd64 !armel !armhf !ia64 !kfreebsd-amd64 !mips !mipsel !powerpc !ppc64 !s390 !sparc !sparc64)_ZN7WebCore18SVGPropertyTearOffINS_9SVGMatrixEE6createERKS1_@Base 2.2.0
 (optional=templinst|arch=s390x)_ZN7WebCore18SVGPropertyTearOffINS_9SVGMatrixEEC1EPNS_19SVGAnimatedPropertyENS_15SVGPropertyRoleERS1_@Base 2.2.0
 (optional=templinst|arch=s390x)_ZN7WebCore18SVGPropertyTearOffINS_9SVGMatrixEEC1ERKS1_@Base 2.2.0
 (optional=templinst|arch=s390x)_ZN7WebCore18SVGPropertyTearOffINS_9SVGMatrixEEC2EPNS_19SVGAnimatedPropertyENS_15SVGPropertyRoleERS1_@Base 2.2.0
 (optional=templinst|arch=s390x)_ZN7WebCore18SVGPropertyTearOffINS_9SVGMatrixEEC2ERKS1_@Base 2.2.0
 (optional=templinst|arch=s390x)_ZN7WebCore18SVGPropertyTearOffIfE17propertyReferenceEv@Base 2.2.0
 (optional=templinst|arch=s390x)_ZN7WebCore18SVGPropertyTearOffIfE19setAnimatedPropertyEPNS_19SVGAnimatedPropertyE@Base 2.2.0
 (optional=templinst|arch=s390x)_ZN7WebCore18SVGPropertyTearOffIfE6createEPNS_19SVGAnimatedPropertyENS_15SVGPropertyRoleERf@Base 2.2.0
 (optional=templinst|arch=s390x)_ZN7WebCore18SVGPropertyTearOffIfE6createERKf@Base 2.2.0
 (optional=templinst|arch=s390x)_ZN7WebCore18SVGPropertyTearOffIfE8setValueERf@Base 2.2.0
 (optional=templinst|arch=s390x)_ZN7WebCore18SVGPropertyTearOffIfEC1EPNS_19SVGAnimatedPropertyENS_15SVGPropertyRoleERf@Base 2.2.0
 (optional=templinst|arch=s390x)_ZN7WebCore18SVGPropertyTearOffIfEC1ERKf@Base 2.2.0
 (optional=templinst|arch=s390x)_ZN7WebCore18SVGPropertyTearOffIfEC2EPNS_19SVGAnimatedPropertyENS_15SVGPropertyRoleERf@Base 2.2.0
 (optional=templinst|arch=s390x)_ZN7WebCore18SVGPropertyTearOffIfEC2ERKf@Base 2.2.0
 (optional=private|arch=s390x)_ZN7WebCore18SVGRenderingIntentD1Ev@Base 2.2.0
 (optional=private|arch=s390x)_ZN7WebCore18SVGRenderingIntentD2Ev@Base 2.2.0
 (optional=private|arch=s390x)_ZN7WebCore19BackForwardListImpl4pageEv@Base 2.2.0
 (optional=private|arch=s390x)_ZN7WebCore19ContextMenuClientQtC1Ev@Base 2.2.0
 (optional=private|arch=s390x)_ZN7WebCore19ContextMenuClientQtC2Ev@Base 2.2.0
 (optional=private|arch=s390x)_ZN7WebCore19DOMApplicationCache10oncheckingEv@Base 2.2.0
 (optional=private|arch=s390x)_ZN7WebCore19DOMApplicationCache10onnoupdateEv@Base 2.2.0
 (optional=private|arch=s390x)_ZN7WebCore19DOMApplicationCache10onobsoleteEv@Base 2.2.0
 (optional=private|arch=s390x)_ZN7WebCore19DOMApplicationCache10onprogressEv@Base 2.2.0
 (optional=private|arch=s390x)_ZN7WebCore19DOMApplicationCache10setOnerrorEN3WTF10PassRefPtrINS_13EventListenerEEE@Base 2.2.0
 (optional=private|arch=s390x)_ZN7WebCore19DOMApplicationCache11setOncachedEN3WTF10PassRefPtrINS_13EventListenerEEE@Base 2.2.0
 (optional=private|arch=s390x)_ZN7WebCore19DOMApplicationCache13ondownloadingEv@Base 2.2.0
 (optional=private|arch=s390x)_ZN7WebCore19DOMApplicationCache13onupdatereadyEv@Base 2.2.0
 (optional=private|arch=s390x)_ZN7WebCore19DOMApplicationCache13setOncheckingEN3WTF10PassRefPtrINS_13EventListenerEEE@Base 2.2.0
 (optional=private|arch=s390x)_ZN7WebCore19DOMApplicationCache13setOnnoupdateEN3WTF10PassRefPtrINS_13EventListenerEEE@Base 2.2.0
 (optional=private|arch=s390x)_ZN7WebCore19DOMApplicationCache13setOnobsoleteEN3WTF10PassRefPtrINS_13EventListenerEEE@Base 2.2.0
 (optional=private|arch=s390x)_ZN7WebCore19DOMApplicationCache13setOnprogressEN3WTF10PassRefPtrINS_13EventListenerEEE@Base 2.2.0
 (optional=private|arch=s390x)_ZN7WebCore19DOMApplicationCache16setOndownloadingEN3WTF10PassRefPtrINS_13EventListenerEEE@Base 2.2.0
 (optional=private|arch=s390x)_ZN7WebCore19DOMApplicationCache16setOnupdatereadyEN3WTF10PassRefPtrINS_13EventListenerEEE@Base 2.2.0
 (optional=private|arch=s390x)_ZN7WebCore19DOMApplicationCache7onerrorEv@Base 2.2.0
 (optional=private|arch=s390x)_ZN7WebCore19DOMApplicationCache8oncachedEv@Base 2.2.0
 (optional=private|arch=s390x)_ZN7WebCore19HTMLFrameSetElement10onpopstateEv@Base 2.2.0
 (optional=private|arch=s390x)_ZN7WebCore19HTMLFrameSetElement11setOnonlineEN3WTF10PassRefPtrINS_13EventListenerEEE@Base 2.2.0
 (optional=private|arch=s390x)_ZN7WebCore19HTMLFrameSetElement11setOnresizeEN3WTF10PassRefPtrINS_13EventListenerEEE@Base 2.2.0
 (optional=private|arch=s390x)_ZN7WebCore19HTMLFrameSetElement11setOnunloadEN3WTF10PassRefPtrINS_13EventListenerEEE@Base 2.2.0
 (optional=private|arch=s390x)_ZN7WebCore19HTMLFrameSetElement12onhashchangeEv@Base 2.2.0
 (optional=private|arch=s390x)_ZN7WebCore19HTMLFrameSetElement12setOnmessageEN3WTF10PassRefPtrINS_13EventListenerEEE@Base 2.2.0
 (optional=private|arch=s390x)_ZN7WebCore19HTMLFrameSetElement12setOnofflineEN3WTF10PassRefPtrINS_13EventListenerEEE@Base 2.2.0
 (optional=private|arch=s390x)_ZN7WebCore19HTMLFrameSetElement12setOnstorageEN3WTF10PassRefPtrINS_13EventListenerEEE@Base 2.2.0
 (optional=private|arch=s390x)_ZN7WebCore19HTMLFrameSetElement13setOnpopstateEN3WTF10PassRefPtrINS_13EventListenerEEE@Base 2.2.0
 (optional=private|arch=s390x)_ZN7WebCore19HTMLFrameSetElement14onbeforeunloadEv@Base 2.2.0
 (optional=private|arch=s390x)_ZN7WebCore19HTMLFrameSetElement15setOnhashchangeEN3WTF10PassRefPtrINS_13EventListenerEEE@Base 2.2.0
 (optional=private|arch=s390x)_ZN7WebCore19HTMLFrameSetElement17setOnbeforeunloadEN3WTF10PassRefPtrINS_13EventListenerEEE@Base 2.2.0
 (optional=private|arch=s390x)_ZN7WebCore19HTMLFrameSetElement8ononlineEv@Base 2.2.0
 (optional=private|arch=s390x)_ZN7WebCore19HTMLFrameSetElement8onresizeEv@Base 2.2.0
 (optional=private|arch=s390x)_ZN7WebCore19HTMLFrameSetElement8onunloadEv@Base 2.2.0
 (optional=private|arch=s390x)_ZN7WebCore19HTMLFrameSetElement9onmessageEv@Base 2.2.0
 (optional=private|arch=s390x)_ZN7WebCore19HTMLFrameSetElement9onofflineEv@Base 2.2.0
 (optional=private|arch=s390x)_ZN7WebCore19HTMLFrameSetElement9onstorageEv@Base 2.2.0
 (optional=private|arch=s390x)_ZN7WebCore19JSCSSValuePrototype15createStructureERN3JSC12JSGlobalDataENS1_7JSValueE@Base 2.2.0
 (optional=private|arch=s390x)_ZN7WebCore19JSCSSValuePrototypeC1ERN3JSC12JSGlobalDataEPNS1_14JSGlobalObjectEPNS1_9StructureE@Base 2.2.0
 (optional=private|arch=s390x)_ZN7WebCore19JSCSSValuePrototypeC2ERN3JSC12JSGlobalDataEPNS1_14JSGlobalObjectEPNS1_9StructureE@Base 2.2.0
 (optional=private|arch=s390x)_ZN7WebCore19JSDOMImplementation15createStructureERN3JSC12JSGlobalDataENS1_7JSValueE@Base 2.2.0
 (optional=private|arch=s390x)_ZN7WebCore19JSDOMSelectionOwnerC1Ev@Base 2.2.0
 (optional=private|arch=s390x)_ZN7WebCore19JSDOMSelectionOwnerC2Ev@Base 2.2.0
 (optional=private|arch=s390x)_ZN7WebCore19JSDOMStringMapOwnerC1Ev@Base 2.2.0
 (optional=private|arch=s390x)_ZN7WebCore19JSDOMStringMapOwnerC2Ev@Base 2.2.0
 (optional=private|arch=s390x)_ZN7WebCore19JSDOMTokenListOwnerC1Ev@Base 2.2.0
 (optional=private|arch=s390x)_ZN7WebCore19JSDOMTokenListOwnerC2Ev@Base 2.2.0
 (optional=private|arch=s390x)_ZN7WebCore19JSDataViewPrototype15createStructureERN3JSC12JSGlobalDataENS1_7JSValueE@Base 2.2.0
 (optional=private|arch=s390x)_ZN7WebCore19JSDataViewPrototypeC1ERN3JSC12JSGlobalDataEPNS1_14JSGlobalObjectEPNS1_9StructureE@Base 2.2.0
 (optional=private|arch=s390x)_ZN7WebCore19JSDataViewPrototypeC2ERN3JSC12JSGlobalDataEPNS1_14JSGlobalObjectEPNS1_9StructureE@Base 2.2.0
 (optional=private|arch=s390x)_ZN7WebCore19JSDatabasePrototype15createStructureERN3JSC12JSGlobalDataENS1_7JSValueE@Base 2.2.0
 (optional=private|arch=s390x)_ZN7WebCore19JSDatabasePrototypeC1ERN3JSC12JSGlobalDataEPNS1_14JSGlobalObjectEPNS1_9StructureE@Base 2.2.0
 (optional=private|arch=s390x)_ZN7WebCore19JSDatabasePrototypeC2ERN3JSC12JSGlobalDataEPNS1_14JSGlobalObjectEPNS1_9StructureE@Base 2.2.0
 (optional=private|arch=s390x)_ZN7WebCore19JSDocumentPrototype15createStructureERN3JSC12JSGlobalDataENS1_7JSValueE@Base 2.2.0
 (optional=private|arch=s390x)_ZN7WebCore19JSDocumentPrototypeC1ERN3JSC12JSGlobalDataEPNS1_14JSGlobalObjectEPNS1_9StructureE@Base 2.2.0
 (optional=private|arch=s390x)_ZN7WebCore19JSDocumentPrototypeC2ERN3JSC12JSGlobalDataEPNS1_14JSGlobalObjectEPNS1_9StructureE@Base 2.2.0
 (optional=private|arch=s390x)_ZN7WebCore19JSEntityConstructor15createStructureERN3JSC12JSGlobalDataENS1_7JSValueE@Base 2.2.0
 (optional=private|arch=s390x)_ZN7WebCore19JSFileListPrototype15createStructureERN3JSC12JSGlobalDataENS1_7JSValueE@Base 2.2.0
 (optional=private|arch=s390x)_ZN7WebCore19JSFileListPrototypeC1ERN3JSC12JSGlobalDataEPNS1_14JSGlobalObjectEPNS1_9StructureE@Base 2.2.0
 (optional=private|arch=s390x)_ZN7WebCore19JSFileListPrototypeC2ERN3JSC12JSGlobalDataEPNS1_14JSGlobalObjectEPNS1_9StructureE@Base 2.2.0
 (optional=private|arch=s390x)_ZN7WebCore19JSHTMLAnchorElement15createStructureERN3JSC12JSGlobalDataENS1_7JSValueE@Base 2.2.0
 (optional=private|arch=s390x)_ZN7WebCore19JSHTMLAppletElement15createStructureERN3JSC12JSGlobalDataENS1_7JSValueE@Base 2.2.0
 (optional=private|arch=s390x)_ZN7WebCore19JSHTMLButtonElement15createStructureERN3JSC12JSGlobalDataENS1_7JSValueE@Base 2.2.0
 (optional=private|arch=s390x)_ZN7WebCore19JSHTMLCanvasElement15createStructureERN3JSC12JSGlobalDataENS1_7JSValueE@Base 2.2.0
 (optional=private|arch=s390x)_ZN7WebCore19JSHTMLIFrameElement15createStructureERN3JSC12JSGlobalDataENS1_7JSValueE@Base 2.2.0
 (optional=private|arch=s390x)_ZN7WebCore19JSHTMLKeygenElement15createStructureERN3JSC12JSGlobalDataENS1_7JSValueE@Base 2.2.0
 (optional=private|arch=s390x)_ZN7WebCore19JSHTMLLegendElement15createStructureERN3JSC12JSGlobalDataENS1_7JSValueE@Base 2.2.0
 (optional=private|arch=s390x)_ZN7WebCore19JSHTMLObjectElement15createStructureERN3JSC12JSGlobalDataENS1_7JSValueE@Base 2.2.0
 (optional=private|arch=s390x)_ZN7WebCore19JSHTMLOptionElement15createStructureERN3JSC12JSGlobalDataENS1_7JSValueE@Base 2.2.0
 (optional=private|arch=s390x)_ZN7WebCore19JSHTMLOutputElement15createStructureERN3JSC12JSGlobalDataENS1_7JSValueE@Base 2.2.0
 (optional=private|arch=s390x)_ZN7WebCore19JSHTMLScriptElement15createStructureERN3JSC12JSGlobalDataENS1_7JSValueE@Base 2.2.0
 (optional=private|arch=s390x)_ZN7WebCore19JSHTMLSelectElement15createStructureERN3JSC12JSGlobalDataENS1_7JSValueE@Base 2.2.0
 (optional=private|arch=s390x)_ZN7WebCore19JSHTMLSourceElement15createStructureERN3JSC12JSGlobalDataENS1_7JSValueE@Base 2.2.0
 (optional=private|arch=s390x)_ZN7WebCore19JSLocationPrototype15createStructureERN3JSC12JSGlobalDataENS1_7JSValueE@Base 2.2.0
 (optional=private|arch=s390x)_ZN7WebCore19JSLocationPrototypeC1ERN3JSC12JSGlobalDataEPNS1_14JSGlobalObjectEPNS1_9StructureE@Base 2.2.0
 (optional=private|arch=s390x)_ZN7WebCore19JSLocationPrototypeC2ERN3JSC12JSGlobalDataEPNS1_14JSGlobalObjectEPNS1_9StructureE@Base 2.2.0
 (optional=private|arch=s390x)_ZN7WebCore19JSNamedNodeMapOwnerC1Ev@Base 2.2.0
 (optional=private|arch=s390x)_ZN7WebCore19JSNamedNodeMapOwnerC2Ev@Base 2.2.0
 (optional=private|arch=s390x)_ZN7WebCore19JSNodeListPrototype15createStructureERN3JSC12JSGlobalDataENS1_7JSValueE@Base 2.2.0
 (optional=private|arch=s390x)_ZN7WebCore19JSNodeListPrototypeC1ERN3JSC12JSGlobalDataEPNS1_14JSGlobalObjectEPNS1_9StructureE@Base 2.2.0
 (optional=private|arch=s390x)_ZN7WebCore19JSNodeListPrototypeC2ERN3JSC12JSGlobalDataEPNS1_14JSGlobalObjectEPNS1_9StructureE@Base 2.2.0
 (optional=private|arch=s390x)_ZN7WebCore19JSNotationPrototype15createStructureERN3JSC12JSGlobalDataENS1_7JSValueE@Base 2.2.0
 (optional=private|arch=s390x)_ZN7WebCore19JSNotationPrototypeC1ERN3JSC12JSGlobalDataEPNS1_14JSGlobalObjectEPNS1_9StructureE@Base 2.2.0
 (optional=private|arch=s390x)_ZN7WebCore19JSNotationPrototypeC2ERN3JSC12JSGlobalDataEPNS1_14JSGlobalObjectEPNS1_9StructureE@Base 2.2.0
 (optional=private|arch=s390x)_ZN7WebCore19JSNotificationOwnerC1Ev@Base 2.2.0
 (optional=private|arch=s390x)_ZN7WebCore19JSNotificationOwnerC2Ev@Base 2.2.0
 (optional=private|arch=s390x)_ZN7WebCore19JSRGBColorPrototype15createStructureERN3JSC12JSGlobalDataENS1_7JSValueE@Base 2.2.0
 (optional=private|arch=s390x)_ZN7WebCore19JSRGBColorPrototypeC1ERN3JSC12JSGlobalDataEPNS1_14JSGlobalObjectEPNS1_9StructureE@Base 2.2.0
 (optional=private|arch=s390x)_ZN7WebCore19JSRGBColorPrototypeC2ERN3JSC12JSGlobalDataEPNS1_14JSGlobalObjectEPNS1_9StructureE@Base 2.2.0
 (optional=private|arch=s390x)_ZN7WebCore19JSSQLErrorPrototype15createStructureERN3JSC12JSGlobalDataENS1_7JSValueE@Base 2.2.0
 (optional=private|arch=s390x)_ZN7WebCore19JSSQLErrorPrototypeC1ERN3JSC12JSGlobalDataEPNS1_14JSGlobalObjectEPNS1_9StructureE@Base 2.2.0
 (optional=private|arch=s390x)_ZN7WebCore19JSSQLErrorPrototypeC2ERN3JSC12JSGlobalDataEPNS1_14JSGlobalObjectEPNS1_9StructureE@Base 2.2.0
 (optional=private|arch=s390x)_ZN7WebCore19JSSVGAnglePrototype15createStructureERN3JSC12JSGlobalDataENS1_7JSValueE@Base 2.2.0
 (optional=private|arch=s390x)_ZN7WebCore19JSSVGAnglePrototypeC1ERN3JSC12JSGlobalDataEPNS1_14JSGlobalObjectEPNS1_9StructureE@Base 2.2.0
 (optional=private|arch=s390x)_ZN7WebCore19JSSVGAnglePrototypeC2ERN3JSC12JSGlobalDataEPNS1_14JSGlobalObjectEPNS1_9StructureE@Base 2.2.0
 (optional=private|arch=s390x)_ZN7WebCore19JSSVGAnimateElement15createStructureERN3JSC12JSGlobalDataENS1_7JSValueE@Base 2.2.0
 (optional=private|arch=s390x)_ZN7WebCore19JSSVGAnimatedLength15createStructureERN3JSC12JSGlobalDataENS1_7JSValueE@Base 2.2.0
 (optional=private|arch=s390x)_ZN7WebCore19JSSVGAnimatedNumber15createStructureERN3JSC12JSGlobalDataENS1_7JSValueE@Base 2.2.0
 (optional=private|arch=s390x)_ZN7WebCore19JSSVGAnimatedString15createStructureERN3JSC12JSGlobalDataENS1_7JSValueE@Base 2.2.0
 (optional=private|arch=s390x)_ZN7WebCore19JSSVGColorPrototype15createStructureERN3JSC12JSGlobalDataENS1_7JSValueE@Base 2.2.0
 (optional=private|arch=s390x)_ZN7WebCore19JSSVGColorPrototypeC1ERN3JSC12JSGlobalDataEPNS1_14JSGlobalObjectEPNS1_9StructureE@Base 2.2.0
 (optional=private|arch=s390x)_ZN7WebCore19JSSVGColorPrototypeC2ERN3JSC12JSGlobalDataEPNS1_14JSGlobalObjectEPNS1_9StructureE@Base 2.2.0
 (optional=private|arch=s390x)_ZN7WebCore19JSSVGEllipseElement15createStructureERN3JSC12JSGlobalDataENS1_7JSValueE@Base 2.2.0
 (optional=private|arch=s390x)_ZN7WebCore19JSSVGFEBlendElement15createStructureERN3JSC12JSGlobalDataENS1_7JSValueE@Base 2.2.0
 (optional=private|arch=s390x)_ZN7WebCore19JSSVGFEFloodElement15createStructureERN3JSC12JSGlobalDataENS1_7JSValueE@Base 2.2.0
 (optional=private|arch=s390x)_ZN7WebCore19JSSVGFEFuncAElement15createStructureERN3JSC12JSGlobalDataENS1_7JSValueE@Base 2.2.0
 (optional=private|arch=s390x)_ZN7WebCore19JSSVGFEFuncBElement15createStructureERN3JSC12JSGlobalDataENS1_7JSValueE@Base 2.2.0
 (optional=private|arch=s390x)_ZN7WebCore19JSSVGFEFuncGElement15createStructureERN3JSC12JSGlobalDataENS1_7JSValueE@Base 2.2.0
 (optional=private|arch=s390x)_ZN7WebCore19JSSVGFEFuncRElement15createStructureERN3JSC12JSGlobalDataENS1_7JSValueE@Base 2.2.0
 (optional=private|arch=s390x)_ZN7WebCore19JSSVGFEImageElement15createStructureERN3JSC12JSGlobalDataENS1_7JSValueE@Base 2.2.0
 (optional=private|arch=s390x)_ZN7WebCore19JSSVGFEMergeElement15createStructureERN3JSC12JSGlobalDataENS1_7JSValueE@Base 2.2.0
 (optional=private|arch=s390x)_ZN7WebCore19JSSVGPaintPrototype15createStructureERN3JSC12JSGlobalDataENS1_7JSValueE@Base 2.2.0
 (optional=private|arch=s390x)_ZN7WebCore19JSSVGPaintPrototypeC1ERN3JSC12JSGlobalDataEPNS1_14JSGlobalObjectEPNS1_9StructureE@Base 2.2.0
 (optional=private|arch=s390x)_ZN7WebCore19JSSVGPaintPrototypeC2ERN3JSC12JSGlobalDataEPNS1_14JSGlobalObjectEPNS1_9StructureE@Base 2.2.0
 (optional=private|arch=s390x)_ZN7WebCore19JSSVGPatternElement15createStructureERN3JSC12JSGlobalDataENS1_7JSValueE@Base 2.2.0
 (optional=private|arch=s390x)_ZN7WebCore19JSSVGPointPrototype15createStructureERN3JSC12JSGlobalDataENS1_7JSValueE@Base 2.2.0
 (optional=private|arch=s390x)_ZN7WebCore19JSSVGPointPrototypeC1ERN3JSC12JSGlobalDataEPNS1_14JSGlobalObjectEPNS1_9StructureE@Base 2.2.0
 (optional=private|arch=s390x)_ZN7WebCore19JSSVGPointPrototypeC2ERN3JSC12JSGlobalDataEPNS1_14JSGlobalObjectEPNS1_9StructureE@Base 2.2.0
 (optional=private|arch=s390x)_ZN7WebCore19JSSVGPolygonElement15createStructureERN3JSC12JSGlobalDataENS1_7JSValueE@Base 2.2.0
 (optional=private|arch=s390x)_ZN7WebCore19JSScriptProfileNode15createStructureERN3JSC12JSGlobalDataENS1_7JSValueE@Base 2.2.0
 (optional=private|arch=s390x)_ZN7WebCore19JSSharedWorkerOwnerC1Ev@Base 2.2.0
 (optional=private|arch=s390x)_ZN7WebCore19JSSharedWorkerOwnerC2Ev@Base 2.2.0
 (optional=private|arch=s390x)_ZN7WebCore19JSWebKitBlobBuilder15createStructureERN3JSC12JSGlobalDataENS1_7JSValueE@Base 2.2.0
 (optional=private|arch=s390x)_ZN7WebCore19SharedWorkerContext12setOnconnectEN3WTF10PassRefPtrINS_13EventListenerEEE@Base 2.2.0
 (optional=private|arch=s390x)_ZN7WebCore19SharedWorkerContext9onconnectEv@Base 2.2.0
 (optional=private|arch=s390x)_ZN7WebCore19VisitedLinkStrategyC1Ev@Base 2.2.0
 (optional=private|arch=s390x)_ZN7WebCore19VisitedLinkStrategyC2Ev@Base 2.2.0
 (optional=private|arch=s390x)_ZN7WebCore20CSSPropertyNamesHash21propery_hash_functionEPKcj@Base 2.2.0
 (optional=private|arch=s390x)_ZN7WebCore20CSSValueKeywordsHash19value_hash_functionEPKcj@Base 2.2.0
 (optional=private|arch=s390x)_ZN7WebCore20CompositionUnderlineC1EjjRKNS_5ColorEb@Base 2.2.0
 (optional=private|arch=s390x)_ZN7WebCore20CompositionUnderlineC2EjjRKNS_5ColorEb@Base 2.2.0
 (optional=private|arch=s390x)_ZN7WebCore20JSBeforeProcessEvent15createStructureERN3JSC12JSGlobalDataENS1_7JSValueE@Base 2.2.0
 (optional=private|arch=s390x)_ZN7WebCore20JSCSSRuleConstructor15createStructureERN3JSC12JSGlobalDataENS1_7JSValueE@Base 2.2.0
 (optional=private|arch=s390x)_ZN7WebCore20JSClipboardPrototype15createStructureERN3JSC12JSGlobalDataENS1_7JSValueE@Base 2.2.0
 (optional=private|arch=s390x)_ZN7WebCore20JSClipboardPrototypeC1ERN3JSC12JSGlobalDataEPNS1_14JSGlobalObjectEPNS1_9StructureE@Base 2.2.0
 (optional=private|arch=s390x)_ZN7WebCore20JSClipboardPrototypeC2ERN3JSC12JSGlobalDataEPNS1_14JSGlobalObjectEPNS1_9StructureE@Base 2.2.0
 (optional=private|arch=s390x)_ZN7WebCore20JSCommentConstructor15createStructureERN3JSC12JSGlobalDataENS1_7JSValueE@Base 2.2.0
 (optional=private|arch=s390x)_ZN7WebCore20JSCounterConstructor15createStructureERN3JSC12JSGlobalDataENS1_7JSValueE@Base 2.2.0
 (optional=private|arch=s390x)_ZN7WebCore20JSDOMParserPrototype15createStructureERN3JSC12JSGlobalDataENS1_7JSValueE@Base 2.2.0
 (optional=private|arch=s390x)_ZN7WebCore20JSDOMParserPrototypeC1ERN3JSC12JSGlobalDataEPNS1_14JSGlobalObjectEPNS1_9StructureE@Base 2.2.0
 (optional=private|arch=s390x)_ZN7WebCore20JSDOMParserPrototypeC2ERN3JSC12JSGlobalDataEPNS1_14JSGlobalObjectEPNS1_9StructureE@Base 2.2.0
 (optional=private|arch=s390x)_ZN7WebCore20JSDOMPluginPrototype15createStructureERN3JSC12JSGlobalDataENS1_7JSValueE@Base 2.2.0
 (optional=private|arch=s390x)_ZN7WebCore20JSDOMPluginPrototypeC1ERN3JSC12JSGlobalDataEPNS1_14JSGlobalObjectEPNS1_9StructureE@Base 2.2.0
 (optional=private|arch=s390x)_ZN7WebCore20JSDOMPluginPrototypeC2ERN3JSC12JSGlobalDataEPNS1_14JSGlobalObjectEPNS1_9StructureE@Base 2.2.0
 (optional=private|arch=s390x)_ZN7WebCore20JSElementConstructor15createStructureERN3JSC12JSGlobalDataENS1_7JSValueE@Base 2.2.0
 (optional=private|arch=s390x)_ZN7WebCore20JSFileErrorPrototype15createStructureERN3JSC12JSGlobalDataENS1_7JSValueE@Base 2.2.0
 (optional=private|arch=s390x)_ZN7WebCore20JSFileErrorPrototypeC1ERN3JSC12JSGlobalDataEPNS1_14JSGlobalObjectEPNS1_9StructureE@Base 2.2.0
 (optional=private|arch=s390x)_ZN7WebCore20JSFileErrorPrototypeC2ERN3JSC12JSGlobalDataEPNS1_14JSGlobalObjectEPNS1_9StructureE@Base 2.2.0
 (optional=private|arch=s390x)_ZN7WebCore20JSHTMLDetailsElement15createStructureERN3JSC12JSGlobalDataENS1_7JSValueE@Base 2.2.0
 (optional=private|arch=s390x)_ZN7WebCore20JSHTMLHeadingElement15createStructureERN3JSC12JSGlobalDataENS1_7JSValueE@Base 2.2.0
 (optional=private|arch=s390x)_ZN7WebCore20JSHTMLIsIndexElement15createStructureERN3JSC12JSGlobalDataENS1_7JSValueE@Base 2.2.0
 (optional=private|arch=s390x)_ZN7WebCore20JSHTMLMarqueeElement15createStructureERN3JSC12JSGlobalDataENS1_7JSValueE@Base 2.2.0
 (optional=private|arch=s390x)_ZN7WebCore20JSImageDataPrototype15createStructureERN3JSC12JSGlobalDataENS1_7JSValueE@Base 2.2.0
 (optional=private|arch=s390x)_ZN7WebCore20JSImageDataPrototypeC1ERN3JSC12JSGlobalDataEPNS1_14JSGlobalObjectEPNS1_9StructureE@Base 2.2.0
 (optional=private|arch=s390x)_ZN7WebCore20JSImageDataPrototypeC2ERN3JSC12JSGlobalDataEPNS1_14JSGlobalObjectEPNS1_9StructureE@Base 2.2.0
 (optional=private|arch=s390x)_ZN7WebCore20JSInjectedScriptHost15createStructureERN3JSC12JSGlobalDataENS1_7JSValueE@Base 2.2.0
 (optional=private|arch=s390x)_ZN7WebCore20JSInt8ArrayPrototype15createStructureERN3JSC12JSGlobalDataENS1_7JSValueE@Base 2.2.0
 (optional=private|arch=s390x)_ZN7WebCore20JSInt8ArrayPrototypeC1ERN3JSC12JSGlobalDataEPNS1_14JSGlobalObjectEPNS1_9StructureE@Base 2.2.0
 (optional=private|arch=s390x)_ZN7WebCore20JSInt8ArrayPrototypeC2ERN3JSC12JSGlobalDataEPNS1_14JSGlobalObjectEPNS1_9StructureE@Base 2.2.0
 (optional=private|arch=s390x)_ZN7WebCore20JSInternalsPrototype15createStructureERN3JSC12JSGlobalDataENS1_7JSValueE@Base 2.2.0
 (optional=private|arch=s390x)_ZN7WebCore20JSInternalsPrototypeC1ERN3JSC12JSGlobalDataEPNS1_14JSGlobalObjectEPNS1_9StructureE@Base 2.2.0
 (optional=private|arch=s390x)_ZN7WebCore20JSInternalsPrototypeC2ERN3JSC12JSGlobalDataEPNS1_14JSGlobalObjectEPNS1_9StructureE@Base 2.2.0
 (optional=private|arch=s390x)_ZN7WebCore20JSMediaListPrototype15createStructureERN3JSC12JSGlobalDataENS1_7JSValueE@Base 2.2.0
 (optional=private|arch=s390x)_ZN7WebCore20JSMediaListPrototypeC1ERN3JSC12JSGlobalDataEPNS1_14JSGlobalObjectEPNS1_9StructureE@Base 2.2.0
 (optional=private|arch=s390x)_ZN7WebCore20JSMediaListPrototypeC2ERN3JSC12JSGlobalDataEPNS1_14JSGlobalObjectEPNS1_9StructureE@Base 2.2.0
 (optional=private|arch=s390x)_ZN7WebCore20JSNavigatorPrototype15createStructureERN3JSC12JSGlobalDataENS1_7JSValueE@Base 2.2.0
 (optional=private|arch=s390x)_ZN7WebCore20JSNavigatorPrototypeC1ERN3JSC12JSGlobalDataEPNS1_14JSGlobalObjectEPNS1_9StructureE@Base 2.2.0
 (optional=private|arch=s390x)_ZN7WebCore20JSNavigatorPrototypeC2ERN3JSC12JSGlobalDataEPNS1_14JSGlobalObjectEPNS1_9StructureE@Base 2.2.0
 (optional=private|arch=s390x)_ZN7WebCore20JSNotificationCenter15createStructureERN3JSC12JSGlobalDataENS1_7JSValueE@Base 2.2.0
 (optional=private|arch=s390x)_ZN7WebCore20JSSQLTransactionSync15createStructureERN3JSC12JSGlobalDataENS1_7JSValueE@Base 2.2.0
 (optional=private|arch=s390x)_ZN7WebCore20JSSVGAltGlyphElement15createStructureERN3JSC12JSGlobalDataENS1_7JSValueE@Base 2.2.0
 (optional=private|arch=s390x)_ZN7WebCore20JSSVGAnimatedBoolean15createStructureERN3JSC12JSGlobalDataENS1_7JSValueE@Base 2.2.0
 (optional=private|arch=s390x)_ZN7WebCore20JSSVGAnimatedInteger15createStructureERN3JSC12JSGlobalDataENS1_7JSValueE@Base 2.2.0
 (optional=private|arch=s390x)_ZN7WebCore20JSSVGClipPathElement15createStructureERN3JSC12JSGlobalDataENS1_7JSValueE@Base 2.2.0
 (optional=private|arch=s390x)_ZN7WebCore20JSSVGElementInstance15createStructureERN3JSC12JSGlobalDataENS1_7JSValueE@Base 2.2.0
 (optional=private|arch=s390x)_ZN7WebCore20JSSVGFEOffsetElement15createStructureERN3JSC12JSGlobalDataENS1_7JSValueE@Base 2.2.0
 (optional=private|arch=s390x)_ZN7WebCore20JSSVGFontFaceElement15createStructureERN3JSC12JSGlobalDataENS1_7JSValueE@Base 2.2.0
 (optional=private|arch=s390x)_ZN7WebCore20JSSVGGradientElement15createStructureERN3JSC12JSGlobalDataENS1_7JSValueE@Base 2.2.0
 (optional=private|arch=s390x)_ZN7WebCore20JSSVGLengthPrototype15createStructureERN3JSC12JSGlobalDataENS1_7JSValueE@Base 2.2.0
 (optional=private|arch=s390x)_ZN7WebCore20JSSVGLengthPrototypeC1ERN3JSC12JSGlobalDataEPNS1_14JSGlobalObjectEPNS1_9StructureE@Base 2.2.0
 (optional=private|arch=s390x)_ZN7WebCore20JSSVGLengthPrototypeC2ERN3JSC12JSGlobalDataEPNS1_14JSGlobalObjectEPNS1_9StructureE@Base 2.2.0
 (optional=private|arch=s390x)_ZN7WebCore20JSSVGMatrixPrototype15createStructureERN3JSC12JSGlobalDataENS1_7JSValueE@Base 2.2.0
 (optional=private|arch=s390x)_ZN7WebCore20JSSVGMatrixPrototypeC1ERN3JSC12JSGlobalDataEPNS1_14JSGlobalObjectEPNS1_9StructureE@Base 2.2.0
 (optional=private|arch=s390x)_ZN7WebCore20JSSVGMatrixPrototypeC2ERN3JSC12JSGlobalDataEPNS1_14JSGlobalObjectEPNS1_9StructureE@Base 2.2.0
 (optional=private|arch=s390x)_ZN7WebCore20JSSVGMetadataElement15createStructureERN3JSC12JSGlobalDataENS1_7JSValueE@Base 2.2.0
 (optional=private|arch=s390x)_ZN7WebCore20JSSVGNumberPrototype15createStructureERN3JSC12JSGlobalDataENS1_7JSValueE@Base 2.2.0
 (optional=private|arch=s390x)_ZN7WebCore20JSSVGNumberPrototypeC1ERN3JSC12JSGlobalDataEPNS1_14JSGlobalObjectEPNS1_9StructureE@Base 2.2.0
 (optional=private|arch=s390x)_ZN7WebCore20JSSVGNumberPrototypeC2ERN3JSC12JSGlobalDataEPNS1_14JSGlobalObjectEPNS1_9StructureE@Base 2.2.0
 (optional=private|arch=s390x)_ZN7WebCore20JSSVGPolylineElement15createStructureERN3JSC12JSGlobalDataENS1_7JSValueE@Base 2.2.0
 (optional=private|arch=s390x)_ZN7WebCore20JSSVGRectConstructor15createStructureERN3JSC12JSGlobalDataENS1_7JSValueE@Base 2.2.0
 (optional=private|arch=s390x)_ZN7WebCore20JSSVGRenderingIntent15createStructureERN3JSC12JSGlobalDataENS1_7JSValueE@Base 2.2.0
 (optional=private|arch=s390x)_ZN7WebCore20JSSVGTextPathElement15createStructureERN3JSC12JSGlobalDataENS1_7JSValueE@Base 2.2.0
 (optional=private|arch=s390x)_ZN7WebCore20JSStorageConstructor15createStructureERN3JSC12JSGlobalDataENS1_7JSValueE@Base 2.2.0
 (optional=private|arch=s390x)_ZN7WebCore20JSTextEventPrototype15createStructureERN3JSC12JSGlobalDataENS1_7JSValueE@Base 2.2.0
 (optional=private|arch=s390x)_ZN7WebCore20JSTextEventPrototypeC1ERN3JSC12JSGlobalDataEPNS1_14JSGlobalObjectEPNS1_9StructureE@Base 2.2.0
 (optional=private|arch=s390x)_ZN7WebCore20JSTextEventPrototypeC2ERN3JSC12JSGlobalDataEPNS1_14JSGlobalObjectEPNS1_9StructureE@Base 2.2.0
 (optional=private|arch=s390x)_ZN7WebCore20JSTouchListPrototype15createStructureERN3JSC12JSGlobalDataENS1_7JSValueE@Base 2.2.0
 (optional=private|arch=s390x)_ZN7WebCore20JSTouchListPrototypeC1ERN3JSC12JSGlobalDataEPNS1_14JSGlobalObjectEPNS1_9StructureE@Base 2.2.0
 (optional=private|arch=s390x)_ZN7WebCore20JSTouchListPrototypeC2ERN3JSC12JSGlobalDataEPNS1_14JSGlobalObjectEPNS1_9StructureE@Base 2.2.0
 (optional=private|arch=s390x)_ZN7WebCore20JSUIEventConstructor15createStructureERN3JSC12JSGlobalDataENS1_7JSValueE@Base 2.2.0
 (optional=private|arch=s390x)_ZN7WebCore20JSWebSocketPrototype15createStructureERN3JSC12JSGlobalDataENS1_7JSValueE@Base 2.2.0
 (optional=private|arch=s390x)_ZN7WebCore20JSWebSocketPrototypeC1ERN3JSC12JSGlobalDataEPNS1_14JSGlobalObjectEPNS1_9StructureE@Base 2.2.0
 (optional=private|arch=s390x)_ZN7WebCore20JSWebSocketPrototypeC2ERN3JSC12JSGlobalDataEPNS1_14JSGlobalObjectEPNS1_9StructureE@Base 2.2.0
 (optional=private|arch=s390x)_ZN7WebCore20NotificationContentsC1ERKNS_4KURLERKN3WTF6StringES7_@Base 2.2.0
 (optional=private|arch=s390x)_ZN7WebCore20NotificationContentsC2ERKNS_4KURLERKN3WTF6StringES7_@Base 2.2.0
 (optional=private|arch=s390x)_ZN7WebCore20QGraphicsItemOverlay33prepareGraphicsItemGeometryChangeEv@Base 2.2.0
 (optional=private|arch=s390x)_ZN7WebCore20QGraphicsItemOverlayC1EP15QGraphicsWidgetP8QWebPage@Base 2.2.0
 (optional=private|arch=s390x)_ZN7WebCore20QGraphicsItemOverlayC2EP15QGraphicsWidgetP8QWebPage@Base 2.2.0
 (optional=private|arch=s390x)_ZN7WebCore20TransformationMatrix4setAEd@Base 2.2.0
 (optional=private|arch=s390x)_ZN7WebCore20TransformationMatrix4setBEd@Base 2.2.0
 (optional=private|arch=s390x)_ZN7WebCore20TransformationMatrix4setCEd@Base 2.2.0
 (optional=private|arch=s390x)_ZN7WebCore20TransformationMatrix4setDEd@Base 2.2.0
 (optional=private|arch=s390x)_ZN7WebCore20TransformationMatrix4setEEd@Base 2.2.0
 (optional=private|arch=s390x)_ZN7WebCore20TransformationMatrix4setFEd@Base 2.2.0
 (optional=private|arch=s390x)_ZN7WebCore20TransformationMatrix6setM11Ed@Base 2.2.0
 (optional=private|arch=s390x)_ZN7WebCore20TransformationMatrix6setM12Ed@Base 2.2.0
 (optional=private|arch=s390x)_ZN7WebCore20TransformationMatrix6setM14Ed@Base 2.2.0
 (optional=private|arch=s390x)_ZN7WebCore20TransformationMatrix6setM22Ed@Base 2.2.0
 (optional=private|arch=s390x)_ZN7WebCore20TransformationMatrix6setM24Ed@Base 2.2.0
 (optional=private|arch=s390x)_ZN7WebCore20TransformationMatrix6setM41Ed@Base 2.2.0
 (optional=private|arch=s390x)_ZN7WebCore20TransformationMatrix6setM42Ed@Base 2.2.0
 (optional=private|arch=s390x)_ZN7WebCore20TransformationMatrix6setM44Ed@Base 2.2.0
 (optional=private|arch=s390x)_ZN7WebCore20XMLHttpRequestUpload10onprogressEv@Base 2.2.0
 (optional=private|arch=s390x)_ZN7WebCore20XMLHttpRequestUpload10setOnabortEN3WTF10PassRefPtrINS_13EventListenerEEE@Base 2.2.0
 (optional=private|arch=s390x)_ZN7WebCore20XMLHttpRequestUpload10setOnerrorEN3WTF10PassRefPtrINS_13EventListenerEEE@Base 2.2.0
 (optional=private|arch=s390x)_ZN7WebCore20XMLHttpRequestUpload11onloadstartEv@Base 2.2.0
 (optional=private|arch=s390x)_ZN7WebCore20XMLHttpRequestUpload13setOnprogressEN3WTF10PassRefPtrINS_13EventListenerEEE@Base 2.2.0
 (optional=private|arch=s390x)_ZN7WebCore20XMLHttpRequestUpload14setOnloadstartEN3WTF10PassRefPtrINS_13EventListenerEEE@Base 2.2.0
 (optional=private|arch=s390x)_ZN7WebCore20XMLHttpRequestUpload6onloadEv@Base 2.2.0
 (optional=private|arch=s390x)_ZN7WebCore20XMLHttpRequestUpload7onabortEv@Base 2.2.0
 (optional=private|arch=s390x)_ZN7WebCore20XMLHttpRequestUpload7onerrorEv@Base 2.2.0
 (optional=private|arch=s390x)_ZN7WebCore20XMLHttpRequestUpload9setOnloadEN3WTF10PassRefPtrINS_13EventListenerEEE@Base 2.2.0
 (optional=private|arch=s390x)_ZN7WebCore20createJSErrorHandlerEPN3JSC9ExecStateENS0_7JSValueEPNS0_8JSObjectE@Base 2.2.0
 (optional=private|arch=s390x)_ZN7WebCore21ContextMenuController16setHitTestResultERKNS_13HitTestResultE@Base 2.2.0
 (optional=private|arch=s390x)_ZN7WebCore21JSCSSStyleDeclaration15createStructureERN3JSC12JSGlobalDataENS1_7JSValueE@Base 2.2.0
 (optional=private|arch=s390x)_ZN7WebCore21JSCSSValueConstructor15createStructureERN3JSC12JSGlobalDataENS1_7JSValueE@Base 2.2.0
 (optional=private|arch=s390x)_ZN7WebCore21JSClientRectPrototype15createStructureERN3JSC12JSGlobalDataENS1_7JSValueE@Base 2.2.0
 (optional=private|arch=s390x)_ZN7WebCore21JSClientRectPrototypeC1ERN3JSC12JSGlobalDataEPNS1_14JSGlobalObjectEPNS1_9StructureE@Base 2.2.0
 (optional=private|arch=s390x)_ZN7WebCore21JSClientRectPrototypeC2ERN3JSC12JSGlobalDataEPNS1_14JSGlobalObjectEPNS1_9StructureE@Base 2.2.0
 (optional=private|arch=s390x)_ZN7WebCore21JSDOMApplicationCache15createStructureERN3JSC12JSGlobalDataENS1_7JSValueE@Base 2.2.0
 (optional=private|arch=s390x)_ZN7WebCore21JSDOMPluginArrayOwnerC1Ev@Base 2.2.0
 (optional=private|arch=s390x)_ZN7WebCore21JSDOMPluginArrayOwnerC2Ev@Base 2.2.0
 (optional=private|arch=s390x)_ZN7WebCore21JSDocumentConstructor15createStructureERN3JSC12JSGlobalDataENS1_7JSValueE@Base 2.2.0
 (optional=private|arch=s390x)_ZN7WebCore21JSErrorEventPrototype15createStructureERN3JSC12JSGlobalDataENS1_7JSValueE@Base 2.2.0
 (optional=private|arch=s390x)_ZN7WebCore21JSErrorEventPrototypeC1ERN3JSC12JSGlobalDataEPNS1_14JSGlobalObjectEPNS1_9StructureE@Base 2.2.0
 (optional=private|arch=s390x)_ZN7WebCore21JSErrorEventPrototypeC2ERN3JSC12JSGlobalDataEPNS1_14JSGlobalObjectEPNS1_9StructureE@Base 2.2.0
 (optional=private|arch=s390x)_ZN7WebCore21JSFileListConstructor15createStructureERN3JSC12JSGlobalDataENS1_7JSValueE@Base 2.2.0
 (optional=private|arch=s390x)_ZN7WebCore21JSFileReaderPrototype15createStructureERN3JSC12JSGlobalDataENS1_7JSValueE@Base 2.2.0
 (optional=private|arch=s390x)_ZN7WebCore21JSFileReaderPrototypeC1ERN3JSC12JSGlobalDataEPNS1_14JSGlobalObjectEPNS1_9StructureE@Base 2.2.0
 (optional=private|arch=s390x)_ZN7WebCore21JSFileReaderPrototypeC2ERN3JSC12JSGlobalDataEPNS1_14JSGlobalObjectEPNS1_9StructureE@Base 2.2.0
 (optional=private|arch=s390x)_ZN7WebCore21JSHTMLBaseFontElement15createStructureERN3JSC12JSGlobalDataENS1_7JSValueE@Base 2.2.0
 (optional=private|arch=s390x)_ZN7WebCore21JSHTMLDataListElement15createStructureERN3JSC12JSGlobalDataENS1_7JSValueE@Base 2.2.0
 (optional=private|arch=s390x)_ZN7WebCore21JSHTMLFieldSetElement15createStructureERN3JSC12JSGlobalDataENS1_7JSValueE@Base 2.2.0
 (optional=private|arch=s390x)_ZN7WebCore21JSHTMLFrameSetElement15createStructureERN3JSC12JSGlobalDataENS1_7JSValueE@Base 2.2.0
 (optional=private|arch=s390x)_ZN7WebCore21JSHTMLOptGroupElement15createStructureERN3JSC12JSGlobalDataENS1_7JSValueE@Base 2.2.0
 (optional=private|arch=s390x)_ZN7WebCore21JSHTMLProgressElement15createStructureERN3JSC12JSGlobalDataENS1_7JSValueE@Base 2.2.0
 (optional=private|arch=s390x)_ZN7WebCore21JSHTMLTableColElement15createStructureERN3JSC12JSGlobalDataENS1_7JSValueE@Base 2.2.0
 (optional=private|arch=s390x)_ZN7WebCore21JSHTMLTableRowElement15createStructureERN3JSC12JSGlobalDataENS1_7JSValueE@Base 2.2.0
 (optional=private|arch=s390x)_ZN7WebCore21JSHTMLTextAreaElement15createStructureERN3JSC12JSGlobalDataENS1_7JSValueE@Base 2.2.0
 (optional=private|arch=s390x)_ZN7WebCore21JSInt16ArrayPrototype15createStructureERN3JSC12JSGlobalDataENS1_7JSValueE@Base 2.2.0
 (optional=private|arch=s390x)_ZN7WebCore21JSInt16ArrayPrototypeC1ERN3JSC12JSGlobalDataEPNS1_14JSGlobalObjectEPNS1_9StructureE@Base 2.2.0
 (optional=private|arch=s390x)_ZN7WebCore21JSInt16ArrayPrototypeC2ERN3JSC12JSGlobalDataEPNS1_14JSGlobalObjectEPNS1_9StructureE@Base 2.2.0
 (optional=private|arch=s390x)_ZN7WebCore21JSInt32ArrayPrototype15createStructureERN3JSC12JSGlobalDataENS1_7JSValueE@Base 2.2.0
 (optional=private|arch=s390x)_ZN7WebCore21JSInt32ArrayPrototypeC1ERN3JSC12JSGlobalDataEPNS1_14JSGlobalObjectEPNS1_9StructureE@Base 2.2.0
 (optional=private|arch=s390x)_ZN7WebCore21JSInt32ArrayPrototypeC2ERN3JSC12JSGlobalDataEPNS1_14JSGlobalObjectEPNS1_9StructureE@Base 2.2.0
 (optional=private|arch=s390x)_ZN7WebCore21JSJavaScriptCallFrame15createStructureERN3JSC12JSGlobalDataENS1_7JSValueE@Base 2.2.0
 (optional=private|arch=s390x)_ZN7WebCore21JSMediaErrorPrototype15createStructureERN3JSC12JSGlobalDataENS1_7JSValueE@Base 2.2.0
 (optional=private|arch=s390x)_ZN7WebCore21JSMediaErrorPrototypeC1ERN3JSC12JSGlobalDataEPNS1_14JSGlobalObjectEPNS1_9StructureE@Base 2.2.0
 (optional=private|arch=s390x)_ZN7WebCore21JSMediaErrorPrototypeC2ERN3JSC12JSGlobalDataEPNS1_14JSGlobalObjectEPNS1_9StructureE@Base 2.2.0
 (optional=private|arch=s390x)_ZN7WebCore21JSMemoryInfoPrototype15createStructureERN3JSC12JSGlobalDataENS1_7JSValueE@Base 2.2.0
 (optional=private|arch=s390x)_ZN7WebCore21JSMemoryInfoPrototypeC1ERN3JSC12JSGlobalDataEPNS1_14JSGlobalObjectEPNS1_9StructureE@Base 2.2.0
 (optional=private|arch=s390x)_ZN7WebCore21JSMemoryInfoPrototypeC2ERN3JSC12JSGlobalDataEPNS1_14JSGlobalObjectEPNS1_9StructureE@Base 2.2.0
 (optional=private|arch=s390x)_ZN7WebCore21JSMouseEventPrototype15createStructureERN3JSC12JSGlobalDataENS1_7JSValueE@Base 2.2.0
 (optional=private|arch=s390x)_ZN7WebCore21JSMouseEventPrototypeC1ERN3JSC12JSGlobalDataEPNS1_14JSGlobalObjectEPNS1_9StructureE@Base 2.2.0
 (optional=private|arch=s390x)_ZN7WebCore21JSMouseEventPrototypeC2ERN3JSC12JSGlobalDataEPNS1_14JSGlobalObjectEPNS1_9StructureE@Base 2.2.0
 (optional=private|arch=s390x)_ZN7WebCore21JSNodeFilterPrototype15createStructureERN3JSC12JSGlobalDataENS1_7JSValueE@Base 2.2.0
 (optional=private|arch=s390x)_ZN7WebCore21JSNodeFilterPrototypeC1ERN3JSC12JSGlobalDataEPNS1_14JSGlobalObjectEPNS1_9StructureE@Base 2.2.0
 (optional=private|arch=s390x)_ZN7WebCore21JSNodeFilterPrototypeC2ERN3JSC12JSGlobalDataEPNS1_14JSGlobalObjectEPNS1_9StructureE@Base 2.2.0
 (optional=private|arch=s390x)_ZN7WebCore21JSNodeListConstructor15createStructureERN3JSC12JSGlobalDataENS1_7JSValueE@Base 2.2.0
 (optional=private|arch=s390x)_ZN7WebCore21JSNotationConstructor15createStructureERN3JSC12JSGlobalDataENS1_7JSValueE@Base 2.2.0
 (optional=private|arch=s390x)_ZN7WebCore21JSRGBColorConstructor15createStructureERN3JSC12JSGlobalDataENS1_7JSValueE@Base 2.2.0
 (optional=private|arch=s390x)_ZN7WebCore21JSSQLResultSetRowList15createStructureERN3JSC12JSGlobalDataENS1_7JSValueE@Base 2.2.0
 (optional=private|arch=s390x)_ZN7WebCore21JSSVGAngleConstructor15createStructureERN3JSC12JSGlobalDataENS1_7JSValueE@Base 2.2.0
 (optional=private|arch=s390x)_ZN7WebCore21JSSVGAnimationElement15createStructureERN3JSC12JSGlobalDataENS1_7JSValueE@Base 2.2.0
 (optional=private|arch=s390x)_ZN7WebCore21JSSVGColorConstructor15createStructureERN3JSC12JSGlobalDataENS1_7JSValueE@Base 2.2.0
 (optional=private|arch=s390x)_ZN7WebCore21JSSVGElementPrototype15createStructureERN3JSC12JSGlobalDataENS1_7JSValueE@Base 2.2.0
 (optional=private|arch=s390x)_ZN7WebCore21JSSVGElementPrototypeC1ERN3JSC12JSGlobalDataEPNS1_14JSGlobalObjectEPNS1_9StructureE@Base 2.2.0
 (optional=private|arch=s390x)_ZN7WebCore21JSSVGElementPrototypeC2ERN3JSC12JSGlobalDataEPNS1_14JSGlobalObjectEPNS1_9StructureE@Base 2.2.0
 (optional=private|arch=s390x)_ZN7WebCore21JSSVGPaintConstructor15createStructureERN3JSC12JSGlobalDataENS1_7JSValueE@Base 2.2.0
 (optional=private|arch=s390x)_ZN7WebCore21JSSVGPathSegPrototype15createStructureERN3JSC12JSGlobalDataENS1_7JSValueE@Base 2.2.0
 (optional=private|arch=s390x)_ZN7WebCore21JSSVGPathSegPrototypeC1ERN3JSC12JSGlobalDataEPNS1_14JSGlobalObjectEPNS1_9StructureE@Base 2.2.0
 (optional=private|arch=s390x)_ZN7WebCore21JSSVGPathSegPrototypeC2ERN3JSC12JSGlobalDataEPNS1_14JSGlobalObjectEPNS1_9StructureE@Base 2.2.0
 (optional=private|arch=s390x)_ZN7WebCore21JSSVGPointConstructor15createStructureERN3JSC12JSGlobalDataENS1_7JSValueE@Base 2.2.0
 (optional=private|arch=s390x)_ZN7WebCore21JSStyleMediaPrototype15createStructureERN3JSC12JSGlobalDataENS1_7JSValueE@Base 2.2.0
 (optional=private|arch=s390x)_ZN7WebCore21JSStyleMediaPrototypeC1ERN3JSC12JSGlobalDataEPNS1_14JSGlobalObjectEPNS1_9StructureE@Base 2.2.0
 (optional=private|arch=s390x)_ZN7WebCore21JSStyleMediaPrototypeC2ERN3JSC12JSGlobalDataEPNS1_14JSGlobalObjectEPNS1_9StructureE@Base 2.2.0
 (optional=private|arch=s390x)_ZN7WebCore21JSStyleSheetListOwnerC1Ev@Base 2.2.0
 (optional=private|arch=s390x)_ZN7WebCore21JSStyleSheetListOwnerC2Ev@Base 2.2.0
 (optional=private|arch=s390x)_ZN7WebCore21JSStyleSheetPrototype15createStructureERN3JSC12JSGlobalDataENS1_7JSValueE@Base 2.2.0
 (optional=private|arch=s390x)_ZN7WebCore21JSStyleSheetPrototypeC1ERN3JSC12JSGlobalDataEPNS1_14JSGlobalObjectEPNS1_9StructureE@Base 2.2.0
 (optional=private|arch=s390x)_ZN7WebCore21JSStyleSheetPrototypeC2ERN3JSC12JSGlobalDataEPNS1_14JSGlobalObjectEPNS1_9StructureE@Base 2.2.0
 (optional=private|arch=s390x)_ZN7WebCore21JSTimeRangesPrototype15createStructureERN3JSC12JSGlobalDataENS1_7JSValueE@Base 2.2.0
 (optional=private|arch=s390x)_ZN7WebCore21JSTimeRangesPrototypeC1ERN3JSC12JSGlobalDataEPNS1_14JSGlobalObjectEPNS1_9StructureE@Base 2.2.0
 (optional=private|arch=s390x)_ZN7WebCore21JSTimeRangesPrototypeC2ERN3JSC12JSGlobalDataEPNS1_14JSGlobalObjectEPNS1_9StructureE@Base 2.2.0
 (optional=private|arch=s390x)_ZN7WebCore21JSTouchEventPrototype15createStructureERN3JSC12JSGlobalDataENS1_7JSValueE@Base 2.2.0
 (optional=private|arch=s390x)_ZN7WebCore21JSTouchEventPrototypeC1ERN3JSC12JSGlobalDataEPNS1_14JSGlobalObjectEPNS1_9StructureE@Base 2.2.0
 (optional=private|arch=s390x)_ZN7WebCore21JSTouchEventPrototypeC2ERN3JSC12JSGlobalDataEPNS1_14JSGlobalObjectEPNS1_9StructureE@Base 2.2.0
 (optional=private|arch=s390x)_ZN7WebCore21JSTreeWalkerPrototype15createStructureERN3JSC12JSGlobalDataENS1_7JSValueE@Base 2.2.0
 (optional=private|arch=s390x)_ZN7WebCore21JSTreeWalkerPrototypeC1ERN3JSC12JSGlobalDataEPNS1_14JSGlobalObjectEPNS1_9StructureE@Base 2.2.0
 (optional=private|arch=s390x)_ZN7WebCore21JSTreeWalkerPrototypeC2ERN3JSC12JSGlobalDataEPNS1_14JSGlobalObjectEPNS1_9StructureE@Base 2.2.0
 (optional=private|arch=s390x)_ZN7WebCore21JSUint8ArrayPrototype15createStructureERN3JSC12JSGlobalDataENS1_7JSValueE@Base 2.2.0
 (optional=private|arch=s390x)_ZN7WebCore21JSUint8ArrayPrototypeC1ERN3JSC12JSGlobalDataEPNS1_14JSGlobalObjectEPNS1_9StructureE@Base 2.2.0
 (optional=private|arch=s390x)_ZN7WebCore21JSUint8ArrayPrototypeC2ERN3JSC12JSGlobalDataEPNS1_14JSGlobalObjectEPNS1_9StructureE@Base 2.2.0
 (optional=private|arch=s390x)_ZN7WebCore21JSWebKitAnimationList15createStructureERN3JSC12JSGlobalDataENS1_7JSValueE@Base 2.2.0
 (optional=private|arch=s390x)_ZN7WebCore21JSWheelEventPrototype15createStructureERN3JSC12JSGlobalDataENS1_7JSValueE@Base 2.2.0
 (optional=private|arch=s390x)_ZN7WebCore21JSWheelEventPrototypeC1ERN3JSC12JSGlobalDataEPNS1_14JSGlobalObjectEPNS1_9StructureE@Base 2.2.0
 (optional=private|arch=s390x)_ZN7WebCore21JSWheelEventPrototypeC2ERN3JSC12JSGlobalDataEPNS1_14JSGlobalObjectEPNS1_9StructureE@Base 2.2.0
 (optional=private|arch=s390x)_ZN7WebCore21JSWorkerLocationOwnerC1Ev@Base 2.2.0
 (optional=private|arch=s390x)_ZN7WebCore21JSWorkerLocationOwnerC2Ev@Base 2.2.0
 (optional=private|arch=s390x)_ZN7WebCore21NotificationPresenterC1Ev@Base 2.2.0
 (optional=private|arch=s390x)_ZN7WebCore21NotificationPresenterC2Ev@Base 2.2.0
 (optional=private|arch=s390x)_ZN7WebCore21SVGPathSegWithContext12commitChangeEv@Base 2.2.0
 (optional=private|arch=armel armhf)_ZN7WebCore21ustringToAtomicStringERKN3JSC7UStringE@Base 2.2.0
 (optional=private|arch=s390x)_ZN7WebCore22DedicatedWorkerContext12setOnmessageEN3WTF10PassRefPtrINS_13EventListenerEEE@Base 2.2.0
 (optional=private|arch=s390x)_ZN7WebCore22DedicatedWorkerContext9onmessageEv@Base 2.2.0
 (optional=private|arch=s390x)_ZN7WebCore22FrameNetworkingContextC1EPNS_5FrameE@Base 2.2.0
 (optional=private|arch=s390x)_ZN7WebCore22FrameNetworkingContextC2EPNS_5FrameE@Base 2.2.0
 (optional=templinst|arch=s390x)_ZN7WebCore22GetOwnerElementForTypeINS_17SVGPolygonElementELb1EE12ownerElementEPS1_@Base 2.2.0
 (optional=templinst|arch=s390x)_ZN7WebCore22GetOwnerElementForTypeINS_18SVGPolylineElementELb1EE12ownerElementEPS1_@Base 2.2.0
 (optional=private|arch=s390x)_ZN7WebCore22InspectorClientWebPage29javaScriptWindowObjectClearedEv@Base 2.2.0
 (optional=private|arch=s390x)_ZN7WebCore22InspectorClientWebPageC1EP7QObject@Base 2.2.0
 (optional=private|arch=s390x)_ZN7WebCore22InspectorClientWebPageC2EP7QObject@Base 2.2.0
 (optional=private|arch=s390x)_ZN7WebCore22InspectorDebuggerAgent6enableEPN3WTF6StringE@Base 2.2.0
 (optional=private|arch=s390x)_ZN7WebCore22InspectorDebuggerAgent7disableEPN3WTF6StringE@Base 2.2.0
 (optional=private|arch=s390x)_ZN7WebCore22InspectorProfilerAgent13clearProfilesEPN3WTF6StringE@Base 2.2.0
 (optional=private|arch=s390x)_ZN7WebCore22InspectorProfilerAgent4stopEPN3WTF6StringE@Base 2.2.0
 (optional=private|arch=s390x)_ZN7WebCore22InspectorProfilerAgent5startEPN3WTF6StringE@Base 2.2.0
 (optional=private|arch=s390x)_ZN7WebCore22InspectorProfilerAgent9isEnabledEPN3WTF6StringEPb@Base 2.2.0
 (optional=private|arch=s390x)_ZN7WebCore22JSArrayBufferPrototype15createStructureERN3JSC12JSGlobalDataENS1_7JSValueE@Base 2.2.0
 (optional=private|arch=s390x)_ZN7WebCore22JSArrayBufferPrototypeC1ERN3JSC12JSGlobalDataEPNS1_14JSGlobalObjectEPNS1_9StructureE@Base 2.2.0
 (optional=private|arch=s390x)_ZN7WebCore22JSArrayBufferPrototypeC2ERN3JSC12JSGlobalDataEPNS1_14JSGlobalObjectEPNS1_9StructureE@Base 2.2.0
 (optional=private|arch=s390x)_ZN7WebCore22JSCSSPageRulePrototype15createStructureERN3JSC12JSGlobalDataENS1_7JSValueE@Base 2.2.0
 (optional=private|arch=s390x)_ZN7WebCore22JSCSSPageRulePrototypeC1ERN3JSC12JSGlobalDataEPNS1_14JSGlobalObjectEPNS1_9StructureE@Base 2.2.0
 (optional=private|arch=s390x)_ZN7WebCore22JSCSSPageRulePrototypeC2ERN3JSC12JSGlobalDataEPNS1_14JSGlobalObjectEPNS1_9StructureE@Base 2.2.0
 (optional=private|arch=s390x)_ZN7WebCore22JSCSSRuleListPrototype15createStructureERN3JSC12JSGlobalDataENS1_7JSValueE@Base 2.2.0
 (optional=private|arch=s390x)_ZN7WebCore22JSCSSRuleListPrototypeC1ERN3JSC12JSGlobalDataEPNS1_14JSGlobalObjectEPNS1_9StructureE@Base 2.2.0
 (optional=private|arch=s390x)_ZN7WebCore22JSCSSRuleListPrototypeC2ERN3JSC12JSGlobalDataEPNS1_14JSGlobalObjectEPNS1_9StructureE@Base 2.2.0
 (optional=private|arch=s390x)_ZN7WebCore22JSClipboardConstructor15createStructureERN3JSC12JSGlobalDataENS1_7JSValueE@Base 2.2.0
 (optional=private|arch=s390x)_ZN7WebCore22JSCoordinatesPrototype15createStructureERN3JSC12JSGlobalDataENS1_7JSValueE@Base 2.2.0
 (optional=private|arch=s390x)_ZN7WebCore22JSCoordinatesPrototypeC1ERN3JSC12JSGlobalDataEPNS1_14JSGlobalObjectEPNS1_9StructureE@Base 2.2.0
 (optional=private|arch=s390x)_ZN7WebCore22JSCoordinatesPrototypeC2ERN3JSC12JSGlobalDataEPNS1_14JSGlobalObjectEPNS1_9StructureE@Base 2.2.0
 (optional=private|arch=s390x)_ZN7WebCore22JSCustomEventPrototype15createStructureERN3JSC12JSGlobalDataENS1_7JSValueE@Base 2.2.0
 (optional=private|arch=s390x)_ZN7WebCore22JSCustomEventPrototypeC1ERN3JSC12JSGlobalDataEPNS1_14JSGlobalObjectEPNS1_9StructureE@Base 2.2.0
 (optional=private|arch=s390x)_ZN7WebCore22JSCustomEventPrototypeC2ERN3JSC12JSGlobalDataEPNS1_14JSGlobalObjectEPNS1_9StructureE@Base 2.2.0
 (optional=private|arch=s390x)_ZN7WebCore22JSDOMFormDataPrototype15createStructureERN3JSC12JSGlobalDataENS1_7JSValueE@Base 2.2.0
 (optional=private|arch=s390x)_ZN7WebCore22JSDOMFormDataPrototypeC1ERN3JSC12JSGlobalDataEPNS1_14JSGlobalObjectEPNS1_9StructureE@Base 2.2.0
 (optional=private|arch=s390x)_ZN7WebCore22JSDOMFormDataPrototypeC2ERN3JSC12JSGlobalDataEPNS1_14JSGlobalObjectEPNS1_9StructureE@Base 2.2.0
 (optional=private|arch=s390x)_ZN7WebCore22JSDOMMimeTypePrototype15createStructureERN3JSC12JSGlobalDataENS1_7JSValueE@Base 2.2.0
 (optional=private|arch=s390x)_ZN7WebCore22JSDOMMimeTypePrototypeC1ERN3JSC12JSGlobalDataEPNS1_14JSGlobalObjectEPNS1_9StructureE@Base 2.2.0
 (optional=private|arch=s390x)_ZN7WebCore22JSDOMMimeTypePrototypeC2ERN3JSC12JSGlobalDataEPNS1_14JSGlobalObjectEPNS1_9StructureE@Base 2.2.0
 (optional=private|arch=s390x)_ZN7WebCore22JSDOMParserConstructor15createStructureERN3JSC12JSGlobalDataENS1_7JSValueE@Base 2.2.0
 (optional=private|arch=s390x)_ZN7WebCore22JSDOMPluginConstructor15createStructureERN3JSC12JSGlobalDataENS1_7JSValueE@Base 2.2.0
 (optional=private|arch=s390x)_ZN7WebCore22JSDOMSettableTokenList15createStructureERN3JSC12JSGlobalDataENS1_7JSValueE@Base 2.2.0
 (optional=private|arch=s390x)_ZN7WebCore22JSDOMWindowConstructor15createStructureERN3JSC12JSGlobalDataENS1_7JSValueE@Base 2.2.0
 (optional=private|arch=s390x)_ZN7WebCore22JSEventSourcePrototype15createStructureERN3JSC12JSGlobalDataENS1_7JSValueE@Base 2.2.0
 (optional=private|arch=s390x)_ZN7WebCore22JSEventSourcePrototypeC1ERN3JSC12JSGlobalDataEPNS1_14JSGlobalObjectEPNS1_9StructureE@Base 2.2.0
 (optional=private|arch=s390x)_ZN7WebCore22JSEventSourcePrototypeC2ERN3JSC12JSGlobalDataEPNS1_14JSGlobalObjectEPNS1_9StructureE@Base 2.2.0
 (optional=private|arch=s390x)_ZN7WebCore22JSFileErrorConstructor15createStructureERN3JSC12JSGlobalDataENS1_7JSValueE@Base 2.2.0
 (optional=private|arch=s390x)_ZN7WebCore22JSHTMLDirectoryElement15createStructureERN3JSC12JSGlobalDataENS1_7JSValueE@Base 2.2.0
 (optional=private|arch=s390x)_ZN7WebCore22JSHTMLElementPrototype15createStructureERN3JSC12JSGlobalDataENS1_7JSValueE@Base 2.2.0
 (optional=private|arch=s390x)_ZN7WebCore22JSHTMLElementPrototypeC1ERN3JSC12JSGlobalDataEPNS1_14JSGlobalObjectEPNS1_9StructureE@Base 2.2.0
 (optional=private|arch=s390x)_ZN7WebCore22JSHTMLElementPrototypeC2ERN3JSC12JSGlobalDataEPNS1_14JSGlobalObjectEPNS1_9StructureE@Base 2.2.0
 (optional=private|arch=s390x)_ZN7WebCore22JSHTMLParagraphElement15createStructureERN3JSC12JSGlobalDataENS1_7JSValueE@Base 2.2.0
 (optional=private|arch=s390x)_ZN7WebCore22JSHTMLTableCellElement15createStructureERN3JSC12JSGlobalDataENS1_7JSValueE@Base 2.2.0
 (optional=private|arch=s390x)_ZN7WebCore22JSImageDataConstructor15createStructureERN3JSC12JSGlobalDataENS1_7JSValueE@Base 2.2.0
 (optional=private|arch=s390x)_ZN7WebCore22JSMediaListConstructor15createStructureERN3JSC12JSGlobalDataENS1_7JSValueE@Base 2.2.0
 (optional=private|arch=s390x)_ZN7WebCore22JSMessagePortPrototype15createStructureERN3JSC12JSGlobalDataENS1_7JSValueE@Base 2.2.0
 (optional=private|arch=s390x)_ZN7WebCore22JSMessagePortPrototypeC1ERN3JSC12JSGlobalDataEPNS1_14JSGlobalObjectEPNS1_9StructureE@Base 2.2.0
 (optional=private|arch=s390x)_ZN7WebCore22JSMessagePortPrototypeC2ERN3JSC12JSGlobalDataEPNS1_14JSGlobalObjectEPNS1_9StructureE@Base 2.2.0
 (optional=private|arch=s390x)_ZN7WebCore22JSSVGAElementPrototype15createStructureERN3JSC12JSGlobalDataENS1_7JSValueE@Base 2.2.0
 (optional=private|arch=s390x)_ZN7WebCore22JSSVGAElementPrototypeC1ERN3JSC12JSGlobalDataEPNS1_14JSGlobalObjectEPNS1_9StructureE@Base 2.2.0
 (optional=private|arch=s390x)_ZN7WebCore22JSSVGAElementPrototypeC2ERN3JSC12JSGlobalDataEPNS1_14JSGlobalObjectEPNS1_9StructureE@Base 2.2.0
 (optional=private|arch=s390x)_ZN7WebCore22JSSVGDocumentPrototype15createStructureERN3JSC12JSGlobalDataENS1_7JSValueE@Base 2.2.0
 (optional=private|arch=s390x)_ZN7WebCore22JSSVGDocumentPrototypeC1ERN3JSC12JSGlobalDataEPNS1_14JSGlobalObjectEPNS1_9StructureE@Base 2.2.0
 (optional=private|arch=s390x)_ZN7WebCore22JSSVGDocumentPrototypeC2ERN3JSC12JSGlobalDataEPNS1_14JSGlobalObjectEPNS1_9StructureE@Base 2.2.0
 (optional=private|arch=s390x)_ZN7WebCore22JSSVGGElementPrototype15createStructureERN3JSC12JSGlobalDataENS1_7JSValueE@Base 2.2.0
 (optional=private|arch=s390x)_ZN7WebCore22JSSVGGElementPrototypeC1ERN3JSC12JSGlobalDataEPNS1_14JSGlobalObjectEPNS1_9StructureE@Base 2.2.0
 (optional=private|arch=s390x)_ZN7WebCore22JSSVGGElementPrototypeC2ERN3JSC12JSGlobalDataEPNS1_14JSGlobalObjectEPNS1_9StructureE@Base 2.2.0
 (optional=private|arch=s390x)_ZN7WebCore22JSSVGLengthConstructor15createStructureERN3JSC12JSGlobalDataENS1_7JSValueE@Base 2.2.0
 (optional=private|arch=s390x)_ZN7WebCore22JSSVGMatrixConstructor15createStructureERN3JSC12JSGlobalDataENS1_7JSValueE@Base 2.2.0
 (optional=private|arch=s390x)_ZN7WebCore22JSSVGNumberConstructor15createStructureERN3JSC12JSGlobalDataENS1_7JSValueE@Base 2.2.0
 (optional=private|arch=s390x)_ZN7WebCore22JSTextEventConstructor15createStructureERN3JSC12JSGlobalDataENS1_7JSValueE@Base 2.2.0
 (optional=private|arch=s390x)_ZN7WebCore22JSTextMetricsPrototype15createStructureERN3JSC12JSGlobalDataENS1_7JSValueE@Base 2.2.0
 (optional=private|arch=s390x)_ZN7WebCore22JSTextMetricsPrototypeC1ERN3JSC12JSGlobalDataEPNS1_14JSGlobalObjectEPNS1_9StructureE@Base 2.2.0
 (optional=private|arch=s390x)_ZN7WebCore22JSTextMetricsPrototypeC2ERN3JSC12JSGlobalDataEPNS1_14JSGlobalObjectEPNS1_9StructureE@Base 2.2.0
 (optional=private|arch=s390x)_ZN7WebCore22JSTouchListConstructor15createStructureERN3JSC12JSGlobalDataENS1_7JSValueE@Base 2.2.0
 (optional=private|arch=s390x)_ZN7WebCore22JSUint16ArrayPrototype15createStructureERN3JSC12JSGlobalDataENS1_7JSValueE@Base 2.2.0
 (optional=private|arch=s390x)_ZN7WebCore22JSUint16ArrayPrototypeC1ERN3JSC12JSGlobalDataEPNS1_14JSGlobalObjectEPNS1_9StructureE@Base 2.2.0
 (optional=private|arch=s390x)_ZN7WebCore22JSUint16ArrayPrototypeC2ERN3JSC12JSGlobalDataEPNS1_14JSGlobalObjectEPNS1_9StructureE@Base 2.2.0
 (optional=private|arch=s390x)_ZN7WebCore22JSUint32ArrayPrototype15createStructureERN3JSC12JSGlobalDataENS1_7JSValueE@Base 2.2.0
 (optional=private|arch=s390x)_ZN7WebCore22JSUint32ArrayPrototypeC1ERN3JSC12JSGlobalDataEPNS1_14JSGlobalObjectEPNS1_9StructureE@Base 2.2.0
 (optional=private|arch=s390x)_ZN7WebCore22JSUint32ArrayPrototypeC2ERN3JSC12JSGlobalDataEPNS1_14JSGlobalObjectEPNS1_9StructureE@Base 2.2.0
 (optional=private|arch=s390x)_ZN7WebCore22JSWebKitPointPrototype15createStructureERN3JSC12JSGlobalDataENS1_7JSValueE@Base 2.2.0
 (optional=private|arch=s390x)_ZN7WebCore22JSWebKitPointPrototypeC1ERN3JSC12JSGlobalDataEPNS1_14JSGlobalObjectEPNS1_9StructureE@Base 2.2.0
 (optional=private|arch=s390x)_ZN7WebCore22JSWebKitPointPrototypeC2ERN3JSC12JSGlobalDataEPNS1_14JSGlobalObjectEPNS1_9StructureE@Base 2.2.0
 (optional=private|arch=s390x)_ZN7WebCore22JSWorkerNavigatorOwnerC1Ev@Base 2.2.0
 (optional=private|arch=s390x)_ZN7WebCore22JSWorkerNavigatorOwnerC2Ev@Base 2.2.0
 (optional=private|arch=s390x)_ZN7WebCore22JSXMLHttpRequestUpload15createStructureERN3JSC12JSGlobalDataENS1_7JSValueE@Base 2.2.0
 (optional=private|arch=s390x)_ZN7WebCore22JSXPathResultPrototype15createStructureERN3JSC12JSGlobalDataENS1_7JSValueE@Base 2.2.0
 (optional=private|arch=s390x)_ZN7WebCore22JSXPathResultPrototypeC1ERN3JSC12JSGlobalDataEPNS1_14JSGlobalObjectEPNS1_9StructureE@Base 2.2.0
 (optional=private|arch=s390x)_ZN7WebCore22JSXPathResultPrototypeC2ERN3JSC12JSGlobalDataEPNS1_14JSGlobalObjectEPNS1_9StructureE@Base 2.2.0
 (optional=private|arch=s390x)_ZN7WebCore22MediaQueryListListener6createENS_11ScriptValueE@Base 2.2.0
 (optional=private|arch=s390x)_ZN7WebCore22MediaQueryListListenerC1ENS_11ScriptValueE@Base 2.2.0
 (optional=private|arch=s390x)_ZN7WebCore22MediaQueryListListenerC2ENS_11ScriptValueE@Base 2.2.0
 (optional=private|arch=s390x)_ZN7WebCore22QtPluginGraphicsWidget6createEP15QGraphicsWidget@Base 2.2.0
 (optional=private|arch=s390x)_ZN7WebCore22QtPluginGraphicsWidgetC1EP15QGraphicsWidget@Base 2.2.0
 (optional=private|arch=s390x)_ZN7WebCore22QtPluginGraphicsWidgetC2EP15QGraphicsWidget@Base 2.2.0
 (optional=templinst|arch=s390x)_ZN7WebCore22SVGListPropertyTearOffINS_12SVGPointListEE10appendItemEN3WTF10PassRefPtrINS_18SVGPropertyTearOffINS_10FloatPointEEEEERi@Base 2.2.0
 (optional=templinst|arch=s390x)_ZN7WebCore22SVGListPropertyTearOffINS_12SVGPointListEE10initializeEN3WTF10PassRefPtrINS_18SVGPropertyTearOffINS_10FloatPointEEEEERi@Base 2.2.0
 (optional=templinst|arch=s390x)_ZN7WebCore22SVGListPropertyTearOffINS_12SVGPointListEE10removeItemEjRi@Base 2.2.0
 (optional=templinst|arch=s390x)_ZN7WebCore22SVGListPropertyTearOffINS_12SVGPointListEE11replaceItemEN3WTF10PassRefPtrINS_18SVGPropertyTearOffINS_10FloatPointEEEEEjRi@Base 2.2.0
 (optional=templinst|arch=s390x)_ZN7WebCore22SVGListPropertyTearOffINS_12SVGPointListEE16insertItemBeforeEN3WTF10PassRefPtrINS_18SVGPropertyTearOffINS_10FloatPointEEEEEjRi@Base 2.2.0
 (optional=templinst|arch=s390x)_ZN7WebCore22SVGListPropertyTearOffINS_12SVGPointListEE5clearERi@Base 2.2.0
 (optional=templinst|arch=s390x)_ZN7WebCore22SVGListPropertyTearOffINS_12SVGPointListEE7getItemEjRi@Base 2.2.0
 (optional=templinst|arch=s390x)_ZN7WebCore22SVGListPropertyTearOffINS_13SVGLengthListEE10appendItemEN3WTF10PassRefPtrINS_18SVGPropertyTearOffINS_9SVGLengthEEEEERi@Base 2.2.0
 (optional=templinst|arch=s390x)_ZN7WebCore22SVGListPropertyTearOffINS_13SVGLengthListEE10initializeEN3WTF10PassRefPtrINS_18SVGPropertyTearOffINS_9SVGLengthEEEEERi@Base 2.2.0
 (optional=templinst|arch=s390x)_ZN7WebCore22SVGListPropertyTearOffINS_13SVGLengthListEE10removeItemEjRi@Base 2.2.0
 (optional=templinst|arch=s390x)_ZN7WebCore22SVGListPropertyTearOffINS_13SVGLengthListEE11replaceItemEN3WTF10PassRefPtrINS_18SVGPropertyTearOffINS_9SVGLengthEEEEEjRi@Base 2.2.0
 (optional=templinst|arch=s390x)_ZN7WebCore22SVGListPropertyTearOffINS_13SVGLengthListEE16insertItemBeforeEN3WTF10PassRefPtrINS_18SVGPropertyTearOffINS_9SVGLengthEEEEEjRi@Base 2.2.0
 (optional=templinst|arch=s390x)_ZN7WebCore22SVGListPropertyTearOffINS_13SVGLengthListEE18removeItemFromListEPNS_18SVGPropertyTearOffINS_9SVGLengthEEEb@Base 2.2.0
 (optional=templinst|arch=s390x)_ZN7WebCore22SVGListPropertyTearOffINS_13SVGLengthListEE5clearERi@Base 2.2.0
 (optional=templinst|arch=s390x)_ZN7WebCore22SVGListPropertyTearOffINS_13SVGLengthListEE6createEPNS_30SVGAnimatedListPropertyTearOffIS1_EENS_15SVGPropertyRoleE@Base 2.2.0
 (optional=templinst|arch=s390x)_ZN7WebCore22SVGListPropertyTearOffINS_13SVGLengthListEE7getItemEjRi@Base 2.2.0
 (optional=templinst|arch=s390x)_ZN7WebCore22SVGListPropertyTearOffINS_13SVGLengthListEEC1EPNS_30SVGAnimatedListPropertyTearOffIS1_EENS_15SVGPropertyRoleE@Base 2.2.0
 (optional=templinst|arch=s390x)_ZN7WebCore22SVGListPropertyTearOffINS_13SVGLengthListEEC2EPNS_30SVGAnimatedListPropertyTearOffIS1_EENS_15SVGPropertyRoleE@Base 2.2.0
 (optional=templinst|arch=s390x)_ZN7WebCore22SVGListPropertyTearOffINS_13SVGNumberListEE10appendItemEN3WTF10PassRefPtrINS_18SVGPropertyTearOffIfEEEERi@Base 2.2.0
 (optional=templinst|arch=s390x)_ZN7WebCore22SVGListPropertyTearOffINS_13SVGNumberListEE10initializeEN3WTF10PassRefPtrINS_18SVGPropertyTearOffIfEEEERi@Base 2.2.0
 (optional=templinst|arch=s390x)_ZN7WebCore22SVGListPropertyTearOffINS_13SVGNumberListEE10removeItemEjRi@Base 2.2.0
 (optional=templinst|arch=s390x)_ZN7WebCore22SVGListPropertyTearOffINS_13SVGNumberListEE11replaceItemEN3WTF10PassRefPtrINS_18SVGPropertyTearOffIfEEEEjRi@Base 2.2.0
 (optional=templinst|arch=s390x)_ZN7WebCore22SVGListPropertyTearOffINS_13SVGNumberListEE16insertItemBeforeEN3WTF10PassRefPtrINS_18SVGPropertyTearOffIfEEEEjRi@Base 2.2.0
 (optional=templinst|arch=s390x)_ZN7WebCore22SVGListPropertyTearOffINS_13SVGNumberListEE18removeItemFromListEPNS_18SVGPropertyTearOffIfEEb@Base 2.2.0
 (optional=templinst|arch=s390x)_ZN7WebCore22SVGListPropertyTearOffINS_13SVGNumberListEE5clearERi@Base 2.2.0
 (optional=templinst|arch=s390x)_ZN7WebCore22SVGListPropertyTearOffINS_13SVGNumberListEE6createEPNS_30SVGAnimatedListPropertyTearOffIS1_EENS_15SVGPropertyRoleE@Base 2.2.0
 (optional=templinst|arch=s390x)_ZN7WebCore22SVGListPropertyTearOffINS_13SVGNumberListEE7getItemEjRi@Base 2.2.0
 (optional=templinst|arch=s390x)_ZN7WebCore22SVGListPropertyTearOffINS_13SVGNumberListEEC1EPNS_30SVGAnimatedListPropertyTearOffIS1_EENS_15SVGPropertyRoleE@Base 2.2.0
 (optional=templinst|arch=s390x)_ZN7WebCore22SVGListPropertyTearOffINS_13SVGNumberListEEC2EPNS_30SVGAnimatedListPropertyTearOffIS1_EENS_15SVGPropertyRoleE@Base 2.2.0
 (optional=templinst|arch=s390x)_ZN7WebCore22SVGListPropertyTearOffINS_16SVGTransformListEE10appendItemEN3WTF10PassRefPtrINS_18SVGPropertyTearOffINS_12SVGTransformEEEEERi@Base 2.2.0
 (optional=templinst|arch=s390x)_ZN7WebCore22SVGListPropertyTearOffINS_16SVGTransformListEE10initializeEN3WTF10PassRefPtrINS_18SVGPropertyTearOffINS_12SVGTransformEEEEERi@Base 2.2.0
 (optional=templinst|arch=s390x)_ZN7WebCore22SVGListPropertyTearOffINS_16SVGTransformListEE10removeItemEjRi@Base 2.2.0
 (optional=templinst|arch=s390x)_ZN7WebCore22SVGListPropertyTearOffINS_16SVGTransformListEE11replaceItemEN3WTF10PassRefPtrINS_18SVGPropertyTearOffINS_12SVGTransformEEEEEjRi@Base 2.2.0
 (optional=templinst|arch=s390x)_ZN7WebCore22SVGListPropertyTearOffINS_16SVGTransformListEE16insertItemBeforeEN3WTF10PassRefPtrINS_18SVGPropertyTearOffINS_12SVGTransformEEEEEjRi@Base 2.2.0
 (optional=templinst|arch=s390x)_ZN7WebCore22SVGListPropertyTearOffINS_16SVGTransformListEE18removeItemFromListEPNS_18SVGPropertyTearOffINS_12SVGTransformEEEb@Base 2.2.0
 (optional=templinst|arch=s390x)_ZN7WebCore22SVGListPropertyTearOffINS_16SVGTransformListEE5clearERi@Base 2.2.0
 (optional=templinst|arch=s390x)_ZN7WebCore22SVGListPropertyTearOffINS_16SVGTransformListEE7getItemEjRi@Base 2.2.0
 (optional=templinst|arch=s390x)_ZN7WebCore22SVGListPropertyTearOffINS_16SVGTransformListEEC1EPNS_30SVGAnimatedListPropertyTearOffIS1_EENS_15SVGPropertyRoleE@Base 2.2.0
 (optional=templinst|arch=s390x)_ZN7WebCore22SVGListPropertyTearOffINS_16SVGTransformListEEC2EPNS_30SVGAnimatedListPropertyTearOffIS1_EENS_15SVGPropertyRoleE@Base 2.2.0
 (optional=private|arch=s390x)_ZN7WebCore22SVGPathSegCurvetoCubic4setXEf@Base 2.2.0
 (optional=private|arch=s390x)_ZN7WebCore22SVGPathSegCurvetoCubic4setYEf@Base 2.2.0
 (optional=private|arch=s390x)_ZN7WebCore22SVGPathSegCurvetoCubic5setX1Ef@Base 2.2.0
 (optional=private|arch=s390x)_ZN7WebCore22SVGPathSegCurvetoCubic5setX2Ef@Base 2.2.0
 (optional=private|arch=s390x)_ZN7WebCore22SVGPathSegCurvetoCubic5setY1Ef@Base 2.2.0
 (optional=private|arch=s390x)_ZN7WebCore22SVGPathSegCurvetoCubic5setY2Ef@Base 2.2.0
 (optional=private|arch=s390x)_ZN7WebCore22WebKitCSSKeyframesRule15setNameInternalERKN3WTF6StringE@Base 2.2.0
 (optional=templinst|arch=s390x)_ZN7WebCore22narrowPrecisionToFloatIdEEfT_@Base 2.2.0
 (optional=private|arch=s390x)_ZN7WebCore23JSCDATASectionPrototype15createStructureERN3JSC12JSGlobalDataENS1_7JSValueE@Base 2.2.0
 (optional=private|arch=s390x)_ZN7WebCore23JSCDATASectionPrototypeC1ERN3JSC12JSGlobalDataEPNS1_14JSGlobalObjectEPNS1_9StructureE@Base 2.2.0
 (optional=private|arch=s390x)_ZN7WebCore23JSCDATASectionPrototypeC2ERN3JSC12JSGlobalDataEPNS1_14JSGlobalObjectEPNS1_9StructureE@Base 2.2.0
 (optional=private|arch=s390x)_ZN7WebCore23JSCSSMediaRulePrototype15createStructureERN3JSC12JSGlobalDataENS1_7JSValueE@Base 2.2.0
 (optional=private|arch=s390x)_ZN7WebCore23JSCSSMediaRulePrototypeC1ERN3JSC12JSGlobalDataEPNS1_14JSGlobalObjectEPNS1_9StructureE@Base 2.2.0
 (optional=private|arch=s390x)_ZN7WebCore23JSCSSMediaRulePrototypeC2ERN3JSC12JSGlobalDataEPNS1_14JSGlobalObjectEPNS1_9StructureE@Base 2.2.0
 (optional=private|arch=s390x)_ZN7WebCore23JSCSSStyleRulePrototype15createStructureERN3JSC12JSGlobalDataENS1_7JSValueE@Base 2.2.0
 (optional=private|arch=s390x)_ZN7WebCore23JSCSSStyleRulePrototypeC1ERN3JSC12JSGlobalDataEPNS1_14JSGlobalObjectEPNS1_9StructureE@Base 2.2.0
 (optional=private|arch=s390x)_ZN7WebCore23JSCSSStyleRulePrototypeC2ERN3JSC12JSGlobalDataEPNS1_14JSGlobalObjectEPNS1_9StructureE@Base 2.2.0
 (optional=private|arch=s390x)_ZN7WebCore23JSCSSValueListPrototype15createStructureERN3JSC12JSGlobalDataENS1_7JSValueE@Base 2.2.0
 (optional=private|arch=s390x)_ZN7WebCore23JSCSSValueListPrototypeC1ERN3JSC12JSGlobalDataEPNS1_14JSGlobalObjectEPNS1_9StructureE@Base 2.2.0
 (optional=private|arch=s390x)_ZN7WebCore23JSCSSValueListPrototypeC2ERN3JSC12JSGlobalDataEPNS1_14JSGlobalObjectEPNS1_9StructureE@Base 2.2.0
 (optional=private|arch=s390x)_ZN7WebCore23JSClientRectConstructor15createStructureERN3JSC12JSGlobalDataENS1_7JSValueE@Base 2.2.0
 (optional=private|arch=s390x)_ZN7WebCore23JSDOMMimeTypeArrayOwnerC1Ev@Base 2.2.0
 (optional=private|arch=s390x)_ZN7WebCore23JSDOMMimeTypeArrayOwnerC2Ev@Base 2.2.0
 (optional=private|arch=s390x)_ZN7WebCore23JSDOMSelectionPrototype15createStructureERN3JSC12JSGlobalDataENS1_7JSValueE@Base 2.2.0
 (optional=private|arch=s390x)_ZN7WebCore23JSDOMSelectionPrototypeC1ERN3JSC12JSGlobalDataEPNS1_14JSGlobalObjectEPNS1_9StructureE@Base 2.2.0
 (optional=private|arch=s390x)_ZN7WebCore23JSDOMSelectionPrototypeC2ERN3JSC12JSGlobalDataEPNS1_14JSGlobalObjectEPNS1_9StructureE@Base 2.2.0
 (optional=private|arch=s390x)_ZN7WebCore23JSDOMStringMapPrototype15createStructureERN3JSC12JSGlobalDataENS1_7JSValueE@Base 2.2.0
 (optional=private|arch=s390x)_ZN7WebCore23JSDOMStringMapPrototypeC1ERN3JSC12JSGlobalDataEPNS1_14JSGlobalObjectEPNS1_9StructureE@Base 2.2.0
 (optional=private|arch=s390x)_ZN7WebCore23JSDOMStringMapPrototypeC2ERN3JSC12JSGlobalDataEPNS1_14JSGlobalObjectEPNS1_9StructureE@Base 2.2.0
 (optional=private|arch=s390x)_ZN7WebCore23JSDOMTokenListPrototype15createStructureERN3JSC12JSGlobalDataENS1_7JSValueE@Base 2.2.0
 (optional=private|arch=s390x)_ZN7WebCore23JSDOMTokenListPrototypeC1ERN3JSC12JSGlobalDataEPNS1_14JSGlobalObjectEPNS1_9StructureE@Base 2.2.0
 (optional=private|arch=s390x)_ZN7WebCore23JSDOMTokenListPrototypeC2ERN3JSC12JSGlobalDataEPNS1_14JSGlobalObjectEPNS1_9StructureE@Base 2.2.0
 (optional=private|arch=s390x)_ZN7WebCore23JSDatabaseSyncPrototype15createStructureERN3JSC12JSGlobalDataENS1_7JSValueE@Base 2.2.0
 (optional=private|arch=s390x)_ZN7WebCore23JSDatabaseSyncPrototypeC1ERN3JSC12JSGlobalDataEPNS1_14JSGlobalObjectEPNS1_9StructureE@Base 2.2.0
 (optional=private|arch=s390x)_ZN7WebCore23JSDatabaseSyncPrototypeC2ERN3JSC12JSGlobalDataEPNS1_14JSGlobalObjectEPNS1_9StructureE@Base 2.2.0
 (optional=private|arch=s390x)_ZN7WebCore23JSDocumentTypePrototype15createStructureERN3JSC12JSGlobalDataENS1_7JSValueE@Base 2.2.0
 (optional=private|arch=s390x)_ZN7WebCore23JSDocumentTypePrototypeC1ERN3JSC12JSGlobalDataEPNS1_14JSGlobalObjectEPNS1_9StructureE@Base 2.2.0
 (optional=private|arch=s390x)_ZN7WebCore23JSDocumentTypePrototypeC2ERN3JSC12JSGlobalDataEPNS1_14JSGlobalObjectEPNS1_9StructureE@Base 2.2.0
 (optional=private|arch=s390x)_ZN7WebCore23JSErrorEventConstructor15createStructureERN3JSC12JSGlobalDataENS1_7JSValueE@Base 2.2.0
 (optional=private|arch=s390x)_ZN7WebCore23JSFileReaderConstructor15createStructureERN3JSC12JSGlobalDataENS1_7JSValueE@Base 2.2.0
 (optional=private|arch=s390x)_ZN7WebCore23JSFloat32ArrayPrototype15createStructureERN3JSC12JSGlobalDataENS1_7JSValueE@Base 2.2.0
 (optional=private|arch=s390x)_ZN7WebCore23JSFloat32ArrayPrototypeC1ERN3JSC12JSGlobalDataEPNS1_14JSGlobalObjectEPNS1_9StructureE@Base 2.2.0
 (optional=private|arch=s390x)_ZN7WebCore23JSFloat32ArrayPrototypeC2ERN3JSC12JSGlobalDataEPNS1_14JSGlobalObjectEPNS1_9StructureE@Base 2.2.0
 (optional=private|arch=s390x)_ZN7WebCore23JSHTMLBlockquoteElement15createStructureERN3JSC12JSGlobalDataENS1_7JSValueE@Base 2.2.0
 (optional=private|arch=s390x)_ZN7WebCore23JSHTMLDocumentPrototype15createStructureERN3JSC12JSGlobalDataENS1_7JSValueE@Base 2.2.0
 (optional=private|arch=s390x)_ZN7WebCore23JSHTMLDocumentPrototypeC1ERN3JSC12JSGlobalDataEPNS1_14JSGlobalObjectEPNS1_9StructureE@Base 2.2.0
 (optional=private|arch=s390x)_ZN7WebCore23JSHTMLDocumentPrototypeC2ERN3JSC12JSGlobalDataEPNS1_14JSGlobalObjectEPNS1_9StructureE@Base 2.2.0
 (optional=private|arch=s390x)_ZN7WebCore23JSInspectorFrontendHost15createStructureERN3JSC12JSGlobalDataENS1_7JSValueE@Base 2.2.0
 (optional=private|arch=s390x)_ZN7WebCore23JSMediaErrorConstructor15createStructureERN3JSC12JSGlobalDataENS1_7JSValueE@Base 2.2.0
 (optional=private|arch=s390x)_ZN7WebCore23JSMessageEventPrototype15createStructureERN3JSC12JSGlobalDataENS1_7JSValueE@Base 2.2.0
 (optional=private|arch=s390x)_ZN7WebCore23JSMessageEventPrototypeC1ERN3JSC12JSGlobalDataEPNS1_14JSGlobalObjectEPNS1_9StructureE@Base 2.2.0
 (optional=private|arch=s390x)_ZN7WebCore23JSMessageEventPrototypeC2ERN3JSC12JSGlobalDataEPNS1_14JSGlobalObjectEPNS1_9StructureE@Base 2.2.0
 (optional=private|arch=s390x)_ZN7WebCore23JSMouseEventConstructor15createStructureERN3JSC12JSGlobalDataENS1_7JSValueE@Base 2.2.0
 (optional=private|arch=s390x)_ZN7WebCore23JSNamedNodeMapPrototype15createStructureERN3JSC12JSGlobalDataENS1_7JSValueE@Base 2.2.0
 (optional=private|arch=s390x)_ZN7WebCore23JSNamedNodeMapPrototypeC1ERN3JSC12JSGlobalDataEPNS1_14JSGlobalObjectEPNS1_9StructureE@Base 2.2.0
 (optional=private|arch=s390x)_ZN7WebCore23JSNamedNodeMapPrototypeC2ERN3JSC12JSGlobalDataEPNS1_14JSGlobalObjectEPNS1_9StructureE@Base 2.2.0
 (optional=private|arch=s390x)_ZN7WebCore23JSNodeFilterConstructor15createStructureERN3JSC12JSGlobalDataENS1_7JSValueE@Base 2.2.0
 (optional=private|arch=s390x)_ZN7WebCore23JSNodeIteratorPrototype15createStructureERN3JSC12JSGlobalDataENS1_7JSValueE@Base 2.2.0
 (optional=private|arch=s390x)_ZN7WebCore23JSNodeIteratorPrototypeC1ERN3JSC12JSGlobalDataEPNS1_14JSGlobalObjectEPNS1_9StructureE@Base 2.2.0
 (optional=private|arch=s390x)_ZN7WebCore23JSNodeIteratorPrototypeC2ERN3JSC12JSGlobalDataEPNS1_14JSGlobalObjectEPNS1_9StructureE@Base 2.2.0
 (optional=private|arch=s390x)_ZN7WebCore23JSNotificationPrototype15createStructureERN3JSC12JSGlobalDataENS1_7JSValueE@Base 2.2.0
 (optional=private|arch=s390x)_ZN7WebCore23JSNotificationPrototypeC1ERN3JSC12JSGlobalDataEPNS1_14JSGlobalObjectEPNS1_9StructureE@Base 2.2.0
 (optional=private|arch=s390x)_ZN7WebCore23JSNotificationPrototypeC2ERN3JSC12JSGlobalDataEPNS1_14JSGlobalObjectEPNS1_9StructureE@Base 2.2.0
 (optional=private|arch=s390x)_ZN7WebCore23JSSQLExceptionPrototype15createStructureERN3JSC12JSGlobalDataENS1_7JSValueE@Base 2.2.0
 (optional=private|arch=s390x)_ZN7WebCore23JSSQLExceptionPrototypeC1ERN3JSC12JSGlobalDataEPNS1_14JSGlobalObjectEPNS1_9StructureE@Base 2.2.0
 (optional=private|arch=s390x)_ZN7WebCore23JSSQLExceptionPrototypeC2ERN3JSC12JSGlobalDataEPNS1_14JSGlobalObjectEPNS1_9StructureE@Base 2.2.0
 (optional=private|arch=s390x)_ZN7WebCore23JSSQLResultSetPrototype15createStructureERN3JSC12JSGlobalDataENS1_7JSValueE@Base 2.2.0
 (optional=private|arch=s390x)_ZN7WebCore23JSSQLResultSetPrototypeC1ERN3JSC12JSGlobalDataEPNS1_14JSGlobalObjectEPNS1_9StructureE@Base 2.2.0
 (optional=private|arch=s390x)_ZN7WebCore23JSSQLResultSetPrototypeC2ERN3JSC12JSGlobalDataEPNS1_14JSGlobalObjectEPNS1_9StructureE@Base 2.2.0
 (optional=private|arch=s390x)_ZN7WebCore23JSSVGAnimatedLengthList15createStructureERN3JSC12JSGlobalDataENS1_7JSValueE@Base 2.2.0
 (optional=private|arch=s390x)_ZN7WebCore23JSSVGAnimatedNumberList15createStructureERN3JSC12JSGlobalDataENS1_7JSValueE@Base 2.2.0
 (optional=private|arch=s390x)_ZN7WebCore23JSSVGElementConstructor15createStructureERN3JSC12JSGlobalDataENS1_7JSValueE@Base 2.2.0
 (optional=private|arch=s390x)_ZN7WebCore23JSSVGExceptionPrototype15createStructureERN3JSC12JSGlobalDataENS1_7JSValueE@Base 2.2.0
 (optional=private|arch=s390x)_ZN7WebCore23JSSVGExceptionPrototypeC1ERN3JSC12JSGlobalDataEPNS1_14JSGlobalObjectEPNS1_9StructureE@Base 2.2.0
 (optional=private|arch=s390x)_ZN7WebCore23JSSVGExceptionPrototypeC2ERN3JSC12JSGlobalDataEPNS1_14JSGlobalObjectEPNS1_9StructureE@Base 2.2.0
 (optional=private|arch=s390x)_ZN7WebCore23JSSVGFECompositeElement15createStructureERN3JSC12JSGlobalDataENS1_7JSValueE@Base 2.2.0
 (optional=private|arch=s390x)_ZN7WebCore23JSSVGFEMergeNodeElement15createStructureERN3JSC12JSGlobalDataENS1_7JSValueE@Base 2.2.0
 (optional=private|arch=s390x)_ZN7WebCore23JSSVGFESpotLightElement15createStructureERN3JSC12JSGlobalDataENS1_7JSValueE@Base 2.2.0
 (optional=private|arch=s390x)_ZN7WebCore23JSSVGFontFaceSrcElement15createStructureERN3JSC12JSGlobalDataENS1_7JSValueE@Base 2.2.0
 (optional=private|arch=s390x)_ZN7WebCore23JSSVGFontFaceUriElement15createStructureERN3JSC12JSGlobalDataENS1_7JSValueE@Base 2.2.0
 (optional=private|arch=s390x)_ZN7WebCore23JSSVGPathSegConstructor15createStructureERN3JSC12JSGlobalDataENS1_7JSValueE@Base 2.2.0
 (optional=private|arch=s390x)_ZN7WebCore23JSSVGPointListPrototype15createStructureERN3JSC12JSGlobalDataENS1_7JSValueE@Base 2.2.0
 (optional=private|arch=s390x)_ZN7WebCore23JSSVGPointListPrototypeC1ERN3JSC12JSGlobalDataEPNS1_14JSGlobalObjectEPNS1_9StructureE@Base 2.2.0
 (optional=private|arch=s390x)_ZN7WebCore23JSSVGPointListPrototypeC2ERN3JSC12JSGlobalDataEPNS1_14JSGlobalObjectEPNS1_9StructureE@Base 2.2.0
 (optional=private|arch=s390x)_ZN7WebCore23JSSVGTextContentElement15createStructureERN3JSC12JSGlobalDataENS1_7JSValueE@Base 2.2.0
 (optional=private|arch=s390x)_ZN7WebCore23JSSVGTransformPrototype15createStructureERN3JSC12JSGlobalDataENS1_7JSValueE@Base 2.2.0
 (optional=private|arch=s390x)_ZN7WebCore23JSSVGTransformPrototypeC1ERN3JSC12JSGlobalDataEPNS1_14JSGlobalObjectEPNS1_9StructureE@Base 2.2.0
 (optional=private|arch=s390x)_ZN7WebCore23JSSVGTransformPrototypeC2ERN3JSC12JSGlobalDataEPNS1_14JSGlobalObjectEPNS1_9StructureE@Base 2.2.0
 (optional=private|arch=s390x)_ZN7WebCore23JSSVGUnitTypesPrototype15createStructureERN3JSC12JSGlobalDataENS1_7JSValueE@Base 2.2.0
 (optional=private|arch=s390x)_ZN7WebCore23JSSVGUnitTypesPrototypeC1ERN3JSC12JSGlobalDataEPNS1_14JSGlobalObjectEPNS1_9StructureE@Base 2.2.0
 (optional=private|arch=s390x)_ZN7WebCore23JSSVGUnitTypesPrototypeC2ERN3JSC12JSGlobalDataEPNS1_14JSGlobalObjectEPNS1_9StructureE@Base 2.2.0
 (optional=private|arch=s390x)_ZN7WebCore23JSSVGZoomEventPrototype15createStructureERN3JSC12JSGlobalDataENS1_7JSValueE@Base 2.2.0
 (optional=private|arch=s390x)_ZN7WebCore23JSSVGZoomEventPrototypeC1ERN3JSC12JSGlobalDataEPNS1_14JSGlobalObjectEPNS1_9StructureE@Base 2.2.0
 (optional=private|arch=s390x)_ZN7WebCore23JSSVGZoomEventPrototypeC2ERN3JSC12JSGlobalDataEPNS1_14JSGlobalObjectEPNS1_9StructureE@Base 2.2.0
 (optional=private|arch=s390x)_ZN7WebCore23JSSharedWorkerPrototype15createStructureERN3JSC12JSGlobalDataENS1_7JSValueE@Base 2.2.0
 (optional=private|arch=s390x)_ZN7WebCore23JSSharedWorkerPrototypeC1ERN3JSC12JSGlobalDataEPNS1_14JSGlobalObjectEPNS1_9StructureE@Base 2.2.0
 (optional=private|arch=s390x)_ZN7WebCore23JSSharedWorkerPrototypeC2ERN3JSC12JSGlobalDataEPNS1_14JSGlobalObjectEPNS1_9StructureE@Base 2.2.0
 (optional=private|arch=s390x)_ZN7WebCore23JSStorageEventPrototype15createStructureERN3JSC12JSGlobalDataENS1_7JSValueE@Base 2.2.0
 (optional=private|arch=s390x)_ZN7WebCore23JSStorageEventPrototypeC1ERN3JSC12JSGlobalDataEPNS1_14JSGlobalObjectEPNS1_9StructureE@Base 2.2.0
 (optional=private|arch=s390x)_ZN7WebCore23JSStorageEventPrototypeC2ERN3JSC12JSGlobalDataEPNS1_14JSGlobalObjectEPNS1_9StructureE@Base 2.2.0
 (optional=private|arch=s390x)_ZN7WebCore23JSStyleMediaConstructor15createStructureERN3JSC12JSGlobalDataENS1_7JSValueE@Base 2.2.0
 (optional=private|arch=s390x)_ZN7WebCore23JSStyleSheetConstructor15createStructureERN3JSC12JSGlobalDataENS1_7JSValueE@Base 2.2.0
 (optional=private|arch=s390x)_ZN7WebCore23JSTimeRangesConstructor15createStructureERN3JSC12JSGlobalDataENS1_7JSValueE@Base 2.2.0
 (optional=private|arch=s390x)_ZN7WebCore23JSTouchEventConstructor15createStructureERN3JSC12JSGlobalDataENS1_7JSValueE@Base 2.2.0
 (optional=private|arch=s390x)_ZN7WebCore23JSTreeWalkerConstructor15createStructureERN3JSC12JSGlobalDataENS1_7JSValueE@Base 2.2.0
 (optional=private|arch=s390x)_ZN7WebCore23JSVoidCallbackPrototype15createStructureERN3JSC12JSGlobalDataENS1_7JSValueE@Base 2.2.0
 (optional=private|arch=s390x)_ZN7WebCore23JSVoidCallbackPrototypeC1ERN3JSC12JSGlobalDataEPNS1_14JSGlobalObjectEPNS1_9StructureE@Base 2.2.0
 (optional=private|arch=s390x)_ZN7WebCore23JSVoidCallbackPrototypeC2ERN3JSC12JSGlobalDataEPNS1_14JSGlobalObjectEPNS1_9StructureE@Base 2.2.0
 (optional=private|arch=s390x)_ZN7WebCore23JSWheelEventConstructor15createStructureERN3JSC12JSGlobalDataENS1_7JSValueE@Base 2.2.0
 (optional=private|arch=s390x)_ZN7WebCore24JSCSSImportRulePrototype15createStructureERN3JSC12JSGlobalDataENS1_7JSValueE@Base 2.2.0
 (optional=private|arch=s390x)_ZN7WebCore24JSCSSImportRulePrototypeC1ERN3JSC12JSGlobalDataEPNS1_14JSGlobalObjectEPNS1_9StructureE@Base 2.2.0
 (optional=private|arch=s390x)_ZN7WebCore24JSCSSImportRulePrototypeC2ERN3JSC12JSGlobalDataEPNS1_14JSGlobalObjectEPNS1_9StructureE@Base 2.2.0
 (optional=private|arch=s390x)_ZN7WebCore24JSCSSPageRuleConstructor15createStructureERN3JSC12JSGlobalDataENS1_7JSValueE@Base 2.2.0
 (optional=private|arch=s390x)_ZN7WebCore24JSCSSRuleListConstructor15createStructureERN3JSC12JSGlobalDataENS1_7JSValueE@Base 2.2.0
 (optional=private|arch=s390x)_ZN7WebCore24JSCSSStyleSheetPrototype15createStructureERN3JSC12JSGlobalDataENS1_7JSValueE@Base 2.2.0
 (optional=private|arch=s390x)_ZN7WebCore24JSCSSStyleSheetPrototypeC1ERN3JSC12JSGlobalDataEPNS1_14JSGlobalObjectEPNS1_9StructureE@Base 2.2.0
 (optional=private|arch=s390x)_ZN7WebCore24JSCSSStyleSheetPrototypeC2ERN3JSC12JSGlobalDataEPNS1_14JSGlobalObjectEPNS1_9StructureE@Base 2.2.0
 (optional=private|arch=s390x)_ZN7WebCore24JSCanvasPatternPrototype15createStructureERN3JSC12JSGlobalDataENS1_7JSValueE@Base 2.2.0
 (optional=private|arch=s390x)_ZN7WebCore24JSCanvasPatternPrototypeC1ERN3JSC12JSGlobalDataEPNS1_14JSGlobalObjectEPNS1_9StructureE@Base 2.2.0
 (optional=private|arch=s390x)_ZN7WebCore24JSCanvasPatternPrototypeC2ERN3JSC12JSGlobalDataEPNS1_14JSGlobalObjectEPNS1_9StructureE@Base 2.2.0
 (optional=private|arch=s390x)_ZN7WebCore24JSCanvasRenderingContext15createStructureERN3JSC12JSGlobalDataENS1_7JSValueE@Base 2.2.0
 (optional=private|arch=s390x)_ZN7WebCore24JSCharacterDataPrototype15createStructureERN3JSC12JSGlobalDataENS1_7JSValueE@Base 2.2.0
 (optional=private|arch=s390x)_ZN7WebCore24JSCharacterDataPrototypeC1ERN3JSC12JSGlobalDataEPNS1_14JSGlobalObjectEPNS1_9StructureE@Base 2.2.0
 (optional=private|arch=s390x)_ZN7WebCore24JSCharacterDataPrototypeC2ERN3JSC12JSGlobalDataEPNS1_14JSGlobalObjectEPNS1_9StructureE@Base 2.2.0
 (optional=private|arch=s390x)_ZN7WebCore24JSCustomEventConstructor15createStructureERN3JSC12JSGlobalDataENS1_7JSValueE@Base 2.2.0
 (optional=private|arch=s390x)_ZN7WebCore24JSDOMFormDataConstructor15createStructureERN3JSC12JSGlobalDataENS1_7JSValueE@Base 2.2.0
 (optional=private|arch=s390x)_ZN7WebCore24JSDOMImplementationOwnerC1Ev@Base 2.2.0
 (optional=private|arch=s390x)_ZN7WebCore24JSDOMImplementationOwnerC2Ev@Base 2.2.0
 (optional=private|arch=s390x)_ZN7WebCore24JSDOMMimeTypeConstructor15createStructureERN3JSC12JSGlobalDataENS1_7JSValueE@Base 2.2.0
 (optional=private|arch=s390x)_ZN7WebCore24JSDOMStringListPrototype15createStructureERN3JSC12JSGlobalDataENS1_7JSValueE@Base 2.2.0
 (optional=private|arch=s390x)_ZN7WebCore24JSDOMStringListPrototypeC1ERN3JSC12JSGlobalDataEPNS1_14JSGlobalObjectEPNS1_9StructureE@Base 2.2.0
 (optional=private|arch=s390x)_ZN7WebCore24JSDOMStringListPrototypeC2ERN3JSC12JSGlobalDataEPNS1_14JSGlobalObjectEPNS1_9StructureE@Base 2.2.0
 (optional=private|arch=s390x)_ZN7WebCore24JSFileExceptionPrototype15createStructureERN3JSC12JSGlobalDataENS1_7JSValueE@Base 2.2.0
 (optional=private|arch=s390x)_ZN7WebCore24JSFileExceptionPrototypeC1ERN3JSC12JSGlobalDataEPNS1_14JSGlobalObjectEPNS1_9StructureE@Base 2.2.0
 (optional=private|arch=s390x)_ZN7WebCore24JSFileExceptionPrototypeC2ERN3JSC12JSGlobalDataEPNS1_14JSGlobalObjectEPNS1_9StructureE@Base 2.2.0
 (optional=private|arch=s390x)_ZN7WebCore24JSHTMLBRElementPrototype15createStructureERN3JSC12JSGlobalDataENS1_7JSValueE@Base 2.2.0
 (optional=private|arch=s390x)_ZN7WebCore24JSHTMLBRElementPrototypeC1ERN3JSC12JSGlobalDataEPNS1_14JSGlobalObjectEPNS1_9StructureE@Base 2.2.0
 (optional=private|arch=s390x)_ZN7WebCore24JSHTMLBRElementPrototypeC2ERN3JSC12JSGlobalDataEPNS1_14JSGlobalObjectEPNS1_9StructureE@Base 2.2.0
 (optional=private|arch=s390x)_ZN7WebCore24JSHTMLElementConstructor15createStructureERN3JSC12JSGlobalDataENS1_7JSValueE@Base 2.2.0
 (optional=private|arch=s390x)_ZN7WebCore24JSHTMLHRElementPrototype15createStructureERN3JSC12JSGlobalDataENS1_7JSValueE@Base 2.2.0
 (optional=private|arch=s390x)_ZN7WebCore24JSHTMLHRElementPrototypeC1ERN3JSC12JSGlobalDataEPNS1_14JSGlobalObjectEPNS1_9StructureE@Base 2.2.0
 (optional=private|arch=s390x)_ZN7WebCore24JSHTMLHRElementPrototypeC2ERN3JSC12JSGlobalDataEPNS1_14JSGlobalObjectEPNS1_9StructureE@Base 2.2.0
 (optional=private|arch=s390x)_ZN7WebCore24JSHTMLLIElementPrototype15createStructureERN3JSC12JSGlobalDataENS1_7JSValueE@Base 2.2.0
 (optional=private|arch=s390x)_ZN7WebCore24JSHTMLLIElementPrototypeC1ERN3JSC12JSGlobalDataEPNS1_14JSGlobalObjectEPNS1_9StructureE@Base 2.2.0
 (optional=private|arch=s390x)_ZN7WebCore24JSHTMLLIElementPrototypeC2ERN3JSC12JSGlobalDataEPNS1_14JSGlobalObjectEPNS1_9StructureE@Base 2.2.0
 (optional=private|arch=s390x)_ZN7WebCore24JSKeyboardEventPrototype15createStructureERN3JSC12JSGlobalDataENS1_7JSValueE@Base 2.2.0
 (optional=private|arch=s390x)_ZN7WebCore24JSKeyboardEventPrototypeC1ERN3JSC12JSGlobalDataEPNS1_14JSGlobalObjectEPNS1_9StructureE@Base 2.2.0
 (optional=private|arch=s390x)_ZN7WebCore24JSKeyboardEventPrototypeC2ERN3JSC12JSGlobalDataEPNS1_14JSGlobalObjectEPNS1_9StructureE@Base 2.2.0
 (optional=private|arch=s390x)_ZN7WebCore24JSMessagePortConstructor15createStructureERN3JSC12JSGlobalDataENS1_7JSValueE@Base 2.2.0
 (optional=private|arch=s390x)_ZN7WebCore24JSMutationEventPrototype15createStructureERN3JSC12JSGlobalDataENS1_7JSValueE@Base 2.2.0
 (optional=private|arch=s390x)_ZN7WebCore24JSMutationEventPrototypeC1ERN3JSC12JSGlobalDataEPNS1_14JSGlobalObjectEPNS1_9StructureE@Base 2.2.0
 (optional=private|arch=s390x)_ZN7WebCore24JSMutationEventPrototypeC2ERN3JSC12JSGlobalDataEPNS1_14JSGlobalObjectEPNS1_9StructureE@Base 2.2.0
 (optional=private|arch=s390x)_ZN7WebCore24JSOverflowEventPrototype15createStructureERN3JSC12JSGlobalDataENS1_7JSValueE@Base 2.2.0
 (optional=private|arch=s390x)_ZN7WebCore24JSOverflowEventPrototypeC1ERN3JSC12JSGlobalDataEPNS1_14JSGlobalObjectEPNS1_9StructureE@Base 2.2.0
 (optional=private|arch=s390x)_ZN7WebCore24JSOverflowEventPrototypeC2ERN3JSC12JSGlobalDataEPNS1_14JSGlobalObjectEPNS1_9StructureE@Base 2.2.0
 (optional=private|arch=s390x)_ZN7WebCore24JSPopStateEventPrototype15createStructureERN3JSC12JSGlobalDataENS1_7JSValueE@Base 2.2.0
 (optional=private|arch=s390x)_ZN7WebCore24JSPopStateEventPrototypeC1ERN3JSC12JSGlobalDataEPNS1_14JSGlobalObjectEPNS1_9StructureE@Base 2.2.0
 (optional=private|arch=s390x)_ZN7WebCore24JSPopStateEventPrototypeC2ERN3JSC12JSGlobalDataEPNS1_14JSGlobalObjectEPNS1_9StructureE@Base 2.2.0
 (optional=private|arch=s390x)_ZN7WebCore24JSProgressEventPrototype15createStructureERN3JSC12JSGlobalDataENS1_7JSValueE@Base 2.2.0
 (optional=private|arch=s390x)_ZN7WebCore24JSProgressEventPrototypeC1ERN3JSC12JSGlobalDataEPNS1_14JSGlobalObjectEPNS1_9StructureE@Base 2.2.0
 (optional=private|arch=s390x)_ZN7WebCore24JSProgressEventPrototypeC2ERN3JSC12JSGlobalDataEPNS1_14JSGlobalObjectEPNS1_9StructureE@Base 2.2.0
 (optional=private|arch=s390x)_ZN7WebCore24JSSQLTransactionCallback6createEPN3JSC8JSObjectEPNS_17JSDOMGlobalObjectE@Base 2.2.0
 (optional=private|arch=s390x)_ZN7WebCore24JSSVGAElementConstructor15createStructureERN3JSC12JSGlobalDataENS1_7JSValueE@Base 2.2.0
 (optional=private|arch=s390x)_ZN7WebCore24JSSVGAnimateColorElement15createStructureERN3JSC12JSGlobalDataENS1_7JSValueE@Base 2.2.0
 (optional=private|arch=s390x)_ZN7WebCore24JSSVGAnimatedEnumeration15createStructureERN3JSC12JSGlobalDataENS1_7JSValueE@Base 2.2.0
 (optional=private|arch=s390x)_ZN7WebCore24JSSVGDocumentConstructor15createStructureERN3JSC12JSGlobalDataENS1_7JSValueE@Base 2.2.0
 (optional=private|arch=s390x)_ZN7WebCore24JSSVGElementInstanceList15createStructureERN3JSC12JSGlobalDataENS1_7JSValueE@Base 2.2.0
 (optional=private|arch=s390x)_ZN7WebCore24JSSVGFEDropShadowElement15createStructureERN3JSC12JSGlobalDataENS1_7JSValueE@Base 2.2.0
 (optional=private|arch=s390x)_ZN7WebCore24JSSVGFEMorphologyElement15createStructureERN3JSC12JSGlobalDataENS1_7JSValueE@Base 2.2.0
 (optional=private|arch=s390x)_ZN7WebCore24JSSVGFEPointLightElement15createStructureERN3JSC12JSGlobalDataENS1_7JSValueE@Base 2.2.0
 (optional=private|arch=s390x)_ZN7WebCore24JSSVGFETurbulenceElement15createStructureERN3JSC12JSGlobalDataENS1_7JSValueE@Base 2.2.0
 (optional=private|arch=s390x)_ZN7WebCore24JSSVGFontFaceNameElement15createStructureERN3JSC12JSGlobalDataENS1_7JSValueE@Base 2.2.0
 (optional=private|arch=s390x)_ZN7WebCore24JSSVGGElementConstructor15createStructureERN3JSC12JSGlobalDataENS1_7JSValueE@Base 2.2.0
 (optional=private|arch=s390x)_ZN7WebCore24JSSVGLengthListPrototype15createStructureERN3JSC12JSGlobalDataENS1_7JSValueE@Base 2.2.0
 (optional=private|arch=s390x)_ZN7WebCore24JSSVGLengthListPrototypeC1ERN3JSC12JSGlobalDataEPNS1_14JSGlobalObjectEPNS1_9StructureE@Base 2.2.0
 (optional=private|arch=s390x)_ZN7WebCore24JSSVGLengthListPrototypeC2ERN3JSC12JSGlobalDataEPNS1_14JSGlobalObjectEPNS1_9StructureE@Base 2.2.0
 (optional=private|arch=s390x)_ZN7WebCore24JSSVGMissingGlyphElement15createStructureERN3JSC12JSGlobalDataENS1_7JSValueE@Base 2.2.0
 (optional=private|arch=s390x)_ZN7WebCore24JSSVGNumberListPrototype15createStructureERN3JSC12JSGlobalDataENS1_7JSValueE@Base 2.2.0
 (optional=private|arch=s390x)_ZN7WebCore24JSSVGNumberListPrototypeC1ERN3JSC12JSGlobalDataEPNS1_14JSGlobalObjectEPNS1_9StructureE@Base 2.2.0
 (optional=private|arch=s390x)_ZN7WebCore24JSSVGNumberListPrototypeC2ERN3JSC12JSGlobalDataEPNS1_14JSGlobalObjectEPNS1_9StructureE@Base 2.2.0
 (optional=private|arch=s390x)_ZN7WebCore24JSSVGPreserveAspectRatio15createStructureERN3JSC12JSGlobalDataENS1_7JSValueE@Base 2.2.0
 (optional=private|arch=s390x)_ZN7WebCore24JSSVGSVGElementPrototype15createStructureERN3JSC12JSGlobalDataENS1_7JSValueE@Base 2.2.0
 (optional=private|arch=s390x)_ZN7WebCore24JSSVGSVGElementPrototypeC1ERN3JSC12JSGlobalDataEPNS1_14JSGlobalObjectEPNS1_9StructureE@Base 2.2.0
 (optional=private|arch=s390x)_ZN7WebCore24JSSVGSVGElementPrototypeC2ERN3JSC12JSGlobalDataEPNS1_14JSGlobalObjectEPNS1_9StructureE@Base 2.2.0
 (optional=private|arch=s390x)_ZN7WebCore24JSSVGSetElementPrototype15createStructureERN3JSC12JSGlobalDataENS1_7JSValueE@Base 2.2.0
 (optional=private|arch=s390x)_ZN7WebCore24JSSVGSetElementPrototypeC1ERN3JSC12JSGlobalDataEPNS1_14JSGlobalObjectEPNS1_9StructureE@Base 2.2.0
 (optional=private|arch=s390x)_ZN7WebCore24JSSVGSetElementPrototypeC2ERN3JSC12JSGlobalDataEPNS1_14JSGlobalObjectEPNS1_9StructureE@Base 2.2.0
 (optional=private|arch=s390x)_ZN7WebCore24JSSVGStringListPrototype15createStructureERN3JSC12JSGlobalDataENS1_7JSValueE@Base 2.2.0
 (optional=private|arch=s390x)_ZN7WebCore24JSSVGStringListPrototypeC1ERN3JSC12JSGlobalDataEPNS1_14JSGlobalObjectEPNS1_9StructureE@Base 2.2.0
 (optional=private|arch=s390x)_ZN7WebCore24JSSVGStringListPrototypeC2ERN3JSC12JSGlobalDataEPNS1_14JSGlobalObjectEPNS1_9StructureE@Base 2.2.0
 (optional=private|arch=s390x)_ZN7WebCore24JSSVGUseElementPrototype15createStructureERN3JSC12JSGlobalDataENS1_7JSValueE@Base 2.2.0
 (optional=private|arch=s390x)_ZN7WebCore24JSSVGUseElementPrototypeC1ERN3JSC12JSGlobalDataEPNS1_14JSGlobalObjectEPNS1_9StructureE@Base 2.2.0
 (optional=private|arch=s390x)_ZN7WebCore24JSSVGUseElementPrototypeC2ERN3JSC12JSGlobalDataEPNS1_14JSGlobalObjectEPNS1_9StructureE@Base 2.2.0
 (optional=private|arch=s390x)_ZN7WebCore24JSScriptProfilePrototype15createStructureERN3JSC12JSGlobalDataENS1_7JSValueE@Base 2.2.0
 (optional=private|arch=s390x)_ZN7WebCore24JSScriptProfilePrototypeC1ERN3JSC12JSGlobalDataEPNS1_14JSGlobalObjectEPNS1_9StructureE@Base 2.2.0
 (optional=private|arch=s390x)_ZN7WebCore24JSScriptProfilePrototypeC2ERN3JSC12JSGlobalDataEPNS1_14JSGlobalObjectEPNS1_9StructureE@Base 2.2.0
 (optional=private|arch=s390x)_ZN7WebCore24JSTextMetricsConstructor15createStructureERN3JSC12JSGlobalDataENS1_7JSValueE@Base 2.2.0
 (optional=private|arch=s390x)_ZN7WebCore24JSValidityStatePrototype15createStructureERN3JSC12JSGlobalDataENS1_7JSValueE@Base 2.2.0
 (optional=private|arch=s390x)_ZN7WebCore24JSValidityStatePrototypeC1ERN3JSC12JSGlobalDataEPNS1_14JSGlobalObjectEPNS1_9StructureE@Base 2.2.0
 (optional=private|arch=s390x)_ZN7WebCore24JSValidityStatePrototypeC2ERN3JSC12JSGlobalDataEPNS1_14JSGlobalObjectEPNS1_9StructureE@Base 2.2.0
 (optional=private|arch=s390x)_ZN7WebCore24JSXMLSerializerPrototype15createStructureERN3JSC12JSGlobalDataENS1_7JSValueE@Base 2.2.0
 (optional=private|arch=s390x)_ZN7WebCore24JSXMLSerializerPrototypeC1ERN3JSC12JSGlobalDataEPNS1_14JSGlobalObjectEPNS1_9StructureE@Base 2.2.0
 (optional=private|arch=s390x)_ZN7WebCore24JSXMLSerializerPrototypeC2ERN3JSC12JSGlobalDataEPNS1_14JSGlobalObjectEPNS1_9StructureE@Base 2.2.0
 (optional=private|arch=s390x)_ZN7WebCore24JSXPathResultConstructor15createStructureERN3JSC12JSGlobalDataENS1_7JSValueE@Base 2.2.0
 (optional=private|arch=s390x)_ZN7WebCore24SVGPathSegLinetoVertical4setYEf@Base 2.2.0
 (optional=templinst|arch=s390x)_ZN7WebCore24SVGStaticPropertyTearOffINS_13SVGSVGElementENS_10FloatPointEE6createEPS1_RS2_MS1_FvvE@Base 2.2.0
 (optional=templinst|arch=s390x)_ZN7WebCore24SVGStaticPropertyTearOffINS_13SVGSVGElementENS_10FloatPointEEC1EPS1_RS2_MS1_FvvE@Base 2.2.0
 (optional=templinst|arch=s390x)_ZN7WebCore24SVGStaticPropertyTearOffINS_13SVGSVGElementENS_10FloatPointEEC2EPS1_RS2_MS1_FvvE@Base 2.2.0
 (optional=private|arch=s390x)_ZN7WebCore25JSAbstractWorkerPrototype15createStructureERN3JSC12JSGlobalDataENS1_7JSValueE@Base 2.2.0
 (optional=private|arch=s390x)_ZN7WebCore25JSAbstractWorkerPrototypeC1ERN3JSC12JSGlobalDataEPNS1_14JSGlobalObjectEPNS1_9StructureE@Base 2.2.0
 (optional=private|arch=s390x)_ZN7WebCore25JSAbstractWorkerPrototypeC2ERN3JSC12JSGlobalDataEPNS1_14JSGlobalObjectEPNS1_9StructureE@Base 2.2.0
 (optional=private|arch=s390x)_ZN7WebCore25JSCDATASectionConstructor15createStructureERN3JSC12JSGlobalDataENS1_7JSValueE@Base 2.2.0
 (optional=private|arch=s390x)_ZN7WebCore25JSCSSCharsetRulePrototype15createStructureERN3JSC12JSGlobalDataENS1_7JSValueE@Base 2.2.0
 (optional=private|arch=s390x)_ZN7WebCore25JSCSSCharsetRulePrototypeC1ERN3JSC12JSGlobalDataEPNS1_14JSGlobalObjectEPNS1_9StructureE@Base 2.2.0
 (optional=private|arch=s390x)_ZN7WebCore25JSCSSCharsetRulePrototypeC2ERN3JSC12JSGlobalDataEPNS1_14JSGlobalObjectEPNS1_9StructureE@Base 2.2.0
 (optional=private|arch=s390x)_ZN7WebCore25JSCSSMediaRuleConstructor15createStructureERN3JSC12JSGlobalDataENS1_7JSValueE@Base 2.2.0
 (optional=private|arch=s390x)_ZN7WebCore25JSCSSStyleRuleConstructor15createStructureERN3JSC12JSGlobalDataENS1_7JSValueE@Base 2.2.0
 (optional=private|arch=s390x)_ZN7WebCore25JSCSSValueListConstructor15createStructureERN3JSC12JSGlobalDataENS1_7JSValueE@Base 2.2.0
 (optional=private|arch=s390x)_ZN7WebCore25JSCanvasGradientPrototype15createStructureERN3JSC12JSGlobalDataENS1_7JSValueE@Base 2.2.0
 (optional=private|arch=s390x)_ZN7WebCore25JSCanvasGradientPrototypeC1ERN3JSC12JSGlobalDataEPNS1_14JSGlobalObjectEPNS1_9StructureE@Base 2.2.0
 (optional=private|arch=s390x)_ZN7WebCore25JSCanvasGradientPrototypeC2ERN3JSC12JSGlobalDataEPNS1_14JSGlobalObjectEPNS1_9StructureE@Base 2.2.0
 (optional=private|arch=s390x)_ZN7WebCore25JSClientRectListPrototype15createStructureERN3JSC12JSGlobalDataENS1_7JSValueE@Base 2.2.0
 (optional=private|arch=s390x)_ZN7WebCore25JSClientRectListPrototypeC1ERN3JSC12JSGlobalDataEPNS1_14JSGlobalObjectEPNS1_9StructureE@Base 2.2.0
 (optional=private|arch=s390x)_ZN7WebCore25JSClientRectListPrototypeC2ERN3JSC12JSGlobalDataEPNS1_14JSGlobalObjectEPNS1_9StructureE@Base 2.2.0
 (optional=private|arch=s390x)_ZN7WebCore25JSDOMPluginArrayPrototype15createStructureERN3JSC12JSGlobalDataENS1_7JSValueE@Base 2.2.0
 (optional=private|arch=s390x)_ZN7WebCore25JSDOMPluginArrayPrototypeC1ERN3JSC12JSGlobalDataEPNS1_14JSGlobalObjectEPNS1_9StructureE@Base 2.2.0
 (optional=private|arch=s390x)_ZN7WebCore25JSDOMPluginArrayPrototypeC2ERN3JSC12JSGlobalDataEPNS1_14JSGlobalObjectEPNS1_9StructureE@Base 2.2.0
 (optional=private|arch=s390x)_ZN7WebCore25JSDOMStringMapConstructor15createStructureERN3JSC12JSGlobalDataENS1_7JSValueE@Base 2.2.0
 (optional=private|arch=s390x)_ZN7WebCore25JSDOMTokenListConstructor15createStructureERN3JSC12JSGlobalDataENS1_7JSValueE@Base 2.2.0
 (optional=private|arch=s390x)_ZN7WebCore25JSDocumentTypeConstructor15createStructureERN3JSC12JSGlobalDataENS1_7JSValueE@Base 2.2.0
 (optional=private|arch=s390x)_ZN7WebCore25JSEventExceptionPrototype15createStructureERN3JSC12JSGlobalDataENS1_7JSValueE@Base 2.2.0
 (optional=private|arch=s390x)_ZN7WebCore25JSEventExceptionPrototypeC1ERN3JSC12JSGlobalDataEPNS1_14JSGlobalObjectEPNS1_9StructureE@Base 2.2.0
 (optional=private|arch=s390x)_ZN7WebCore25JSEventExceptionPrototypeC2ERN3JSC12JSGlobalDataEPNS1_14JSGlobalObjectEPNS1_9StructureE@Base 2.2.0
 (optional=private|arch=s390x)_ZN7WebCore25JSFileReaderSyncPrototype15createStructureERN3JSC12JSGlobalDataENS1_7JSValueE@Base 2.2.0
 (optional=private|arch=s390x)_ZN7WebCore25JSFileReaderSyncPrototypeC1ERN3JSC12JSGlobalDataEPNS1_14JSGlobalObjectEPNS1_9StructureE@Base 2.2.0
 (optional=private|arch=s390x)_ZN7WebCore25JSFileReaderSyncPrototypeC2ERN3JSC12JSGlobalDataEPNS1_14JSGlobalObjectEPNS1_9StructureE@Base 2.2.0
 (optional=private|arch=s390x)_ZN7WebCore25JSHTMLCollectionPrototype15createStructureERN3JSC12JSGlobalDataENS1_7JSValueE@Base 2.2.0
 (optional=private|arch=s390x)_ZN7WebCore25JSHTMLCollectionPrototypeC1ERN3JSC12JSGlobalDataEPNS1_14JSGlobalObjectEPNS1_9StructureE@Base 2.2.0
 (optional=private|arch=s390x)_ZN7WebCore25JSHTMLCollectionPrototypeC2ERN3JSC12JSGlobalDataEPNS1_14JSGlobalObjectEPNS1_9StructureE@Base 2.2.0
 (optional=private|arch=s390x)_ZN7WebCore25JSHTMLDivElementPrototype15createStructureERN3JSC12JSGlobalDataENS1_7JSValueE@Base 2.2.0
 (optional=private|arch=s390x)_ZN7WebCore25JSHTMLDivElementPrototypeC1ERN3JSC12JSGlobalDataEPNS1_14JSGlobalObjectEPNS1_9StructureE@Base 2.2.0
 (optional=private|arch=s390x)_ZN7WebCore25JSHTMLDivElementPrototypeC2ERN3JSC12JSGlobalDataEPNS1_14JSGlobalObjectEPNS1_9StructureE@Base 2.2.0
 (optional=private|arch=s390x)_ZN7WebCore25JSHTMLDocumentConstructor15createStructureERN3JSC12JSGlobalDataENS1_7JSValueE@Base 2.2.0
 (optional=private|arch=s390x)_ZN7WebCore25JSHTMLMapElementPrototype15createStructureERN3JSC12JSGlobalDataENS1_7JSValueE@Base 2.2.0
 (optional=private|arch=s390x)_ZN7WebCore25JSHTMLMapElementPrototypeC1ERN3JSC12JSGlobalDataEPNS1_14JSGlobalObjectEPNS1_9StructureE@Base 2.2.0
 (optional=private|arch=s390x)_ZN7WebCore25JSHTMLMapElementPrototypeC2ERN3JSC12JSGlobalDataEPNS1_14JSGlobalObjectEPNS1_9StructureE@Base 2.2.0
 (optional=private|arch=s390x)_ZN7WebCore25JSHTMLModElementPrototype15createStructureERN3JSC12JSGlobalDataENS1_7JSValueE@Base 2.2.0
 (optional=private|arch=s390x)_ZN7WebCore25JSHTMLModElementPrototypeC1ERN3JSC12JSGlobalDataEPNS1_14JSGlobalObjectEPNS1_9StructureE@Base 2.2.0
 (optional=private|arch=s390x)_ZN7WebCore25JSHTMLModElementPrototypeC2ERN3JSC12JSGlobalDataEPNS1_14JSGlobalObjectEPNS1_9StructureE@Base 2.2.0
 (optional=private|arch=s390x)_ZN7WebCore25JSHTMLPreElementPrototype15createStructureERN3JSC12JSGlobalDataENS1_7JSValueE@Base 2.2.0
 (optional=private|arch=s390x)_ZN7WebCore25JSHTMLPreElementPrototypeC1ERN3JSC12JSGlobalDataEPNS1_14JSGlobalObjectEPNS1_9StructureE@Base 2.2.0
 (optional=private|arch=s390x)_ZN7WebCore25JSHTMLPreElementPrototypeC2ERN3JSC12JSGlobalDataEPNS1_14JSGlobalObjectEPNS1_9StructureE@Base 2.2.0
 (optional=private|arch=s390x)_ZN7WebCore25JSHTMLTableCaptionElement15createStructureERN3JSC12JSGlobalDataENS1_7JSValueE@Base 2.2.0
 (optional=private|arch=s390x)_ZN7WebCore25JSHTMLTableSectionElement15createStructureERN3JSC12JSGlobalDataENS1_7JSValueE@Base 2.2.0
 (optional=private|arch=s390x)_ZN7WebCore25JSMediaQueryListPrototype15createStructureERN3JSC12JSGlobalDataENS1_7JSValueE@Base 2.2.0
 (optional=private|arch=s390x)_ZN7WebCore25JSMediaQueryListPrototypeC1ERN3JSC12JSGlobalDataEPNS1_14JSGlobalObjectEPNS1_9StructureE@Base 2.2.0
 (optional=private|arch=s390x)_ZN7WebCore25JSMediaQueryListPrototypeC2ERN3JSC12JSGlobalDataEPNS1_14JSGlobalObjectEPNS1_9StructureE@Base 2.2.0
 (optional=private|arch=s390x)_ZN7WebCore25JSMessageChannelPrototype15createStructureERN3JSC12JSGlobalDataENS1_7JSValueE@Base 2.2.0
 (optional=private|arch=s390x)_ZN7WebCore25JSMessageChannelPrototypeC1ERN3JSC12JSGlobalDataEPNS1_14JSGlobalObjectEPNS1_9StructureE@Base 2.2.0
 (optional=private|arch=s390x)_ZN7WebCore25JSMessageChannelPrototypeC2ERN3JSC12JSGlobalDataEPNS1_14JSGlobalObjectEPNS1_9StructureE@Base 2.2.0
 (optional=private|arch=s390x)_ZN7WebCore25JSMessageEventConstructor15createStructureERN3JSC12JSGlobalDataENS1_7JSValueE@Base 2.2.0
 (optional=private|arch=s390x)_ZN7WebCore25JSNamedNodeMapConstructor15createStructureERN3JSC12JSGlobalDataENS1_7JSValueE@Base 2.2.0
 (optional=private|arch=s390x)_ZN7WebCore25JSNodeIteratorConstructor15createStructureERN3JSC12JSGlobalDataENS1_7JSValueE@Base 2.2.0
 (optional=private|arch=s390x)_ZN7WebCore25JSNotificationCenterOwnerC1Ev@Base 2.2.0
 (optional=private|arch=s390x)_ZN7WebCore25JSNotificationCenterOwnerC2Ev@Base 2.2.0
 (optional=private|arch=s390x)_ZN7WebCore25JSRangeExceptionPrototype15createStructureERN3JSC12JSGlobalDataENS1_7JSValueE@Base 2.2.0
 (optional=private|arch=s390x)_ZN7WebCore25JSRangeExceptionPrototypeC1ERN3JSC12JSGlobalDataEPNS1_14JSGlobalObjectEPNS1_9StructureE@Base 2.2.0
 (optional=private|arch=s390x)_ZN7WebCore25JSRangeExceptionPrototypeC2ERN3JSC12JSGlobalDataEPNS1_14JSGlobalObjectEPNS1_9StructureE@Base 2.2.0
 (optional=private|arch=s390x)_ZN7WebCore25JSSQLExceptionConstructor15createStructureERN3JSC12JSGlobalDataENS1_7JSValueE@Base 2.2.0
 (optional=private|arch=s390x)_ZN7WebCore25JSSQLTransactionPrototype15createStructureERN3JSC12JSGlobalDataENS1_7JSValueE@Base 2.2.0
 (optional=private|arch=s390x)_ZN7WebCore25JSSQLTransactionPrototypeC1ERN3JSC12JSGlobalDataEPNS1_14JSGlobalObjectEPNS1_9StructureE@Base 2.2.0
 (optional=private|arch=s390x)_ZN7WebCore25JSSQLTransactionPrototypeC2ERN3JSC12JSGlobalDataEPNS1_14JSGlobalObjectEPNS1_9StructureE@Base 2.2.0
 (optional=private|arch=s390x)_ZN7WebCore25JSSVGDefsElementPrototype15createStructureERN3JSC12JSGlobalDataENS1_7JSValueE@Base 2.2.0
 (optional=private|arch=s390x)_ZN7WebCore25JSSVGDefsElementPrototypeC1ERN3JSC12JSGlobalDataEPNS1_14JSGlobalObjectEPNS1_9StructureE@Base 2.2.0
 (optional=private|arch=s390x)_ZN7WebCore25JSSVGDefsElementPrototypeC2ERN3JSC12JSGlobalDataEPNS1_14JSGlobalObjectEPNS1_9StructureE@Base 2.2.0
 (optional=private|arch=s390x)_ZN7WebCore25JSSVGDescElementPrototype15createStructureERN3JSC12JSGlobalDataENS1_7JSValueE@Base 2.2.0
 (optional=private|arch=s390x)_ZN7WebCore25JSSVGDescElementPrototypeC1ERN3JSC12JSGlobalDataEPNS1_14JSGlobalObjectEPNS1_9StructureE@Base 2.2.0
 (optional=private|arch=s390x)_ZN7WebCore25JSSVGDescElementPrototypeC2ERN3JSC12JSGlobalDataEPNS1_14JSGlobalObjectEPNS1_9StructureE@Base 2.2.0
 (optional=private|arch=s390x)_ZN7WebCore25JSSVGExceptionConstructor15createStructureERN3JSC12JSGlobalDataENS1_7JSValueE@Base 2.2.0
 (optional=private|arch=s390x)_ZN7WebCore25JSSVGFEColorMatrixElement15createStructureERN3JSC12JSGlobalDataENS1_7JSValueE@Base 2.2.0
 (optional=private|arch=s390x)_ZN7WebCore25JSSVGFontElementPrototype15createStructureERN3JSC12JSGlobalDataENS1_7JSValueE@Base 2.2.0
 (optional=private|arch=s390x)_ZN7WebCore25JSSVGFontElementPrototypeC1ERN3JSC12JSGlobalDataEPNS1_14JSGlobalObjectEPNS1_9StructureE@Base 2.2.0
 (optional=private|arch=s390x)_ZN7WebCore25JSSVGFontElementPrototypeC2ERN3JSC12JSGlobalDataEPNS1_14JSGlobalObjectEPNS1_9StructureE@Base 2.2.0
 (optional=private|arch=s390x)_ZN7WebCore25JSSVGForeignObjectElement15createStructureERN3JSC12JSGlobalDataENS1_7JSValueE@Base 2.2.0
 (optional=private|arch=s390x)_ZN7WebCore25JSSVGLineElementPrototype15createStructureERN3JSC12JSGlobalDataENS1_7JSValueE@Base 2.2.0
 (optional=private|arch=s390x)_ZN7WebCore25JSSVGLineElementPrototypeC1ERN3JSC12JSGlobalDataEPNS1_14JSGlobalObjectEPNS1_9StructureE@Base 2.2.0
 (optional=private|arch=s390x)_ZN7WebCore25JSSVGLineElementPrototypeC2ERN3JSC12JSGlobalDataEPNS1_14JSGlobalObjectEPNS1_9StructureE@Base 2.2.0
 (optional=private|arch=s390x)_ZN7WebCore25JSSVGMaskElementPrototype15createStructureERN3JSC12JSGlobalDataENS1_7JSValueE@Base 2.2.0
 (optional=private|arch=s390x)_ZN7WebCore25JSSVGMaskElementPrototypeC1ERN3JSC12JSGlobalDataEPNS1_14JSGlobalObjectEPNS1_9StructureE@Base 2.2.0
 (optional=private|arch=s390x)_ZN7WebCore25JSSVGMaskElementPrototypeC2ERN3JSC12JSGlobalDataEPNS1_14JSGlobalObjectEPNS1_9StructureE@Base 2.2.0
 (optional=private|arch=s390x)_ZN7WebCore25JSSVGPathElementPrototype15createStructureERN3JSC12JSGlobalDataENS1_7JSValueE@Base 2.2.0
 (optional=private|arch=s390x)_ZN7WebCore25JSSVGPathElementPrototypeC1ERN3JSC12JSGlobalDataEPNS1_14JSGlobalObjectEPNS1_9StructureE@Base 2.2.0
 (optional=private|arch=s390x)_ZN7WebCore25JSSVGPathElementPrototypeC2ERN3JSC12JSGlobalDataEPNS1_14JSGlobalObjectEPNS1_9StructureE@Base 2.2.0
 (optional=private|arch=s390x)_ZN7WebCore25JSSVGPathSegListPrototype15createStructureERN3JSC12JSGlobalDataENS1_7JSValueE@Base 2.2.0
 (optional=private|arch=s390x)_ZN7WebCore25JSSVGPathSegListPrototypeC1ERN3JSC12JSGlobalDataEPNS1_14JSGlobalObjectEPNS1_9StructureE@Base 2.2.0
 (optional=private|arch=s390x)_ZN7WebCore25JSSVGPathSegListPrototypeC2ERN3JSC12JSGlobalDataEPNS1_14JSGlobalObjectEPNS1_9StructureE@Base 2.2.0
 (optional=private|arch=s390x)_ZN7WebCore25JSSVGPointListConstructor15createStructureERN3JSC12JSGlobalDataENS1_7JSValueE@Base 2.2.0
 (optional=private|arch=s390x)_ZN7WebCore25JSSVGRectElementPrototype15createStructureERN3JSC12JSGlobalDataENS1_7JSValueE@Base 2.2.0
 (optional=private|arch=s390x)_ZN7WebCore25JSSVGRectElementPrototypeC1ERN3JSC12JSGlobalDataEPNS1_14JSGlobalObjectEPNS1_9StructureE@Base 2.2.0
 (optional=private|arch=s390x)_ZN7WebCore25JSSVGRectElementPrototypeC2ERN3JSC12JSGlobalDataEPNS1_14JSGlobalObjectEPNS1_9StructureE@Base 2.2.0
 (optional=private|arch=s390x)_ZN7WebCore25JSSVGStopElementPrototype15createStructureERN3JSC12JSGlobalDataENS1_7JSValueE@Base 2.2.0
 (optional=private|arch=s390x)_ZN7WebCore25JSSVGStopElementPrototypeC1ERN3JSC12JSGlobalDataEPNS1_14JSGlobalObjectEPNS1_9StructureE@Base 2.2.0
 (optional=private|arch=s390x)_ZN7WebCore25JSSVGStopElementPrototypeC2ERN3JSC12JSGlobalDataEPNS1_14JSGlobalObjectEPNS1_9StructureE@Base 2.2.0
 (optional=private|arch=s390x)_ZN7WebCore25JSSVGTRefElementPrototype15createStructureERN3JSC12JSGlobalDataENS1_7JSValueE@Base 2.2.0
 (optional=private|arch=s390x)_ZN7WebCore25JSSVGTRefElementPrototypeC1ERN3JSC12JSGlobalDataEPNS1_14JSGlobalObjectEPNS1_9StructureE@Base 2.2.0
 (optional=private|arch=s390x)_ZN7WebCore25JSSVGTRefElementPrototypeC2ERN3JSC12JSGlobalDataEPNS1_14JSGlobalObjectEPNS1_9StructureE@Base 2.2.0
 (optional=private|arch=s390x)_ZN7WebCore25JSSVGTextElementPrototype15createStructureERN3JSC12JSGlobalDataENS1_7JSValueE@Base 2.2.0
 (optional=private|arch=s390x)_ZN7WebCore25JSSVGTextElementPrototypeC1ERN3JSC12JSGlobalDataEPNS1_14JSGlobalObjectEPNS1_9StructureE@Base 2.2.0
 (optional=private|arch=s390x)_ZN7WebCore25JSSVGTextElementPrototypeC2ERN3JSC12JSGlobalDataEPNS1_14JSGlobalObjectEPNS1_9StructureE@Base 2.2.0
 (optional=private|arch=s390x)_ZN7WebCore25JSSVGTransformConstructor15createStructureERN3JSC12JSGlobalDataENS1_7JSValueE@Base 2.2.0
 (optional=private|arch=s390x)_ZN7WebCore25JSSVGUnitTypesConstructor15createStructureERN3JSC12JSGlobalDataENS1_7JSValueE@Base 2.2.0
 (optional=private|arch=s390x)_ZN7WebCore25JSSVGViewElementPrototype15createStructureERN3JSC12JSGlobalDataENS1_7JSValueE@Base 2.2.0
 (optional=private|arch=s390x)_ZN7WebCore25JSSVGViewElementPrototypeC1ERN3JSC12JSGlobalDataEPNS1_14JSGlobalObjectEPNS1_9StructureE@Base 2.2.0
 (optional=private|arch=s390x)_ZN7WebCore25JSSVGViewElementPrototypeC2ERN3JSC12JSGlobalDataEPNS1_14JSGlobalObjectEPNS1_9StructureE@Base 2.2.0
 (optional=private|arch=s390x)_ZN7WebCore25JSSVGZoomEventConstructor15createStructureERN3JSC12JSGlobalDataENS1_7JSValueE@Base 2.2.0
 (optional=private|arch=s390x)_ZN7WebCore25JSStorageEventConstructor15createStructureERN3JSC12JSGlobalDataENS1_7JSValueE@Base 2.2.0
 (optional=private|arch=s390x)_ZN7WebCore25JSStyleSheetListPrototype15createStructureERN3JSC12JSGlobalDataENS1_7JSValueE@Base 2.2.0
 (optional=private|arch=s390x)_ZN7WebCore25JSStyleSheetListPrototypeC1ERN3JSC12JSGlobalDataEPNS1_14JSGlobalObjectEPNS1_9StructureE@Base 2.2.0
 (optional=private|arch=s390x)_ZN7WebCore25JSStyleSheetListPrototypeC2ERN3JSC12JSGlobalDataEPNS1_14JSGlobalObjectEPNS1_9StructureE@Base 2.2.0
 (optional=private|arch=s390x)_ZN7WebCore25JSWorkerLocationPrototype15createStructureERN3JSC12JSGlobalDataENS1_7JSValueE@Base 2.2.0
 (optional=private|arch=s390x)_ZN7WebCore25JSWorkerLocationPrototypeC1ERN3JSC12JSGlobalDataEPNS1_14JSGlobalObjectEPNS1_9StructureE@Base 2.2.0
 (optional=private|arch=s390x)_ZN7WebCore25JSWorkerLocationPrototypeC2ERN3JSC12JSGlobalDataEPNS1_14JSGlobalObjectEPNS1_9StructureE@Base 2.2.0
 (optional=private|arch=s390x)_ZN7WebCore25JSXMLHttpRequestException15createStructureERN3JSC12JSGlobalDataENS1_7JSValueE@Base 2.2.0
 (optional=private|arch=s390x)_ZN7WebCore25JSXMLHttpRequestPrototype15createStructureERN3JSC12JSGlobalDataENS1_7JSValueE@Base 2.2.0
 (optional=private|arch=s390x)_ZN7WebCore25JSXMLHttpRequestPrototypeC1ERN3JSC12JSGlobalDataEPNS1_14JSGlobalObjectEPNS1_9StructureE@Base 2.2.0
 (optional=private|arch=s390x)_ZN7WebCore25JSXMLHttpRequestPrototypeC2ERN3JSC12JSGlobalDataEPNS1_14JSGlobalObjectEPNS1_9StructureE@Base 2.2.0
 (optional=private|arch=s390x)_ZN7WebCore25JSXPathEvaluatorPrototype15createStructureERN3JSC12JSGlobalDataENS1_7JSValueE@Base 2.2.0
 (optional=private|arch=s390x)_ZN7WebCore25JSXPathEvaluatorPrototypeC1ERN3JSC12JSGlobalDataEPNS1_14JSGlobalObjectEPNS1_9StructureE@Base 2.2.0
 (optional=private|arch=s390x)_ZN7WebCore25JSXPathEvaluatorPrototypeC2ERN3JSC12JSGlobalDataEPNS1_14JSGlobalObjectEPNS1_9StructureE@Base 2.2.0
 (optional=private|arch=s390x)_ZN7WebCore25JSXPathExceptionPrototype15createStructureERN3JSC12JSGlobalDataENS1_7JSValueE@Base 2.2.0
 (optional=private|arch=s390x)_ZN7WebCore25JSXPathExceptionPrototypeC1ERN3JSC12JSGlobalDataEPNS1_14JSGlobalObjectEPNS1_9StructureE@Base 2.2.0
 (optional=private|arch=s390x)_ZN7WebCore25JSXPathExceptionPrototypeC2ERN3JSC12JSGlobalDataEPNS1_14JSGlobalObjectEPNS1_9StructureE@Base 2.2.0
 (optional=private|arch=s390x)_ZN7WebCore25PageClientQGraphicsWidgetC1EP16QGraphicsWebViewP8QWebPage@Base 2.2.0
 (optional=private|arch=s390x)_ZN7WebCore25PageClientQGraphicsWidgetC2EP16QGraphicsWebViewP8QWebPage@Base 2.2.0
 (optional=private|arch=s390x)_ZN7WebCore26JSArrayBufferViewPrototype15createStructureERN3JSC12JSGlobalDataENS1_7JSValueE@Base 2.2.0
 (optional=private|arch=s390x)_ZN7WebCore26JSArrayBufferViewPrototypeC1ERN3JSC12JSGlobalDataEPNS1_14JSGlobalObjectEPNS1_9StructureE@Base 2.2.0
 (optional=private|arch=s390x)_ZN7WebCore26JSArrayBufferViewPrototypeC2ERN3JSC12JSGlobalDataEPNS1_14JSGlobalObjectEPNS1_9StructureE@Base 2.2.0
 (optional=private|arch=s390x)_ZN7WebCore26JSBeforeLoadEventPrototype15createStructureERN3JSC12JSGlobalDataENS1_7JSValueE@Base 2.2.0
 (optional=private|arch=s390x)_ZN7WebCore26JSBeforeLoadEventPrototypeC1ERN3JSC12JSGlobalDataEPNS1_14JSGlobalObjectEPNS1_9StructureE@Base 2.2.0
 (optional=private|arch=s390x)_ZN7WebCore26JSBeforeLoadEventPrototypeC2ERN3JSC12JSGlobalDataEPNS1_14JSGlobalObjectEPNS1_9StructureE@Base 2.2.0
 (optional=private|arch=s390x)_ZN7WebCore26JSCSSFontFaceRulePrototype15createStructureERN3JSC12JSGlobalDataENS1_7JSValueE@Base 2.2.0
 (optional=private|arch=s390x)_ZN7WebCore26JSCSSFontFaceRulePrototypeC1ERN3JSC12JSGlobalDataEPNS1_14JSGlobalObjectEPNS1_9StructureE@Base 2.2.0
 (optional=private|arch=s390x)_ZN7WebCore26JSCSSFontFaceRulePrototypeC2ERN3JSC12JSGlobalDataEPNS1_14JSGlobalObjectEPNS1_9StructureE@Base 2.2.0
 (optional=private|arch=s390x)_ZN7WebCore26JSCSSImportRuleConstructor15createStructureERN3JSC12JSGlobalDataENS1_7JSValueE@Base 2.2.0
 (optional=private|arch=s390x)_ZN7WebCore26JSCSSStyleDeclarationOwnerC1Ev@Base 2.2.0
 (optional=private|arch=s390x)_ZN7WebCore26JSCSSStyleDeclarationOwnerC2Ev@Base 2.2.0
 (optional=private|arch=s390x)_ZN7WebCore26JSCSSStyleSheetConstructor15createStructureERN3JSC12JSGlobalDataENS1_7JSValueE@Base 2.2.0
 (optional=private|arch=s390x)_ZN7WebCore26JSCanvasPatternConstructor15createStructureERN3JSC12JSGlobalDataENS1_7JSValueE@Base 2.2.0
 (optional=private|arch=s390x)_ZN7WebCore26JSCharacterDataConstructor15createStructureERN3JSC12JSGlobalDataENS1_7JSValueE@Base 2.2.0
 (optional=private|arch=s390x)_ZN7WebCore26JSDOMApplicationCacheOwnerC1Ev@Base 2.2.0
 (optional=private|arch=s390x)_ZN7WebCore26JSDOMApplicationCacheOwnerC2Ev@Base 2.2.0
 (optional=private|arch=s390x)_ZN7WebCore26JSDOMStringListConstructor15createStructureERN3JSC12JSGlobalDataENS1_7JSValueE@Base 2.2.0
 (optional=private|arch=s390x)_ZN7WebCore26JSEntityReferencePrototype15createStructureERN3JSC12JSGlobalDataENS1_7JSValueE@Base 2.2.0
 (optional=private|arch=s390x)_ZN7WebCore26JSEntityReferencePrototypeC1ERN3JSC12JSGlobalDataEPNS1_14JSGlobalObjectEPNS1_9StructureE@Base 2.2.0
 (optional=private|arch=s390x)_ZN7WebCore26JSEntityReferencePrototypeC2ERN3JSC12JSGlobalDataEPNS1_14JSGlobalObjectEPNS1_9StructureE@Base 2.2.0
 (optional=private|arch=s390x)_ZN7WebCore26JSFileExceptionConstructor15createStructureERN3JSC12JSGlobalDataENS1_7JSValueE@Base 2.2.0
 (optional=private|arch=s390x)_ZN7WebCore26JSHTMLAreaElementPrototype15createStructureERN3JSC12JSGlobalDataENS1_7JSValueE@Base 2.2.0
 (optional=private|arch=s390x)_ZN7WebCore26JSHTMLAreaElementPrototypeC1ERN3JSC12JSGlobalDataEPNS1_14JSGlobalObjectEPNS1_9StructureE@Base 2.2.0
 (optional=private|arch=s390x)_ZN7WebCore26JSHTMLAreaElementPrototypeC2ERN3JSC12JSGlobalDataEPNS1_14JSGlobalObjectEPNS1_9StructureE@Base 2.2.0
 (optional=private|arch=s390x)_ZN7WebCore26JSHTMLBRElementConstructor15createStructureERN3JSC12JSGlobalDataENS1_7JSValueE@Base 2.2.0
 (optional=private|arch=s390x)_ZN7WebCore26JSHTMLBaseElementPrototype15createStructureERN3JSC12JSGlobalDataENS1_7JSValueE@Base 2.2.0
 (optional=private|arch=s390x)_ZN7WebCore26JSHTMLBaseElementPrototypeC1ERN3JSC12JSGlobalDataEPNS1_14JSGlobalObjectEPNS1_9StructureE@Base 2.2.0
 (optional=private|arch=s390x)_ZN7WebCore26JSHTMLBaseElementPrototypeC2ERN3JSC12JSGlobalDataEPNS1_14JSGlobalObjectEPNS1_9StructureE@Base 2.2.0
 (optional=private|arch=s390x)_ZN7WebCore26JSHTMLBodyElementPrototype15createStructureERN3JSC12JSGlobalDataENS1_7JSValueE@Base 2.2.0
 (optional=private|arch=s390x)_ZN7WebCore26JSHTMLBodyElementPrototypeC1ERN3JSC12JSGlobalDataEPNS1_14JSGlobalObjectEPNS1_9StructureE@Base 2.2.0
 (optional=private|arch=s390x)_ZN7WebCore26JSHTMLBodyElementPrototypeC2ERN3JSC12JSGlobalDataEPNS1_14JSGlobalObjectEPNS1_9StructureE@Base 2.2.0
 (optional=private|arch=s390x)_ZN7WebCore26JSHTMLFontElementPrototype15createStructureERN3JSC12JSGlobalDataENS1_7JSValueE@Base 2.2.0
 (optional=private|arch=s390x)_ZN7WebCore26JSHTMLFontElementPrototypeC1ERN3JSC12JSGlobalDataEPNS1_14JSGlobalObjectEPNS1_9StructureE@Base 2.2.0
 (optional=private|arch=s390x)_ZN7WebCore26JSHTMLFontElementPrototypeC2ERN3JSC12JSGlobalDataEPNS1_14JSGlobalObjectEPNS1_9StructureE@Base 2.2.0
 (optional=private|arch=s390x)_ZN7WebCore26JSHTMLFormElementPrototype15createStructureERN3JSC12JSGlobalDataENS1_7JSValueE@Base 2.2.0
 (optional=private|arch=s390x)_ZN7WebCore26JSHTMLFormElementPrototypeC1ERN3JSC12JSGlobalDataEPNS1_14JSGlobalObjectEPNS1_9StructureE@Base 2.2.0
 (optional=private|arch=s390x)_ZN7WebCore26JSHTMLFormElementPrototypeC2ERN3JSC12JSGlobalDataEPNS1_14JSGlobalObjectEPNS1_9StructureE@Base 2.2.0
 (optional=private|arch=s390x)_ZN7WebCore26JSHTMLHRElementConstructor15createStructureERN3JSC12JSGlobalDataENS1_7JSValueE@Base 2.2.0
 (optional=private|arch=s390x)_ZN7WebCore26JSHTMLHeadElementPrototype15createStructureERN3JSC12JSGlobalDataENS1_7JSValueE@Base 2.2.0
 (optional=private|arch=s390x)_ZN7WebCore26JSHTMLHeadElementPrototypeC1ERN3JSC12JSGlobalDataEPNS1_14JSGlobalObjectEPNS1_9StructureE@Base 2.2.0
 (optional=private|arch=s390x)_ZN7WebCore26JSHTMLHeadElementPrototypeC2ERN3JSC12JSGlobalDataEPNS1_14JSGlobalObjectEPNS1_9StructureE@Base 2.2.0
 (optional=private|arch=s390x)_ZN7WebCore26JSHTMLHtmlElementPrototype15createStructureERN3JSC12JSGlobalDataENS1_7JSValueE@Base 2.2.0
 (optional=private|arch=s390x)_ZN7WebCore26JSHTMLHtmlElementPrototypeC1ERN3JSC12JSGlobalDataEPNS1_14JSGlobalObjectEPNS1_9StructureE@Base 2.2.0
 (optional=private|arch=s390x)_ZN7WebCore26JSHTMLHtmlElementPrototypeC2ERN3JSC12JSGlobalDataEPNS1_14JSGlobalObjectEPNS1_9StructureE@Base 2.2.0
 (optional=private|arch=s390x)_ZN7WebCore26JSHTMLLIElementConstructor15createStructureERN3JSC12JSGlobalDataENS1_7JSValueE@Base 2.2.0
 (optional=private|arch=s390x)_ZN7WebCore26JSHTMLLinkElementPrototype15createStructureERN3JSC12JSGlobalDataENS1_7JSValueE@Base 2.2.0
 (optional=private|arch=s390x)_ZN7WebCore26JSHTMLLinkElementPrototypeC1ERN3JSC12JSGlobalDataEPNS1_14JSGlobalObjectEPNS1_9StructureE@Base 2.2.0
 (optional=private|arch=s390x)_ZN7WebCore26JSHTMLLinkElementPrototypeC2ERN3JSC12JSGlobalDataEPNS1_14JSGlobalObjectEPNS1_9StructureE@Base 2.2.0
 (optional=private|arch=s390x)_ZN7WebCore26JSHTMLMenuElementPrototype15createStructureERN3JSC12JSGlobalDataENS1_7JSValueE@Base 2.2.0
 (optional=private|arch=s390x)_ZN7WebCore26JSHTMLMenuElementPrototypeC1ERN3JSC12JSGlobalDataEPNS1_14JSGlobalObjectEPNS1_9StructureE@Base 2.2.0
 (optional=private|arch=s390x)_ZN7WebCore26JSHTMLMenuElementPrototypeC2ERN3JSC12JSGlobalDataEPNS1_14JSGlobalObjectEPNS1_9StructureE@Base 2.2.0
 (optional=private|arch=s390x)_ZN7WebCore26JSHTMLMetaElementPrototype15createStructureERN3JSC12JSGlobalDataENS1_7JSValueE@Base 2.2.0
 (optional=private|arch=s390x)_ZN7WebCore26JSHTMLMetaElementPrototypeC1ERN3JSC12JSGlobalDataEPNS1_14JSGlobalObjectEPNS1_9StructureE@Base 2.2.0
 (optional=private|arch=s390x)_ZN7WebCore26JSHTMLMetaElementPrototypeC2ERN3JSC12JSGlobalDataEPNS1_14JSGlobalObjectEPNS1_9StructureE@Base 2.2.0
 (optional=private|arch=s390x)_ZN7WebCore26JSHashChangeEventPrototype15createStructureERN3JSC12JSGlobalDataENS1_7JSValueE@Base 2.2.0
 (optional=private|arch=s390x)_ZN7WebCore26JSHashChangeEventPrototypeC1ERN3JSC12JSGlobalDataEPNS1_14JSGlobalObjectEPNS1_9StructureE@Base 2.2.0
 (optional=private|arch=s390x)_ZN7WebCore26JSHashChangeEventPrototypeC2ERN3JSC12JSGlobalDataEPNS1_14JSGlobalObjectEPNS1_9StructureE@Base 2.2.0
 (optional=private|arch=s390x)_ZN7WebCore26JSKeyboardEventConstructor15createStructureERN3JSC12JSGlobalDataENS1_7JSValueE@Base 2.2.0
 (optional=private|arch=s390x)_ZN7WebCore26JSMutationEventConstructor15createStructureERN3JSC12JSGlobalDataENS1_7JSValueE@Base 2.2.0
 (optional=private|arch=s390x)_ZN7WebCore26JSOverflowEventConstructor15createStructureERN3JSC12JSGlobalDataENS1_7JSValueE@Base 2.2.0
 (optional=private|arch=s390x)_ZN7WebCore26JSPopStateEventConstructor15createStructureERN3JSC12JSGlobalDataENS1_7JSValueE@Base 2.2.0
 (optional=private|arch=s390x)_ZN7WebCore26JSProgressEventConstructor15createStructureERN3JSC12JSGlobalDataENS1_7JSValueE@Base 2.2.0
 (optional=private|arch=s390x)_ZN7WebCore26JSSVGAnimatedRectPrototype15createStructureERN3JSC12JSGlobalDataENS1_7JSValueE@Base 2.2.0
 (optional=private|arch=s390x)_ZN7WebCore26JSSVGAnimatedRectPrototypeC1ERN3JSC12JSGlobalDataEPNS1_14JSGlobalObjectEPNS1_9StructureE@Base 2.2.0
 (optional=private|arch=s390x)_ZN7WebCore26JSSVGAnimatedRectPrototypeC2ERN3JSC12JSGlobalDataEPNS1_14JSGlobalObjectEPNS1_9StructureE@Base 2.2.0
 (optional=private|arch=s390x)_ZN7WebCore26JSSVGAnimatedTransformList15createStructureERN3JSC12JSGlobalDataENS1_7JSValueE@Base 2.2.0
 (optional=private|arch=s390x)_ZN7WebCore26JSSVGFEDistantLightElement15createStructureERN3JSC12JSGlobalDataENS1_7JSValueE@Base 2.2.0
 (optional=private|arch=s390x)_ZN7WebCore26JSSVGFEGaussianBlurElement15createStructureERN3JSC12JSGlobalDataENS1_7JSValueE@Base 2.2.0
 (optional=private|arch=s390x)_ZN7WebCore26JSSVGFontFaceFormatElement15createStructureERN3JSC12JSGlobalDataENS1_7JSValueE@Base 2.2.0
 (optional=private|arch=s390x)_ZN7WebCore26JSSVGGlyphElementPrototype15createStructureERN3JSC12JSGlobalDataENS1_7JSValueE@Base 2.2.0
 (optional=private|arch=s390x)_ZN7WebCore26JSSVGGlyphElementPrototypeC1ERN3JSC12JSGlobalDataEPNS1_14JSGlobalObjectEPNS1_9StructureE@Base 2.2.0
 (optional=private|arch=s390x)_ZN7WebCore26JSSVGGlyphElementPrototypeC2ERN3JSC12JSGlobalDataEPNS1_14JSGlobalObjectEPNS1_9StructureE@Base 2.2.0
 (optional=private|arch=s390x)_ZN7WebCore26JSSVGHKernElementPrototype15createStructureERN3JSC12JSGlobalDataENS1_7JSValueE@Base 2.2.0
 (optional=private|arch=s390x)_ZN7WebCore26JSSVGHKernElementPrototypeC1ERN3JSC12JSGlobalDataEPNS1_14JSGlobalObjectEPNS1_9StructureE@Base 2.2.0
 (optional=private|arch=s390x)_ZN7WebCore26JSSVGHKernElementPrototypeC2ERN3JSC12JSGlobalDataEPNS1_14JSGlobalObjectEPNS1_9StructureE@Base 2.2.0
 (optional=private|arch=s390x)_ZN7WebCore26JSSVGImageElementPrototype15createStructureERN3JSC12JSGlobalDataENS1_7JSValueE@Base 2.2.0
